 amethyst2_4

 Timestamp is 6610a8da (Sat Apr  6 12:13:54 2024)

 Preferred load address is 10000000

 Start         Length     Name                   Class
 0001:00000000 00000380H .text$di                CODE
 0001:00000380 00027120H .text$mn                CODE
 0001:000274a0 000000bbH .text$x                 CODE
 0002:00000000 00000134H .idata$5                DATA
 0002:00000134 00000008H .00cfg                  DATA
 0002:0000013c 00000004H .CRT$XCA                DATA
 0002:00000140 00000004H .CRT$XCU                DATA
 0002:00000144 00000004H .CRT$XCZ                DATA
 0002:00000148 00000004H .CRT$XIA                DATA
 0002:0000014c 00000010H .CRT$XIC                DATA
 0002:0000015c 00000004H .CRT$XIZ                DATA
 0002:00000160 00000004H .CRT$XPA                DATA
 0002:00000164 00000008H .CRT$XPX                DATA
 0002:0000016c 00000004H .CRT$XPXA               DATA
 0002:00000170 00000004H .CRT$XPZ                DATA
 0002:00000174 00000004H .CRT$XTA                DATA
 0002:00000178 00000008H .CRT$XTZ                DATA
 0002:0000017c 00000000H .gfids$y                DATA
 0002:00000180 00007ac0H .rdata                  DATA
 0002:00007c40 00000000H .rdata$CastGuardVftablesA DATA
 0002:00007c40 00000000H .rdata$CastGuardVftablesC DATA
 0002:00007c40 000000dcH .rdata$r                DATA
 0002:00007d1c 00000028H .rdata$sxdata           DATA
 0002:00007d44 000000e8H .rdata$voltmd           DATA
 0002:00007e2c 0000036cH .rdata$zzzdbg           DATA
 0002:00008198 00000004H .rtc$IAA                DATA
 0002:0000819c 00000004H .rtc$IZZ                DATA
 0002:000081a0 00000004H .rtc$TAA                DATA
 0002:000081a4 00000004H .rtc$TZZ                DATA
 0002:000081a8 00000778H .xdata$x                DATA
 0002:00008920 00000110H .edata                  DATA
 0002:00008a30 00000028H .idata$2                DATA
 0002:00008a58 00000014H .idata$3                DATA
 0002:00008a6c 00000134H .idata$4                DATA
 0002:00008ba0 0000056cH .idata$6                DATA
 0003:00000000 00003960H .data                   DATA
 0003:00003960 0000003cH .data$r                 DATA
 0003:0000399c 0000001cH .data$rs                DATA
 0003:000039b8 0060bcdcH .bss                    DATA
 0004:00000000 00000060H .rsrc$01                DATA
 0004:00000060 00000180H .rsrc$02                DATA

  Address         Publics by Value              Rva+Base       Lib:Object

 0000:00000000       ___AbsoluteZero            00000000     <absolute>
 0000:00000000       ___arm64x_extra_rfe_table  00000000     <absolute>
 0000:00000000       ___arm64x_extra_rfe_table_size 00000000     <absolute>
 0000:00000000       ___arm64x_native_entrypoint 00000000     <absolute>
 0000:00000000       ___arm64x_redirection_metadata 00000000     <absolute>
 0000:00000000       ___arm64x_redirection_metadata_count 00000000     <absolute>
 0000:00000000       ___dynamic_value_reloc_table 00000000     <absolute>
 0000:00000000       ___enclave_config          00000000     <absolute>
 0000:00000000       ___guard_check_icall_a64n_fptr 00000000     <absolute>
 0000:00000000       ___guard_eh_cont_count     00000000     <absolute>
 0000:00000000       ___guard_eh_cont_table     00000000     <absolute>
 0000:00000000       ___guard_fids_count        00000000     <absolute>
 0000:00000000       ___guard_fids_table        00000000     <absolute>
 0000:00000000       ___guard_iat_count         00000000     <absolute>
 0000:00000000       ___guard_iat_table         00000000     <absolute>
 0000:00000000       ___guard_longjmp_count     00000000     <absolute>
 0000:00000000       ___guard_longjmp_table     00000000     <absolute>
 0000:00000000       ___hybrid_auxiliary_delayload_iat 00000000     <absolute>
 0000:00000000       ___hybrid_auxiliary_delayload_iat_copy 00000000     <absolute>
 0000:00000000       ___hybrid_auxiliary_iat    00000000     <absolute>
 0000:00000000       ___hybrid_auxiliary_iat_copy 00000000     <absolute>
 0000:00000000       ___hybrid_code_map         00000000     <absolute>
 0000:00000000       ___hybrid_code_map_count   00000000     <absolute>
 0000:00000000       ___hybrid_image_info_bitfield 00000000     <absolute>
 0000:00000000       ___x64_code_ranges_to_entry_points 00000000     <absolute>
 0000:00000000       ___x64_code_ranges_to_entry_points_count 00000000     <absolute>
 0000:00000000       __except_list              00000000     <absolute>
 0000:0000000a       ___safe_se_handler_count   0000000a     <absolute>
 0000:00000100       ___guard_flags             00000100     <absolute>
 0000:00000000       ___ImageBase               10000000     <linker-defined>
 0001:00000380       ?GetHeroRecord@@YAPADH@Z   10001380 f   heroes.obj
 0001:000003a0       ?WriteHook@@YAXPAX0D@Z     100013a0 f   heroes.obj
 0001:000003e0       ?_alldiv__patched@@YGH_JIH@Z 100013e0 f   BugFix.obj
 0001:00000410       ?apply_fixes@@YAXXZ        10001410 f   BugFix.obj
 0001:00000590       ?hook_00426020@@YGHPAVLoHook@@PAUHookContext@@@Z 10001590 f   BugFix.obj
 0001:000005b0       ?hook_0042626A@@YGHPAVLoHook@@PAUHookContext@@@Z 100015b0 f   BugFix.obj
 0001:000005d0       ?hook_00435D7F@@YGHPAVLoHook@@PAUHookContext@@@Z 100015d0 f   BugFix.obj
 0001:000005d0       ?hook_00442D62@@YGHPAVLoHook@@PAUHookContext@@@Z 100015d0 f   BugFix.obj
 0001:000005f0       ?hook_00435DBE@@YGHPAVLoHook@@PAUHookContext@@@Z 100015f0 f   BugFix.obj
 0001:00000610       ?hook_00468A1B@@YGHPAVLoHook@@PAUHookContext@@@Z 10001610 f   BugFix.obj
 0001:00000650       ?hook_00468DBD@@YGHPAVLoHook@@PAUHookContext@@@Z 10001650 f   BugFix.obj
 0001:00000690       ?hook_004D9508@@YGHPAVLoHook@@PAUHookContext@@@Z 10001690 f   BugFix.obj
 0001:000006f0       ?hook_005A6BD3@@YGHPAVLoHook@@PAUHookContext@@@Z 100016f0 f   BugFix.obj
 0001:00000760       ?hook_005A6D89@@YGHPAVLoHook@@PAUHookContext@@@Z 10001760 f   BugFix.obj
 0001:000007b0       ??$strcpy_s@$0BAA@@@YAHAAY0BAA@DPBD@Z 100017b0 f i core.obj
 0001:000007d0       ??$strcpy_s@$0EA@@@YAHAAY0EA@DPBD@Z 100017d0 f i core.obj
 0001:000007f0       ?CreateNewTable@@YAXXZ     100017f0 f   core.obj
 0001:00000c00       ?LoadCrTraitsRow_hook@@YGHPAVHiHook@@HH@Z 10001c00 f   core.obj
 0001:00000d40       ?NewMissiles_Body@@YIHPADH@Z 10001d40 f   core.obj
 0001:00000e70       ?NewMonstersMissiles@@YAXXZ 10001e70 f   core.obj
 0001:00000e90       ?Pop@HookContext@@QAEHXZ   10001e90 f i core.obj
 0001:00000ec0       ?_ebx@@YAHXZ               10001ec0 f   core.obj
 0001:00000ed0       ?fake_new@@YAHH@Z          10001ed0 f   core.obj
 0001:00000f10       ?fake_new_hook@@YGHPAVLoHook@@PAUHookContext@@@Z 10001f10 f   core.obj
 0001:00000f30       ?fix_amethyst_crexpmod@@YAXXZ 10001f30 f   core.obj
 0001:000010e0       ?install_CrState@@YAXXZ    100020e0 f   core.obj
 0001:00001160       ?set_erm_limits@@YAXXZ     10002160 f   core.obj
 0001:000011d0       ___local_stdio_printf_options 100021d0 f i core.obj
 0001:000011e0       __vsnprintf_l              100021e0 f i core.obj
 0001:00001230       __vsprintf_l               10002230 f i core.obj
 0001:00001250       _sprintf                   10002250 f i core.obj
 0001:00001290       ?creexpo1024@@YAXXZ        10002290 f   creexpo1024.obj
 0001:000018d0       ??$StructAt@UH3Main@h3@@@h3@@YAPAUH3Main@0@I@Z 100028d0 f i dllmain.obj
 0001:000018e0       ??0exception@std@@QAE@ABV01@@Z 100028e0 f i dllmain.obj
 0001:00001920       ??1exception@std@@UAE@XZ   10002920 f i dllmain.obj
 0001:00001950       ??_Eexception@std@@UAEPAXI@Z 10002950 f i dllmain.obj
 0001:00001950       ??_Gexception@std@@UAEPAXI@Z 10002950 f i dllmain.obj
 0001:00001980       ?Block_Redirection@@YGXPAUTEvent@Era@@@Z 10002980 f   dllmain.obj
 0001:00001a30       ?ConnectEra@Era@@YAXXZ     10002a30 f   dllmain.obj
 0001:00001dd0       ?Daily_Res@@YGXPAUTEvent@Era@@@Z 10002dd0 f   dllmain.obj
 0001:00002200       ?Fix_Random_Creature_Generation@@YGXPAUTEvent@Era@@@Z 10003200 f   dllmain.obj
 0001:00002280       ?Get@H3Main@h3@@SAPAU12@XZ 10003280 f i dllmain.obj
 0001:000022a0       ?GetPatcher@@YAPAVPatcher@@XZ 100032a0 f i dllmain.obj
 0001:00002300       ?InitMainConfig@@YAXPAD@Z  10003300 f   dllmain.obj
 0001:00002570       ?MonsterRandomGeneration2@@YAXXZ 10003570 f   dllmain.obj
 0001:00002590       ?MonsterRandomGeneration@@YAXXZ 10003590 f   dllmain.obj
 0001:000025b0       ?ReloadExperienceConfig2@@YGXXZ 100035b0 f   dllmain.obj
 0001:00002650       ?RestoreData@@YGXPAUTEvent@Era@@@Z 10003650 f   dllmain.obj
 0001:000026a0       ?ShareStatsEvent@@YGXPAUTEvent@Era@@@Z 100036a0 f   dllmain.obj
 0001:00002770       ?StoreData@@YGXPAUTEvent@Era@@@Z 10003770 f   dllmain.obj
 0001:000027c0       ?battle_late_begin@@YGXPAUTEvent@Era@@@Z 100037c0 f   dllmain.obj
 0001:00002860       ?battle_start_event@@YGXPAUTEvent@Era@@@Z 10003860 f   dllmain.obj
 0001:000028a0       ?begin@?$H3Vector@UH3Town@h3@@@h3@@QAEPAUH3Town@2@XZ 100038a0 f i dllmain.obj
 0001:000028c0       ?drop_html_creature_list@@YGXPAUTEvent@Era@@@Z 100038c0 f   dllmain.obj
 0001:000028e0       ?end@?$H3Vector@UH3Town@h3@@@h3@@QAEPAUH3Town@2@XZ 100038e0 f i dllmain.obj
 0001:00002900       ?fix_vanilla_creatures@@YGXPAUTEvent@Era@@@Z 10003900 f   dllmain.obj
 0001:00002aa0       ?hook_005A7A5A@@YGHPAVLoHook@@PAUHookContext@@@Z 10003aa0 f   dllmain.obj
 0001:00002b30       ?hook_ecx_batman_dialogue_fix@@YGHPAVLoHook@@PAUHookContext@@@Z 10003b30 f   dllmain.obj
 0001:00002b60       ?hook_ecx_batman_fix@@YGHPAVLoHook@@PAUHookContext@@@Z 10003b60 f   dllmain.obj
 0001:00002b80       ?hook_esi_batman_fix@@YGHPAVLoHook@@PAUHookContext@@@Z 10003b80 f   dllmain.obj
 0001:00002ba0       ?install_CrState@@YGXPAUTEvent@Era@@@Z 10003ba0 f   dllmain.obj
 0001:00002bc0       ?load_things_late@@YGXPAUTEvent@Era@@@Z 10003bc0 f   dllmain.obj
 0001:00002ca0       ?strstr@@YAPADQADQBD@Z     10003ca0 f i dllmain.obj
 0001:00002cc0       ?what@exception@std@@UBEPBDXZ 10003cc0 f i dllmain.obj
 0001:00002cf0       _DllMain@12                10003cf0 f   dllmain.obj
 0001:00002e50       ?drop_html_creature_list@@YAXPBD@Z 10003e50 f   DropHtml.obj
 0001:00002f10       __vfprintf_l               10003f10 f i DropHtml.obj
 0001:00002f40       _fprintf                   10003f40 f i DropHtml.obj
 0001:00002f80       ?GameMgr_GetRandMonster_ByLevel@@YGHPAVHiHook@@PAXHH@Z 10003f80 f   GameMgr_GetRandMonster_ByLevel.obj
 0001:00003110       ?v_MsgBox@@YAXPADH@Z       10004110 f i GameMgr_GetRandMonster_ByLevel.obj
 0001:00003140       ?MiscCreatureHooks_apply@@YAXXZ 10004140 f   MiscCreatureHooks.obj
 0001:00003180       ?MiscCreatureHooks_apply_strings@@YAXXZ 10004180 f   MiscCreatureHooks.obj
 0001:00003210       ?hook_UN_G1_reset@@YGHPAVLoHook@@PAUHookContext@@@Z 10004210 f   MiscCreatureHooks.obj
 0001:000032d0       ?hook_UN_G1_set@@YGHPAVLoHook@@PAUHookContext@@@Z 100042d0 f   MiscCreatureHooks.obj
 0001:000033a0       ?M2B_CheckPosCode@@YAHHH@Z 100043a0 f   Summon.obj
 0001:000033f0       ?M2B_FindPos@@YAHHPAH0@Z   100043f0 f   Summon.obj
 0001:00003470       ?M2B_GetPosCode@@YAHHH@Z   10004470 f   Summon.obj
 0001:00003590       ?MakeDalionsGuards@@YGXPAE0H@Z 10004590 f   Summon.obj
 0001:000035d0       ?MakeMonGuards@@YAXPAE0HH@Z 100045d0 f   Summon.obj
 0001:00003850       ?MakeMonGuards_proxy@0@YAXXZ 10004850 f   Summon.obj
 0001:000038c0       ?MakeSGGuards_unstack@@YAXPAE0H@Z 100048c0 f   Summon.obj
 0001:000038c0       ?PEr__Del@@YAXXZ           100048c0 f   Summon.obj
 0001:000038d0       ?SammonCreature@@YAPAEHHHHHH@Z 100048d0 f   Summon.obj
 0001:00003900       ?SammonCreatureEx@@YAPAEHHHHHHH@Z 10004900 f   Summon.obj
 0001:00003990       ?Spell_1_mode_exact_expert@@YAXXZ 10004990 f   tables.obj
 0001:000039c0       ?Spell_1_mode_exact@@YAXXZ 100049c0 f   tables.obj
 0001:000039f0       ?Spell_1_mode_exact_twice@@YAXXZ 100049f0 f   tables.obj
 0001:00003a50       ?Spell_1_mode_elemental@@YAXXZ 10004a50 f   tables.obj
 0001:00003ab0       ?Spell_1_mode_Heavenly_Inspiration@@YAXXZ 10004ab0 f   tables.obj
 0001:00003b40       ?Spell_1_mode_enchant@@YAXXZ 10004b40 f   tables.obj
 0001:00003c10       ?Spell_1_mode_enchant_minor@@YAXXZ 10004c10 f   tables.obj
 0001:00003cc0       ?Spell_1_mode_enchant_major@@YAXXZ 10004cc0 f   tables.obj
 0001:00003db0       ?Spell_1_mode_rush@@YAXXZ  10004db0 f   tables.obj
 0001:00003e60       ?Spell_1_mode_1_extended@@YAXXZ 10004e60 f   tables.obj
 0001:00003f40       ?Spell_1_mode_Dragon_Will@@YAXXZ 10004f40 f   tables.obj
 0001:00004040       ?Spell_1_mode_overclock@@YAXXZ 10005040 f   tables.obj
 0001:00004140       ?Spell_1_mode_repair_and_overclock@@YAXXZ 10005140 f   tables.obj
 0001:000041c0       ?Spell_2_raise_undead@@YAXXZ 100051c0 f   tables.obj
 0001:00004230       ?Spell_2_repair_constructs@@YAXXZ 10005230 f   tables.obj
 0001:000042f0       ?Spell_2_gate_infernals@@YAXXZ 100052f0 f   tables.obj
 0001:00004360       ?Spell_2_damage_spell@@YAXXZ 10005360 f   tables.obj
 0001:000043d0       ?Spell_2_FriendlyNonDragons@@YAXXZ 100053d0 f   tables.obj
 0001:00004410       ?Spell_2_FriendlyConstructs@@YAXXZ 10005410 f   tables.obj
 0001:00004460       ?Spell_3_debuff@@YAXXZ     10005460 f   tables.obj
 0001:00004490       ?Spell_3_custom_buff@@YAXXZ 10005490 f   tables.obj
 0001:000044c0       ?resistance_dwarf60@@YAXXZ 100054c0 f   tables.obj
 0001:000044f0       ?resistance_dwarf80@@YAXXZ 100054f0 f   tables.obj
 0001:00004520       ?resistance_dwarf100@@YAXXZ 10005520 f   tables.obj
 0001:00004550       ?resistance_level_1@@YAXXZ 10005550 f   tables.obj
 0001:00004570       ?resistance_level_1_2@@YAXXZ 10005570 f   tables.obj
 0001:00004590       ?resistance_speed@@YAXXZ   10005590 f   tables.obj
 0001:000045c0       ?resistance_toxic@@YAXXZ   100055c0 f   tables.obj
 0001:000045f0       ?resistance_will@@YAXXZ    100055f0 f   tables.obj
 0001:00004620       ?resistance_no_eyes@@YAXXZ 10005620 f   tables.obj
 0001:00004640       ?resistance_mass_damage@@YAXXZ 10005640 f   tables.obj
 0001:00004660       ?resistance_to_dispel@@YAXXZ 10005660 f   tables.obj
 0001:00004680       ?resistance_to_debuff@@YAXXZ 10005680 f   tables.obj
 0001:000046f0       ?vulnerability_125@@YAXXZ  100056f0 f   tables.obj
 0001:00004710       ?vulnerability_150@@YAXXZ  10005710 f   tables.obj
 0001:00004720       ?vulnerability_200@@YAXXZ  10005720 f   tables.obj
 0001:00004730       ?vulnerability_300@@YAXXZ  10005730 f   tables.obj
 0001:00004740       ?vulnerability_400@@YAXXZ  10005740 f   tables.obj
 0001:00004760       ?vulnerability_500@@YAXXZ  10005760 f   tables.obj
 0001:00004780       ?vulnerability_600@@YAXXZ  10005780 f   tables.obj
 0001:000047a0       ?vulnerability_700@@YAXXZ  100057a0 f   tables.obj
 0001:000047c0       ?vulnerability_900@@YAXXZ  100057c0 f   tables.obj
 0001:000047e0       ?AI_Battle_GetStackCustomBuffValue@@YADPAXHPAHH@Z 100057e0 f   tables.obj
 0001:00004ae0       ?AI_Battle_GetStackDeBuffValue@@YADPAXHPAHH@Z 10005ae0 f   tables.obj
 0001:00004df0       ?AlwaysPositiveLuck2@@YAXXZ 10005df0 f   tables.obj
 0001:00004e10       ?AlwaysPositiveLuck3@@YAXXZ 10005e10 f   tables.obj
 0001:00004e30       ?AlwaysPositiveLuck@@YAXXZ 10005e30 f   tables.obj
 0001:00004e80       ?AlwaysPositiveMorale2@@YAXXZ 10005e80 f   tables.obj
 0001:00004ea0       ?AlwaysPositiveMorale3@@YAXXZ 10005ea0 f   tables.obj
 0001:00004ec0       ?AlwaysPositiveMorale@@YAXXZ 10005ec0 f   tables.obj
 0001:00004ee0       ?AmmoCart_43F718_Hook@@YAXXZ 10005ee0 f   tables.obj
 0001:00004f00       ?Ang1@@YAXXZ               10005f00 f   tables.obj
 0001:00004f90       ?Ang2@@YAXXZ               10005f90 f   tables.obj
 0001:00004ff0       ?AngDem1@@YAXXZ            10005ff0 f   tables.obj
 0001:00005030       ?AngDem2@@YAXXZ            10006030 f   tables.obj
 0001:00005180       ?AngDem3@@YAXXZ            10006180 f   tables.obj
 0001:000052d0       ?AngDem4@@YAXXZ            100062d0 f   tables.obj
 0001:00005320       ?AngDem5@@YAXXZ            10006320 f   tables.obj
 0001:00005410       ?Angel4_004482D3@@YAXXZ    10006410 f   tables.obj
 0001:00005470       ?ApplySharedStats@@YAXHH@Z 10006470 f   tables.obj
 0001:000054a0       ?Before_Melee@@YAXXZ       100064a0 f   tables.obj
 0001:000054c0       ?Before_strike@@YAXXZ      100064c0 f   tables.obj
 0001:000055b0       ?CheckCreature2Leave_hook@@YGHPAVHiHook@@H@Z 100065b0 f   tables.obj
 0001:00005600       ?CounterStrike2@@YAXXZ     10006600 f   tables.obj
 0001:00005640       ?CounterStrike@@YAXXZ      10006640 f   tables.obj
 0001:00005680       ?CrExpBon_DwarfResistFriendly_WoG_hook@@YGHPAVHiHook@@HHH@Z 10006680 f   tables.obj
 0001:000056d0       ?CreateAdditionalTables@@YAXXZ 100066d0 f   tables.obj
 0001:000072c0       ?DeathBlow@@YAXXZ          100082c0 f   tables.obj
 0001:00007300       ?DeathBlowCorrect@@YAXXZ   10008300 f   tables.obj
 0001:00007320       ?Dem1@@YAXXZ               10008320 f   tables.obj
 0001:00007340       ?Dem2@@YAXXZ               10008340 f   tables.obj
 0001:00007440       ?Dem3@@YAXXZ               10008440 f   tables.obj
 0001:00007460       ?Dem4@@YAXXZ               10008460 f   tables.obj
 0001:000074f0       ?Dem5@@YAXXZ               100084f0 f   tables.obj
 0001:00007510       ?Dem6@@YAXXZ               10008510 f   tables.obj
 0001:00007530       ?Demon2@@YAXXZ             10008530 f   tables.obj
 0001:00007560       ?Demon3@@YAXXZ             10008560 f   tables.obj
 0001:00007580       ?Demon@@YAXXZ              10008580 f   tables.obj
 0001:000075a0       ?Dlg_RecruitMonster_Hook_5502EE@@YAXXZ 100085a0 f   tables.obj
 0001:000075d0       ?ERM2String@@YAPADPADHPAH@Z 100085d0 f i tables.obj
 0001:000075f0       ?Fear@@YAXXZ               100085f0 f   tables.obj
 0001:00007630       ?Fearless@@YAXXZ           10008630 f   tables.obj
 0001:00007670       ?FileExists@@YA_NPBD@Z     10008670 f i tables.obj
 0001:000076a0       ?FillTables@@YAXXZ         100086a0 f   tables.obj
 0001:00007760       ?Firewall_byte@@YAXXZ      10008760 f   tables.obj
 0001:00007780       ?Gate2@@YAXXZ              10008780 f   tables.obj
 0001:000077c0       ?GetFireShield@@YGHHPAH@Z  100087c0 f   tables.obj
 0001:00007800       ?GetShotType@@YIHHPAH@Z    10008800 f   tables.obj
 0001:00007820       ?Hate_Hook_766DFF@@YAXXZ   10008820 f   tables.obj
 0001:00007910       ?Hill_Fort_47AA50_Hook@@YAXXZ 10008910 f   tables.obj
 0001:00007930       ?ImmunToJoustingBonus@@YAXXZ 10008930 f   tables.obj
 0001:00007950       ?ImposedSpells1@@YAXXZ     10008950 f   tables.obj
 0001:00007960       ?ImposedSpells2@@YAXXZ     10008960 f   tables.obj
 0001:00007970       ?ImposedSpellsGeneral@@YAXXZ 10008970 f   tables.obj
 0001:000079b0       ?Index@H3CombatCreature@h3@@QBEHXZ 100089b0 f i tables.obj
 0001:000079d0       ?IsAngel3_Minus@@YAXXZ     100089d0 f   tables.obj
 0001:00007a30       ?JoustingBonus@@YAXXZ      10008a30 f   tables.obj
 0001:00007a60       ?LoadCreatureConfig@@YAXH@Z 10008a60 f   tables.obj
 0001:00007b70       ?MagicAura@@YAXXZ          10008b70 f   tables.obj
 0001:00007b90       ?MagicChannel@@YAXXZ       10008b90 f   tables.obj
 0001:00007bb0       ?MagicMirror@@YAXXZ        10008bb0 f   tables.obj
 0001:00007bd0       ?ManaDrain2@@YAXXZ         10008bd0 f   tables.obj
 0001:00007bf0       ?ManaDrainPlus@@YAXXZ      10008bf0 f   tables.obj
 0001:00007c20       ?NPCDeathStare_hook@@YGHPAVHiHook@@HH@Z 10008c20 f   tables.obj
 0001:00007c60       ?NoWallPenalty@@YAXXZ      10008c60 f   tables.obj
 0001:00007c80       ?Passive_474541_Hook@@YAXXZ 10008c80 f   tables.obj
 0001:00007ca0       ?Push@HookContext@@QAEXH@Z 10008ca0 f i tables.obj
 0001:00007cd0       ?Regeneration@@YAXXZ       10008cd0 f   tables.obj
 0001:00007d00       ?ResetAdditionalTables_BattleOnly@@YAXXZ 10008d00 f   tables.obj
 0001:00007ef0       ?ResistanceHook@@YGNPAVHiHook@@HHPAUHERO@@1@Z 10008ef0 f   tables.obj
 0001:00007f70       ?SantaFixPlus@@YAXXZ       10008f70 f   tables.obj
 0001:00007fa0       ?Sharpshooters@@YAXXZ      10008fa0 f   tables.obj
 0001:00007fc0       ?ShootAnyTime2@@YGDH@Z     10008fc0 f   tables.obj
 0001:00008040       ?ShootAnyTime@@YGDH@Z      10009040 f   tables.obj
 0001:000080c0       ?Spells3@@YAXXZ            100090c0 f   tables.obj
 0001:000080f0       ?Spells4@@YAXXZ            100090f0 f   tables.obj
 0001:00008120       ?SpellsCostDump@@YAXXZ     10009120 f   tables.obj
 0001:00008150       ?SpellsCostLess@@YAXXZ     10009150 f   tables.obj
 0001:000081a0       ?ThreeHeadedAttack2@@YAXXZ 100091a0 f   tables.obj
 0001:000081c0       ?ThreeHeadedAttack@@YAXXZ  100091c0 f   tables.obj
 0001:000081e0       ?WoG_CastSpell_Monster@@YAXHHHHHH@Z 100091e0 f   tables.obj
 0001:000082b0       ?f41ED5A_Hook@@YAXXZ       100092b0 f   tables.obj
 0001:000082e0       ?f4225D6_Hook@@YAXXZ       100092e0 f   tables.obj
 0001:00008300       ?f43F72C_Hook@@YAXXZ       10009300 f   tables.obj
 0001:00008330       ?f442E61_Hook@@YAXXZ       10009330 f   tables.obj
 0001:00008350       ?f_4650dd_Hook@@YAXXZ      10009350 f   tables.obj
 0001:00008380       ?f_756B1F_Hook@@YAXXZ      10009380 f   tables.obj
 0001:000083b0       ?f_75C96C_Hook@@YAXXZ      100093b0 f   tables.obj
 0001:000083e0       ?fun_4E609E_Rogue_Hook@@YAXXZ 100093e0 f   tables.obj
 0001:00008410       ?get_can_gate@@YAXXZ       10009410 f   tables.obj
 0001:00008570       ?get_raise_undead@@YAXXZ   10009570 f   tables.obj
 0001:00008710       ?get_repair_constructs@@YAXXZ 10009710 f   tables.obj
 0001:000088f0       ?harpy_hook_0075E063@@YGHPAVLoHook@@PAUHookContext@@@Z 100098f0 f   tables.obj
 0001:00008950       ?harpy_hook_00762940@@YGHPAVLoHook@@PAUHookContext@@@Z 10009950 f   tables.obj
 0001:000089c0       ?has_wog_resist@@YA_NPBDH@Z 100099c0 f   tables.obj
 0001:00008cf0       ?hook_00440245@@YGHPAVLoHook@@PAUHookContext@@@Z 10009cf0 f   tables.obj
 0001:00008d40       ?hook_00440BDB@@YGHPAVLoHook@@PAUHookContext@@@Z 10009d40 f   tables.obj
 0001:00008d90       ?hook_004470B5_Demonology@@YGHPAVLoHook@@PAUHookContext@@@Z 10009d90 f   tables.obj
 0001:00008df0       ?hook_004755E7@@YAXXZ      10009df0 f   tables.obj
 0001:00008e10       ?hook_004E6307@@YAXXZ      10009e10 f   tables.obj
 0001:00008e30       ?hook_005A03A8@@YGHPAVLoHook@@PAUHookContext@@@Z 10009e30 f   tables.obj
 0001:00008eb0       ?isAmmoCart_on_BF@@YAXXZ   10009eb0 f   tables.obj
 0001:00008f10       ?shooting_resistance_hook@@YAHPAEH@Z 10009f10 f   tables.obj
 0001:000090f0       ?zShootAnyTime@@YAHPAE@Z   1000a0f0 f   tables.obj
 0001:00009100       ?z_756BA0_hook@@YGHPAVLoHook@@PAUHookContext@@@Z 1000a100 f   tables.obj
 0001:00009130       ?z_Hook_004403A7@@YGHPAVLoHook@@PAUHookContext@@@Z 1000a130 f   tables.obj
 0001:00009180       ?z_Hook_00443E36@@YGHPAVLoHook@@PAUHookContext@@@Z 1000a180 f   tables.obj
 0001:00009310       ?z_Hook_00479231@@YGHPAVLoHook@@PAUHookContext@@@Z 1000a310 f   tables.obj
 0001:00009480       ?z_Hook_00492A7D@@YGHPAVLoHook@@PAUHookContext@@@Z 1000a480 f   tables.obj
 0001:000094b0       ?z_Hook_after_melee@@YGHPAVLoHook@@PAUHookContext@@@Z 1000a4b0 f   tables.obj
 0001:00009730       ?z_Hook_after_shot@@YGHPAVLoHook@@PAUHookContext@@@Z 1000a730 f   tables.obj
 0001:000099a0       ?z_hook_0046453E@@YGHPAVLoHook@@PAUHookContext@@@Z 1000a9a0 f   tables.obj
 0001:00009c20       ?z_hook_004645BA@@YGHPAVLoHook@@PAUHookContext@@@Z 1000ac20 f   tables.obj
 0001:00009d20       ?z_hook_00478C9E@@YGHPAVLoHook@@PAUHookContext@@@Z 1000ad20 f   tables.obj
 0001:00009d80       ?z_hook_0071CC52@@YGHPAVLoHook@@PAUHookContext@@@Z 1000ad80 f   tables.obj
 0001:00009e30       ?z_hook_0075642C@@YGHPAVLoHook@@PAUHookContext@@@Z 1000ae30 f   tables.obj
 0001:00009ec0       ?z_hook_00756D06@@YGHPAVLoHook@@PAUHookContext@@@Z 1000aec0 f   tables.obj
 0001:00009f00       ?z_hook_0075F840@@YGHPAVLoHook@@PAUHookContext@@@Z 1000af00 f   tables.obj
 0001:00009fa0       ?z_hook_00760412@@YGHPAVLoHook@@PAUHookContext@@@Z 1000afa0 f   tables.obj
 0001:00009fe0       ?z_hook_007609E0@@YGHPAVLoHook@@PAUHookContext@@@Z 1000afe0 f   tables.obj
 0001:0000a020       _ChangeCreatureTable       1000b020 f   tables.obj
 0001:0000c530       _Creature2Artifact         1000d530 f   tables.obj
 0001:0000c550       _Creature2Artifact_2       1000d550 f   tables.obj
 0001:0000c570       _InitNecromancy15          1000d570 f   tables.obj
 0001:0000c660       ___local_stdio_scanf_options 1000d660 f i tables.obj
 0001:0000c670       __hasSantaGuards           1000d670 f   tables.obj
 0001:0000c680       __vfscanf_l                1000d680 f i tables.obj
 0001:0000c6b0       _check_harpy               1000d6b0 f   tables.obj
 0001:0000c700       _fscanf                    1000d700 f i tables.obj
 0001:0000c740       _isCreatureConstruct       1000d740 f   tables.obj
 0001:0000c780       _isReceptive               1000d780 f   tables.obj
 0001:0000c78f       @__security_check_cookie@4 1000d78f f   LIBCMT:secchk.obj
 0001:0000c79d       ??3@YAXPAXI@Z              1000d79d f   LIBCMT:delete_scalar_size.obj
 0001:0000c7ab       ??_Etype_info@@UAEPAXI@Z   1000d7ab f i LIBCMT:std_type_info_static.obj
 0001:0000c7ab       ??_Gtype_info@@UAEPAXI@Z   1000d7ab f i LIBCMT:std_type_info_static.obj
 0001:0000c7ce       ___raise_securityfailure   1000d7ce f   LIBCMT:gs_report.obj
 0001:0000c7f6       ___report_gsfailure        1000d7f6 f   LIBCMT:gs_report.obj
 0001:0000c8f0       ___report_rangecheckfailure 1000d8f0 f   LIBCMT:gs_report.obj
 0001:0000c8fc       ___report_securityfailure  1000d8fc f   LIBCMT:gs_report.obj
 0001:0000cd0b       __DllMainCRTStartup@12     1000dd0b f   LIBCMT:dll_dllmain.obj
 0001:0000cd2e       ??3@YAXPAX@Z               1000dd2e f   LIBCMT:delete_scalar.obj
 0001:0000cd80       ___security_init_cookie    1000dd80 f   LIBCMT:gs_support.obj
 0001:0000cdcb       ?__scrt_initialize_type_info@@YAXXZ 1000ddcb f   LIBCMT:tncleanup.obj
 0001:0000cdd7       ?__scrt_uninitialize_type_info@@YAXXZ 1000ddd7 f   LIBCMT:tncleanup.obj
 0001:0000cde3       ___scrt_initialize_default_local_stdio_options 1000dde3 f   LIBCMT:default_local_stdio_options.obj
 0001:0000ce44       ___scrt_acquire_startup_lock 1000de44 f   LIBCMT:utility.obj
 0001:0000ce76       ___scrt_dllmain_after_initialize_c 1000de76 f   LIBCMT:utility.obj
 0001:0000cea1       ___scrt_dllmain_before_initialize_c 1000dea1 f   LIBCMT:utility.obj
 0001:0000ceaf       ___scrt_dllmain_crt_thread_attach 1000deaf f   LIBCMT:utility.obj
 0001:0000cece       ___scrt_dllmain_crt_thread_detach 1000dece f   LIBCMT:utility.obj
 0001:0000cedb       ___scrt_dllmain_exception_filter 1000dedb f   LIBCMT:utility.obj
 0001:0000cf0f       ___scrt_dllmain_uninitialize_c 1000df0f f   LIBCMT:utility.obj
 0001:0000cf32       ___scrt_dllmain_uninitialize_critical 1000df32 f   LIBCMT:utility.obj
 0001:0000cf3f       ___scrt_initialize_crt     1000df3f f   LIBCMT:utility.obj
 0001:0000cf78       ___scrt_initialize_onexit_tables 1000df78 f   LIBCMT:utility.obj
 0001:0000cfff       ___scrt_is_nonwritable_in_current_image 1000dfff f   LIBCMT:utility.obj
 0001:0000d093       ___scrt_release_startup_lock 1000e093 f   LIBCMT:utility.obj
 0001:0000d0b0       ___scrt_uninitialize_crt   1000e0b0 f   LIBCMT:utility.obj
 0001:0000d0d8       ___scrt_get_dyn_tls_init_callback 1000e0d8 f   LIBCMT:dyn_tls_init.obj
 0001:0000d0de       ___scrt_fastfail           1000e0de f   LIBCMT:utility_desktop.obj
 0001:0000d1f3       __crt_debugger_hook        1000e1f3 f   LIBCMT:utility_desktop.obj
 0001:0000d1fb       __RTC_Initialize           1000e1fb f   LIBCMT:initsect.obj
 0001:0000d227       __RTC_Terminate            1000e227 f   LIBCMT:initsect.obj
 0001:0000d260       __SEH_prolog4              1000e260 f   LIBCMT:sehprolg4.obj
 0001:0000d2a5       @_guard_check_icall_nop@4  1000e2a5 f i LIBCMT:guard_support.obj
 0001:0000d2a8       ___isa_available_init      1000e2a8 f   LIBCMT:cpu_disp.obj
 0001:0000d47c       __get_startup_argv_mode    1000e47c f   LIBCMT:argv_mode.obj
 0001:0000d480       ___scrt_is_ucrt_dll_in_use 1000e480 f   LIBCMT:ucrt_detection.obj
 0001:0000d490       _memcpy                    1000e490 f   libvcruntime:memcpy.obj
 0001:0000d490       _memmove                   1000e490 f   libvcruntime:memmove.obj
 0001:0000da10       _strstr                    1000ea10 f   libvcruntime:strstr.obj
 0001:0000dc7b       ___std_exception_copy      1000ec7b f   libvcruntime:std_exception.obj
 0001:0000dcde       ___std_exception_destroy   1000ecde f   libvcruntime:std_exception.obj
 0001:0000dcfd       __CxxThrowException@8      1000ecfd f   libvcruntime:throw.obj
 0001:0000dd69       ?GetRangeOfTrysToCheck@__FrameHandler3@@SA?AU?$pair@Viterator@TryBlockMap@__FrameHandler3@@V123@@std@@AAVTryBlockMap@1@HPAXPBU_s_FuncInfo@@H@Z 1000ed69 f   libvcruntime:trnsctrl.obj
 0001:0000ddd8       ?_CallCatchBlock2@@YAPAXPAUEHRegistrationNode@@PBU_s_FuncInfo@@PAXHK@Z 1000edd8 f   libvcruntime:trnsctrl.obj
 0001:0000de35       ?_CallSETranslator@@YAHPAUEHExceptionRecord@@PAUEHRegistrationNode@@PAX2PBU_s_FuncInfo@@H1@Z 1000ee35 f   libvcruntime:trnsctrl.obj
 0001:0000df25       ?_JumpToContinuation@@YGXPAXPAUEHRegistrationNode@@@Z 1000ef25 f   libvcruntime:trnsctrl.obj
 0001:0000df55       ?_UnwindNestedFrames@@YGXPAUEHRegistrationNode@@PAUEHExceptionRecord@@@Z 1000ef55 f   libvcruntime:trnsctrl.obj
 0001:0000dfa8       __CatchGuardHandler        1000efa8 f   libvcruntime:trnsctrl.obj
 0001:0000dfd9       __CreateFrameInfo          1000efd9 f   libvcruntime:trnsctrl.obj
 0001:0000dffd       __FindAndUnlinkFrame       1000effd f   libvcruntime:trnsctrl.obj
 0001:0000e045       __TranslatorGuardHandler   1000f045 f   libvcruntime:trnsctrl.obj
 0001:0000e0e2       ___CxxFrameHandler3        1000f0e2 f   libvcruntime:trnsctrl.obj
 0001:0000e120       _memset                    1000f120 f   libvcruntime:memset.obj
 0001:0000e2c0       __except_handler4          1000f2c0 f   libvcruntime:chandler4.obj
 0001:0000e41e       ___std_type_info_compare   1000f41e f   libvcruntime:std_type_info.obj
 0001:0000e45a       ___std_type_info_destroy_list 1000f45a f   libvcruntime:std_type_info.obj
 0001:0000e47d       ___vcrt_initialize         1000f47d f   libvcruntime:initialization.obj
 0001:0000e49c       ___vcrt_thread_attach      1000f49c f   libvcruntime:initialization.obj
 0001:0000e4a7       ___vcrt_thread_detach      1000f4a7 f   libvcruntime:initialization.obj
 0001:0000e4af       ___vcrt_uninitialize       1000f4af f   libvcruntime:initialization.obj
 0001:0000e4c6       ___vcrt_uninitialize_critical 1000f4c6 f   libvcruntime:initialization.obj
 0001:0000e4ce       ___DestructExceptionObject 1000f4ce f   libvcruntime:ehhelpers.obj
 0001:0000e56f       ?_CallMemberFunction0@@YGXQAX0@Z 1000f56f f i libvcruntime:ehhelpers.obj
 0001:0000e5d4       __IsExceptionObjectToBeDestroyed 1000f5d4 f   libvcruntime:ehhelpers.obj
 0001:0000e5fa       ___AdjustPointer           1000f5fa f   libvcruntime:ehhelpers.obj
 0001:0000e61f       ___FrameUnwindFilter       1000f61f f   libvcruntime:ehhelpers.obj
 0001:0000e675       ___std_terminate           1000f675 f   libvcruntime:ehhelpers.obj
 0001:0000e680       _strchr                    1000f680 f   libvcruntime:strchr.obj
 0001:0000e6ee       ___from_strstr_to_strchr   1000f6ee     libvcruntime:strchr.obj
 0001:0000e7ab       ___vcrt_freefls@4          1000f7ab f   libvcruntime:per_thread_data.obj
 0001:0000e7c7       ___vcrt_freeptd_for_this_thread 1000f7c7 f   libvcruntime:per_thread_data.obj
 0001:0000e7f2       ___vcrt_getptd             1000f7f2 f   libvcruntime:per_thread_data.obj
 0001:0000e800       ___vcrt_getptd_noexit      1000f800 f   libvcruntime:per_thread_data.obj
 0001:0000e892       ___vcrt_initialize_ptd     1000f892 f   libvcruntime:per_thread_data.obj
 0001:0000e8c5       ___vcrt_uninitialize_ptd   1000f8c5 f   libvcruntime:per_thread_data.obj
 0001:0000f012       ??$TypeMatchHelper@V__FrameHandler3@@@@YAHPBU_s_HandlerType@@PBU_s_CatchableType@@PBU_s_ThrowInfo@@@Z 10010012 f i libvcruntime:frame.obj
 0001:0000f0a0       ??$__InternalCxxFrameHandler@V__FrameHandler3@@@@YA?AW4_EXCEPTION_DISPOSITION@@PAUEHExceptionRecord@@PAUEHRegistrationNode@@PAU_CONTEXT@@PAXPBU_s_FuncInfo@@H1E@Z 100100a0 f i libvcruntime:frame.obj
 0001:0000f1a2       ??$__InternalCxxFrameHandlerWrapper@V__FrameHandler3@@@@YA?AW4_EXCEPTION_DISPOSITION@@PAUEHExceptionRecord@@PAUEHRegistrationNode@@PAU_CONTEXT@@PAXPBU_s_FuncInfo@@H1E@Z 100101a2 f i libvcruntime:frame.obj
 0001:0000f1ab       ??0bad_exception@std@@QAE@ABV01@@Z 100101ab f i libvcruntime:frame.obj
 0001:0000f1c6       ??0bad_exception@std@@QAE@XZ 100101c6 f i libvcruntime:frame.obj
 0001:0000f1de       ??1bad_exception@std@@UAE@XZ 100101de f i libvcruntime:frame.obj
 0001:0000f1ef       ??8type_info@@QBE_NABV0@@Z 100101ef f i libvcruntime:frame.obj
 0001:0000f20e       ??_Ebad_exception@std@@UAEPAXI@Z 1001020e f i libvcruntime:frame.obj
 0001:0000f20e       ??_Gbad_exception@std@@UAEPAXI@Z 1001020e f i libvcruntime:frame.obj
 0001:0000f493       ?FrameUnwindToEmptyState@__FrameHandler3@@SAXPAUEHRegistrationNode@@PAXPBU_s_FuncInfo@@@Z 10010493 f   libvcruntime:frame.obj
 0001:0000f4ab       ?FrameUnwindToState@__FrameHandler3@@SAXPAUEHRegistrationNode@@PAXPBU_s_FuncInfo@@H@Z 100104ab f   libvcruntime:frame.obj
 0001:0000f62d       ?_CallMemberFunction1@@YGXQAX00@Z 1001062d f i libvcruntime:frame.obj
 0001:0000f63d       ?_CallMemberFunction2@@YGXQAX00H@Z 1001063d f i libvcruntime:frame.obj
 0001:0000f650       ?getESTypes@__FrameHandler3@@SAPBU_s_ESTypeList@@PBU_s_FuncInfo@@@Z 10010650 f i libvcruntime:frame.obj
 0001:0000f660       __CallSettingFrame@12      10010660 f   libvcruntime:lowhelpr.obj
 0001:0000f687       __NLG_Return               10010687     libvcruntime:lowhelpr.obj
 0001:0000f6ac       ___except_validate_context_record 100106ac f   libvcruntime:jbcxrval.obj
 0001:0000f6e0       __local_unwind4            100106e0 f   libvcruntime:exsup4.obj
 0001:0000f7d0       @_EH4_CallFilterFunc@8     100107d0 f   libvcruntime:exsup4.obj
 0001:0000f7f0       @_EH4_TransferToHandler@8  100107f0 f   libvcruntime:exsup4.obj
 0001:0000f810       @_EH4_GlobalUnwind2@8      10010810 f   libvcruntime:exsup4.obj
 0001:0000f830       @_EH4_LocalUnwind@16       10010830 f   libvcruntime:exsup4.obj
 0001:0000f847       ___vcrt_initialize_locks   10010847 f   libvcruntime:locks.obj
 0001:0000f883       ___vcrt_uninitialize_locks 10010883 f   libvcruntime:locks.obj
 0001:0000f99d       ___vcrt_FlsAlloc           1001099d f   libvcruntime:winapi_downlevel.obj
 0001:0000f9d8       ___vcrt_FlsFree            100109d8 f   libvcruntime:winapi_downlevel.obj
 0001:0000fa13       ___vcrt_FlsGetValue        10010a13 f   libvcruntime:winapi_downlevel.obj
 0001:0000fa4e       ___vcrt_FlsSetValue        10010a4e f   libvcruntime:winapi_downlevel.obj
 0001:0000fa8c       ___vcrt_InitializeCriticalSectionEx 10010a8c f   libvcruntime:winapi_downlevel.obj
 0001:0000fad3       _unexpected                10010ad3 f   libvcruntime:unexpected.obj
 0001:0000faf0       ?GetCurrentState@__FrameHandler3@@SAHPAUEHRegistrationNode@@PAXPBU_s_FuncInfo@@@Z 10010af0 f   libvcruntime:ehstate.obj
 0001:0000fb0d       ?SetState@__FrameHandler3@@SAXPAUEHRegistrationNode@@PBU_s_FuncInfo@@H@Z 10010b0d f   libvcruntime:ehstate.obj
 0001:0000fb20       __NLG_Notify1              10010b20 f   libvcruntime:exsup.obj
 0001:0000fb30       __NLG_Notify               10010b30 f   libvcruntime:exsup.obj
 0001:0000fb47       __NLG_Dispatch             10010b47     libvcruntime:exsup.obj
 0001:0000fb47       __NLG_Dispatch2            10010b47     libvcruntime:exsup.obj
 0001:0000fb50       __NLG_Call                 10010b50 f   libvcruntime:exsup.obj
 0001:0000fb52       __NLG_Return2              10010b52     libvcruntime:exsup.obj
 0001:0000fb53       _strcpy_s                  10010b53 f   libucrt:strcpy_s.obj
 0001:0000fd7c       ??$count@D@formatting_buffer@__crt_stdio_output@@QBEIXZ 10010d7c f i libucrt:output.obj
 0001:0000fd94       ??$ensure_buffer_is_big_enough@D@formatting_buffer@__crt_stdio_output@@QAE_NIAAV__crt_cached_ptd_host@@@Z 10010d94 f i libucrt:output.obj
 0001:0000fe15       ??$is_overflow_condition@K@__crt_strtox@@YA_NIK@Z 10010e15 f i libucrt:output.obj
 0001:0000fe46       ??$is_wide_character_specifier@D@__crt_stdio_output@@YA_N_KDW4length_modifier@0@@Z 10010e46 f i libucrt:output.obj
 0001:0000fe77       ??$make_c_string_character_source@DPAPAD@__crt_strtox@@YA?AV?$c_string_character_source@D@0@QBDQAPAD@Z 10010e77 f i libucrt:output.obj
 0001:0000fe92       ??$parse_integer@KV?$c_string_character_source@D@__crt_strtox@@$0A@@__crt_strtox@@YAKAAV__crt_cached_ptd_host@@V?$c_string_character_source@D@0@H_N@Z 10010e92 f i libucrt:output.obj
 0001:000100a1       ??$scratch_data@D@formatting_buffer@__crt_stdio_output@@QAEPADXZ 100110a1 f i libucrt:output.obj
 0001:000100bf       ??$type_case_integer@$07@?$output_processor@DV?$stream_output_adapter@D@__crt_stdio_output@@V?$standard_base@DV?$stream_output_adapter@D@__crt_stdio_output@@@2@@__crt_stdio_output@@AAE_N_N@Z 100110bf f i libucrt:output.obj
 0001:000100bf       ??$type_case_integer@$07@?$output_processor@DV?$string_output_adapter@D@__crt_stdio_output@@V?$standard_base@DV?$string_output_adapter@D@__crt_stdio_output@@@2@@__crt_stdio_output@@AAE_N_N@Z 100110bf f i libucrt:output.obj
 0001:0001023c       ??$type_case_integer@$09@?$output_processor@DV?$stream_output_adapter@D@__crt_stdio_output@@V?$standard_base@DV?$stream_output_adapter@D@__crt_stdio_output@@@2@@__crt_stdio_output@@AAE_N_N@Z 1001123c f i libucrt:output.obj
 0001:0001023c       ??$type_case_integer@$09@?$output_processor@DV?$string_output_adapter@D@__crt_stdio_output@@V?$standard_base@DV?$string_output_adapter@D@__crt_stdio_output@@@2@@__crt_stdio_output@@AAE_N_N@Z 1001123c f i libucrt:output.obj
 0001:000103b9       ??$type_case_integer@$0BA@@?$output_processor@DV?$stream_output_adapter@D@__crt_stdio_output@@V?$standard_base@DV?$stream_output_adapter@D@__crt_stdio_output@@@2@@__crt_stdio_output@@AAE_N_N@Z 100113b9 f i libucrt:output.obj
 0001:000103b9       ??$type_case_integer@$0BA@@?$output_processor@DV?$string_output_adapter@D@__crt_stdio_output@@V?$standard_base@DV?$string_output_adapter@D@__crt_stdio_output@@@2@@__crt_stdio_output@@AAE_N_N@Z 100113b9 f i libucrt:output.obj
 0001:00010536       ??$type_case_integer_parse_into_buffer@I$07@?$output_processor@DV?$stream_output_adapter@D@__crt_stdio_output@@V?$standard_base@DV?$stream_output_adapter@D@__crt_stdio_output@@@2@@__crt_stdio_output@@AAEXI_N@Z 10011536 f i libucrt:output.obj
 0001:00010536       ??$type_case_integer_parse_into_buffer@I$07@?$output_processor@DV?$string_output_adapter@D@__crt_stdio_output@@V?$standard_base@DV?$string_output_adapter@D@__crt_stdio_output@@@2@@__crt_stdio_output@@AAEXI_N@Z 10011536 f i libucrt:output.obj
 0001:000105a0       ??$type_case_integer_parse_into_buffer@I$09@?$output_processor@DV?$stream_output_adapter@D@__crt_stdio_output@@V?$standard_base@DV?$stream_output_adapter@D@__crt_stdio_output@@@2@@__crt_stdio_output@@AAEXI_N@Z 100115a0 f i libucrt:output.obj
 0001:000105a0       ??$type_case_integer_parse_into_buffer@I$09@?$output_processor@DV?$string_output_adapter@D@__crt_stdio_output@@V?$standard_base@DV?$string_output_adapter@D@__crt_stdio_output@@@2@@__crt_stdio_output@@AAEXI_N@Z 100115a0 f i libucrt:output.obj
 0001:0001061a       ??$type_case_integer_parse_into_buffer@I$0BA@@?$output_processor@DV?$stream_output_adapter@D@__crt_stdio_output@@V?$standard_base@DV?$stream_output_adapter@D@__crt_stdio_output@@@2@@__crt_stdio_output@@AAEXI_N@Z 1001161a f i libucrt:output.obj
 0001:0001061a       ??$type_case_integer_parse_into_buffer@I$0BA@@?$output_processor@DV?$string_output_adapter@D@__crt_stdio_output@@V?$standard_base@DV?$string_output_adapter@D@__crt_stdio_output@@@2@@__crt_stdio_output@@AAEXI_N@Z 1001161a f i libucrt:output.obj
 0001:000106a2       ??$type_case_integer_parse_into_buffer@_K$07@?$output_processor@DV?$stream_output_adapter@D@__crt_stdio_output@@V?$standard_base@DV?$stream_output_adapter@D@__crt_stdio_output@@@2@@__crt_stdio_output@@AAEX_K_N@Z 100116a2 f i libucrt:output.obj
 0001:000106a2       ??$type_case_integer_parse_into_buffer@_K$07@?$output_processor@DV?$string_output_adapter@D@__crt_stdio_output@@V?$standard_base@DV?$string_output_adapter@D@__crt_stdio_output@@@2@@__crt_stdio_output@@AAEX_K_N@Z 100116a2 f i libucrt:output.obj
 0001:0001071a       ??$type_case_integer_parse_into_buffer@_K$09@?$output_processor@DV?$stream_output_adapter@D@__crt_stdio_output@@V?$standard_base@DV?$stream_output_adapter@D@__crt_stdio_output@@@2@@__crt_stdio_output@@AAEX_K_N@Z 1001171a f i libucrt:output.obj
 0001:0001071a       ??$type_case_integer_parse_into_buffer@_K$09@?$output_processor@DV?$string_output_adapter@D@__crt_stdio_output@@V?$standard_base@DV?$string_output_adapter@D@__crt_stdio_output@@@2@@__crt_stdio_output@@AAEX_K_N@Z 1001171a f i libucrt:output.obj
 0001:000107b6       ??$type_case_integer_parse_into_buffer@_K$0BA@@?$output_processor@DV?$stream_output_adapter@D@__crt_stdio_output@@V?$standard_base@DV?$stream_output_adapter@D@__crt_stdio_output@@@2@@__crt_stdio_output@@AAEX_K_N@Z 100117b6 f i libucrt:output.obj
 0001:000107b6       ??$type_case_integer_parse_into_buffer@_K$0BA@@?$output_processor@DV?$string_output_adapter@D@__crt_stdio_output@@V?$standard_base@DV?$string_output_adapter@D@__crt_stdio_output@@@2@@__crt_stdio_output@@AAEX_K_N@Z 100117b6 f i libucrt:output.obj
 0001:00010848       ??0?$output_adapter_data@DV?$stream_output_adapter@D@__crt_stdio_output@@@__crt_stdio_output@@IAE@ABV?$stream_output_adapter@D@1@_KQBDAAV__crt_cached_ptd_host@@QAD@Z 10011848 f i libucrt:output.obj
 0001:00010848       ??0?$output_adapter_data@DV?$string_output_adapter@D@__crt_stdio_output@@@__crt_stdio_output@@IAE@ABV?$string_output_adapter@D@1@_KQBDAAV__crt_cached_ptd_host@@QAD@Z 10011848 f i libucrt:output.obj
 0001:000108b0       ??0__crt_cached_ptd_host@@QAE@QAU__crt_locale_pointers@@@Z 100118b0 f i libucrt:output.obj
 0001:00010910       ??1__crt_cached_ptd_host@@QAE@XZ 10011910 f i libucrt:output.obj
 0001:0001094c       ??1formatting_buffer@__crt_stdio_output@@QAE@XZ 1001194c f i libucrt:output.obj
 0001:00010966       ??4?$__crt_unique_heap_ptr@DU__crt_internal_free_policy@@@@QAEAAV0@$$QAV0@@Z 10011966 f i libucrt:output.obj
 0001:00010a26       ?crop_zeroes@__crt_stdio_output@@YAXPADQAU__crt_locale_pointers@@@Z 10011a26 f i libucrt:output.obj
 0001:00010a86       ?find_next_state@?$output_processor@DV?$stream_output_adapter@D@__crt_stdio_output@@V?$standard_base@DV?$stream_output_adapter@D@__crt_stdio_output@@@2@@__crt_stdio_output@@ABE?AW4state@2@DW432@@Z 10011a86 f i libucrt:output.obj
 0001:00010a86       ?find_next_state@?$output_processor@DV?$string_output_adapter@D@__crt_stdio_output@@V?$standard_base@DV?$string_output_adapter@D@__crt_stdio_output@@@2@@__crt_stdio_output@@ABE?AW4state@2@DW432@@Z 10011a86 f i libucrt:output.obj
 0001:00010ac1       ?force_decimal_point@__crt_stdio_output@@YAXPADQAU__crt_locale_pointers@@@Z 10011ac1 f i libucrt:output.obj
 0001:00010b20       ?force_synchronize_per_thread_data@__crt_cached_ptd_host@@AAEPAU__acrt_ptd@@XZ 10011b20 f i libucrt:output.obj
 0001:00010b70       ?get_raw_ptd@__crt_cached_ptd_host@@QAEPAU__acrt_ptd@@XZ 10011b70 f i libucrt:output.obj
 0001:00010bcc       ?parse_int_from_format_string@?$output_processor@DV?$stream_output_adapter@D@__crt_stdio_output@@V?$standard_base@DV?$stream_output_adapter@D@__crt_stdio_output@@@2@@__crt_stdio_output@@AAE_NQAH@Z 10011bcc f i libucrt:output.obj
 0001:00010bcc       ?parse_int_from_format_string@?$output_processor@DV?$string_output_adapter@D@__crt_stdio_output@@V?$standard_base@DV?$string_output_adapter@D@__crt_stdio_output@@@2@@__crt_stdio_output@@AAE_NQAH@Z 10011bcc f i libucrt:output.obj
 0001:00010c44       ?process@?$output_processor@DV?$stream_output_adapter@D@__crt_stdio_output@@V?$standard_base@DV?$stream_output_adapter@D@__crt_stdio_output@@@2@@__crt_stdio_output@@QAEHXZ 10011c44 f i libucrt:output.obj
 0001:00010ef0       ?process@?$output_processor@DV?$string_output_adapter@D@__crt_stdio_output@@V?$standard_base@DV?$string_output_adapter@D@__crt_stdio_output@@@2@@__crt_stdio_output@@QAEHXZ 10011ef0 f i libucrt:output.obj
 0001:000111c4       ?state_case_size@?$output_processor@DV?$stream_output_adapter@D@__crt_stdio_output@@V?$standard_base@DV?$stream_output_adapter@D@__crt_stdio_output@@@2@@__crt_stdio_output@@AAE_NXZ 100121c4 f i libucrt:output.obj
 0001:00011322       ?state_case_size@?$output_processor@DV?$string_output_adapter@D@__crt_stdio_output@@V?$standard_base@DV?$string_output_adapter@D@__crt_stdio_output@@@2@@__crt_stdio_output@@AAE_NXZ 10012322 f i libucrt:output.obj
 0001:00011480       ?state_case_type@?$output_processor@DV?$stream_output_adapter@D@__crt_stdio_output@@V?$standard_base@DV?$stream_output_adapter@D@__crt_stdio_output@@@2@@__crt_stdio_output@@AAE_NXZ 10012480 f i libucrt:output.obj
 0001:000117c8       ?state_case_type@?$output_processor@DV?$string_output_adapter@D@__crt_stdio_output@@V?$standard_base@DV?$string_output_adapter@D@__crt_stdio_output@@@2@@__crt_stdio_output@@AAE_NXZ 100127c8 f i libucrt:output.obj
 0001:00011b56       ?to_integer_size@__crt_stdio_output@@YAIW4length_modifier@1@@Z 10012b56 f i libucrt:output.obj
 0001:00011baa       ?type_case_Z@?$output_processor@DV?$stream_output_adapter@D@__crt_stdio_output@@V?$standard_base@DV?$stream_output_adapter@D@__crt_stdio_output@@@2@@__crt_stdio_output@@AAE_NXZ 10012baa f i libucrt:output.obj
 0001:00011baa       ?type_case_Z@?$output_processor@DV?$string_output_adapter@D@__crt_stdio_output@@V?$standard_base@DV?$string_output_adapter@D@__crt_stdio_output@@@2@@__crt_stdio_output@@AAE_NXZ 10012baa f i libucrt:output.obj
 0001:00011c04       ?type_case_a@?$output_processor@DV?$stream_output_adapter@D@__crt_stdio_output@@V?$standard_base@DV?$stream_output_adapter@D@__crt_stdio_output@@@2@@__crt_stdio_output@@AAE_NXZ 10012c04 f i libucrt:output.obj
 0001:00011c04       ?type_case_a@?$output_processor@DV?$string_output_adapter@D@__crt_stdio_output@@V?$standard_base@DV?$string_output_adapter@D@__crt_stdio_output@@@2@@__crt_stdio_output@@AAE_NXZ 10012c04 f i libucrt:output.obj
 0001:00011d8e       ?type_case_c_tchar@?$output_processor@DV?$stream_output_adapter@D@__crt_stdio_output@@V?$standard_base@DV?$stream_output_adapter@D@__crt_stdio_output@@@2@@__crt_stdio_output@@AAE_ND@Z 10012d8e f i libucrt:output.obj
 0001:00011d8e       ?type_case_c_tchar@?$output_processor@DV?$string_output_adapter@D@__crt_stdio_output@@V?$standard_base@DV?$string_output_adapter@D@__crt_stdio_output@@@2@@__crt_stdio_output@@AAE_ND@Z 10012d8e f i libucrt:output.obj
 0001:00011e23       ?type_case_n@?$output_processor@DV?$stream_output_adapter@D@__crt_stdio_output@@V?$standard_base@DV?$stream_output_adapter@D@__crt_stdio_output@@@2@@__crt_stdio_output@@AAE_NXZ 10012e23 f i libucrt:output.obj
 0001:00011e23       ?type_case_n@?$output_processor@DV?$string_output_adapter@D@__crt_stdio_output@@V?$standard_base@DV?$string_output_adapter@D@__crt_stdio_output@@@2@@__crt_stdio_output@@AAE_NXZ 10012e23 f i libucrt:output.obj
 0001:00011ea7       ?type_case_o@?$output_processor@DV?$stream_output_adapter@D@__crt_stdio_output@@V?$standard_base@DV?$stream_output_adapter@D@__crt_stdio_output@@@2@@__crt_stdio_output@@AAE_NXZ 10012ea7 f i libucrt:output.obj
 0001:00011ea7       ?type_case_o@?$output_processor@DV?$string_output_adapter@D@__crt_stdio_output@@V?$standard_base@DV?$string_output_adapter@D@__crt_stdio_output@@@2@@__crt_stdio_output@@AAE_NXZ 10012ea7 f i libucrt:output.obj
 0001:00011ec4       ?type_case_p@?$output_processor@DV?$stream_output_adapter@D@__crt_stdio_output@@V?$standard_base@DV?$stream_output_adapter@D@__crt_stdio_output@@@2@@__crt_stdio_output@@AAE_NXZ 10012ec4 f i libucrt:output.obj
 0001:00011ec4       ?type_case_p@?$output_processor@DV?$string_output_adapter@D@__crt_stdio_output@@V?$standard_base@DV?$string_output_adapter@D@__crt_stdio_output@@@2@@__crt_stdio_output@@AAE_NXZ 10012ec4 f i libucrt:output.obj
 0001:00011eda       ?type_case_s@?$output_processor@DV?$stream_output_adapter@D@__crt_stdio_output@@V?$standard_base@DV?$stream_output_adapter@D@__crt_stdio_output@@@2@@__crt_stdio_output@@AAE_NXZ 10012eda f i libucrt:output.obj
 0001:00011eda       ?type_case_s@?$output_processor@DV?$string_output_adapter@D@__crt_stdio_output@@V?$standard_base@DV?$string_output_adapter@D@__crt_stdio_output@@@2@@__crt_stdio_output@@AAE_NXZ 10012eda f i libucrt:output.obj
 0001:00011f4b       ?unget@?$c_string_character_source@D@__crt_strtox@@QAEXD@Z 10012f4b f i libucrt:output.obj
 0001:00011f80       ?update_locale_slow@__crt_cached_ptd_host@@AAEXXZ 10012f80 f i libucrt:output.obj
 0001:00011fdb       ?validate@?$c_string_character_source@D@__crt_strtox@@QBE_NXZ 10012fdb f i libucrt:output.obj
 0001:00011ff6       ?validate@?$stream_output_adapter@D@__crt_stdio_output@@QBE_NAAV__crt_cached_ptd_host@@@Z 10012ff6 f i libucrt:output.obj
 0001:0001202e       ?validate@?$string_output_adapter@D@__crt_stdio_output@@QBE_NAAV__crt_cached_ptd_host@@@Z 1001302e f i libucrt:output.obj
 0001:0001205f       ?validate_stream_is_ansi_if_required@?$__acrt_stdio_char_traits@D@@SA_NQAU_iobuf@@@Z 1001305f f i libucrt:output.obj
 0001:000120e6       ?write_character@?$output_adapter_common@DV?$stream_output_adapter@D@__crt_stdio_output@@@__crt_stdio_output@@QBEXDQAHAAV__crt_cached_ptd_host@@@Z 100130e6 f i libucrt:output.obj
 0001:00012108       ?write_character_without_count_update@?$stream_output_adapter@D@__crt_stdio_output@@QBE_NDAAV__crt_cached_ptd_host@@@Z 10013108 f i libucrt:output.obj
 0001:00012142       ?write_string@?$stream_output_adapter@D@__crt_stdio_output@@QBEXQBDHQAHAAV__crt_cached_ptd_host@@@Z 10013142 f i libucrt:output.obj
 0001:0001216e       ?write_string@?$string_output_adapter@D@__crt_stdio_output@@QBEXQBDHQAHAAV__crt_cached_ptd_host@@@Z 1001316e f i libucrt:output.obj
 0001:000121d5       ?write_string_impl@?$output_adapter_common@DV?$stream_output_adapter@D@__crt_stdio_output@@@__crt_stdio_output@@IBEXQBDHQAHAAV__crt_cached_ptd_host@@@Z 100131d5 f i libucrt:output.obj
 0001:00012254       ___acrt_locale_get_ctype_array_value 10013254 f i libucrt:output.obj
 0001:00012276       ___stdio_common_vfprintf   10013276 f   libucrt:output.obj
 0001:0001231a       ___stdio_common_vsprintf   1001331a f   libucrt:output.obj
 0001:0001235b       _malloc                    1001335b f   libucrt:malloc.obj
 0001:00012366       ?check_synchronize_global_state_index@__crt_cached_ptd_host@@AAEIXZ 10013366 f i libucrt:invalid_parameter.obj
 0001:0001238f       ___acrt_call_reportfault   1001338f f   libucrt:invalid_parameter.obj
 0001:000124c8       ___acrt_initialize_invalid_parameter_handler 100134c8 f   libucrt:invalid_parameter.obj
 0001:000124d7       __invalid_parameter        100134d7 f   libucrt:invalid_parameter.obj
 0001:0001250e       __invalid_parameter_internal 1001350e f   libucrt:invalid_parameter.obj
 0001:0001258b       __invalid_parameter_noinfo 1001358b f   libucrt:invalid_parameter.obj
 0001:0001259b       __invoke_watson            1001359b f   libucrt:invalid_parameter.obj
 0001:000126f4       _fclose                    100136f4 f   libucrt:fclose.obj
 0001:000127db       _fopen                     100137db f   libucrt:fopen.obj
 0001:000127f2       __fread_nolock_s           100137f2 f   libucrt:fread.obj
 0001:000129d8       _fread                     100139d8 f   libucrt:fread.obj
 0001:000129f5       _fread_s                   100139f5 f   libucrt:fread.obj
 0001:00012b13       ?LongLongSub@@YAJ_J0PA_J@Z 10013b13 f i libucrt:fseek.obj
 0001:00012dee       _fseek                     10013dee f   libucrt:fseek.obj
 0001:00013436       __ftelli64_nolock_internal 10014436 f   libucrt:ftell.obj
 0001:00013441       _ftell                     10014441 f   libucrt:ftell.obj
 0001:00013557       _rewind                    10014557 f   libucrt:rewind.obj
 0001:00013581       _free                      10014581 f   libucrt:free.obj
 0001:0001359c       ??$is_overflow_condition@_K@__crt_strtox@@YA_NI_K@Z 1001459c f i libucrt:atox.obj
 0001:000135dd       ??$parse_integer@KV?$c_string_character_source@D@__crt_strtox@@$00@__crt_strtox@@YAKAAV__crt_cached_ptd_host@@V?$c_string_character_source@D@0@H_N@Z 100145dd f i libucrt:atox.obj
 0001:00013824       ??$parse_integer@_KV?$c_string_character_source@D@__crt_strtox@@$00@__crt_strtox@@YA_KAAV__crt_cached_ptd_host@@V?$c_string_character_source@D@0@H_N@Z 10014824 f i libucrt:atox.obj
 0001:00013aec       __ischartype_l             10014aec f i libucrt:atox.obj
 0001:00013b43       _atoi                      10014b43 f   libucrt:atox.obj
 0001:00013bdd       ??$assemble_floating_point_snan@N@__crt_strtox@@YAX_NAAN@Z 10014bdd f i libucrt:input.obj
 0001:00013bfe       ??$assemble_floating_point_value_t@M@__crt_strtox@@YA?AW4SLD_STATUS@@_NH_KAAM@Z 10014bfe f i libucrt:input.obj
 0001:00013c2e       ??$assemble_floating_point_value_t@N@__crt_strtox@@YA?AW4SLD_STATUS@@_NH_KAAN@Z 10014c2e f i libucrt:input.obj
 0001:00013c70       ??$convert_decimal_string_to_floating_type@M@__crt_strtox@@YA?AW4SLD_STATUS@@ABUfloating_point_string@0@AAM@Z 10014c70 f i libucrt:input.obj
 0001:00013c91       ??$convert_decimal_string_to_floating_type@N@__crt_strtox@@YA?AW4SLD_STATUS@@ABUfloating_point_string@0@AAN@Z 10014c91 f i libucrt:input.obj
 0001:00013cb2       ??$convert_hexadecimal_string_to_floating_type@M@__crt_strtox@@YA?AW4SLD_STATUS@@ABUfloating_point_string@0@AAM@Z 10014cb2 f i libucrt:input.obj
 0001:00013cd3       ??$convert_hexadecimal_string_to_floating_type@N@__crt_strtox@@YA?AW4SLD_STATUS@@ABUfloating_point_string@0@AAN@Z 10014cd3 f i libucrt:input.obj
 0001:00013cf4       ??$make_input_adapter_character_source@V?$stream_input_adapter@D@__crt_stdio_input@@@__crt_strtox@@YA?AV?$input_adapter_character_source@V?$stream_input_adapter@D@__crt_stdio_input@@@0@QAV?$stream_input_adapter@D@__crt_stdio_input@@_KQA_N@Z 10014cf4 f i libucrt:input.obj
 0001:00013d12       ??$parse_floating_point@V?$input_adapter_character_source@V?$stream_input_adapter@D@__crt_stdio_input@@@__crt_strtox@@M@__crt_strtox@@YA?AW4SLD_STATUS@@QAU__crt_locale_pointers@@V?$input_adapter_character_source@V?$stream_input_adapter@D@__crt_stdio_input@@@0@QAM@Z 10014d12 f i libucrt:input.obj
 0001:00013d9c       ??$parse_floating_point@V?$input_adapter_character_source@V?$stream_input_adapter@D@__crt_stdio_input@@@__crt_strtox@@N@__crt_strtox@@YA?AW4SLD_STATUS@@QAU__crt_locale_pointers@@V?$input_adapter_character_source@V?$stream_input_adapter@D@__crt_stdio_input@@@0@QAN@Z 10014d9c f i libucrt:input.obj
 0001:00013e26       ??$parse_floating_point_from_source@V?$input_adapter_character_source@V?$stream_input_adapter@D@__crt_stdio_input@@@__crt_strtox@@@__crt_strtox@@YA?AW4floating_point_parse_result@0@QAU__crt_locale_pointers@@AAV?$input_adapter_character_source@V?$stream_input_adapter@D@__crt_stdio_input@@@0@AAUfloating_point_string@0@@Z 10014e26 f i libucrt:input.obj
 0001:00014271       ??$parse_floating_point_possible_infinity@DV?$input_adapter_character_source@V?$stream_input_adapter@D@__crt_stdio_input@@@__crt_strtox@@_K@__crt_strtox@@YA?AW4floating_point_parse_result@0@AADAAV?$input_adapter_character_source@V?$stream_input_adapter@D@__crt_stdio_input@@@0@_K@Z 10015271 f i libucrt:input.obj
 0001:00014330       ??$parse_floating_point_possible_nan@DV?$input_adapter_character_source@V?$stream_input_adapter@D@__crt_stdio_input@@@__crt_strtox@@_K@__crt_strtox@@YA?AW4floating_point_parse_result@0@AADAAV?$input_adapter_character_source@V?$stream_input_adapter@D@__crt_stdio_input@@@0@_K@Z 10015330 f i libucrt:input.obj
 0001:00014438       ??$parse_floating_point_possible_nan_is_ind@DV?$input_adapter_character_source@V?$stream_input_adapter@D@__crt_stdio_input@@@__crt_strtox@@@__crt_strtox@@YA_NAADAAV?$input_adapter_character_source@V?$stream_input_adapter@D@__crt_stdio_input@@@0@@Z 10015438 f i libucrt:input.obj
 0001:00014472       ??$parse_floating_point_possible_nan_is_snan@DV?$input_adapter_character_source@V?$stream_input_adapter@D@__crt_stdio_input@@@__crt_strtox@@@__crt_strtox@@YA_NAADAAV?$input_adapter_character_source@V?$stream_input_adapter@D@__crt_stdio_input@@@0@@Z 10015472 f i libucrt:input.obj
 0001:000144ac       ??$parse_floating_point_write_result@M@__crt_strtox@@YA?AW4SLD_STATUS@@W4floating_point_parse_result@0@ABUfloating_point_string@0@QAM@Z 100154ac f i libucrt:input.obj
 0001:00014618       ??$parse_floating_point_write_result@N@__crt_strtox@@YA?AW4SLD_STATUS@@W4floating_point_parse_result@0@ABUfloating_point_string@0@QAN@Z 10015618 f i libucrt:input.obj
 0001:0001473c       ??$parse_integer@_KV?$input_adapter_character_source@V?$stream_input_adapter@D@__crt_stdio_input@@@__crt_strtox@@$00@__crt_strtox@@YA_KAAV__crt_cached_ptd_host@@V?$input_adapter_character_source@V?$stream_input_adapter@D@__crt_stdio_input@@@0@H_N@Z 1001573c f i libucrt:input.obj
 0001:00014a40       ??$parse_integer@_KV?$input_adapter_character_source@V?$stream_input_adapter@D@__crt_stdio_input@@@__crt_strtox@@@__crt_strtox@@YA_KQAU__crt_locale_pointers@@V?$input_adapter_character_source@V?$stream_input_adapter@D@__crt_stdio_input@@@0@H_N@Z 10015a40 f i libucrt:input.obj
 0001:00014a9c       ??$process_floating_point_specifier_t@M@?$input_processor@DV?$stream_input_adapter@D@__crt_stdio_input@@@__crt_stdio_input@@AAE_NXZ 10015a9c f i libucrt:input.obj
 0001:00014b05       ??$process_floating_point_specifier_t@N@?$input_processor@DV?$stream_input_adapter@D@__crt_stdio_input@@@__crt_stdio_input@@AAE_NXZ 10015b05 f i libucrt:input.obj
 0001:00014b6e       ??$process_string_specifier_tchar@D@?$input_processor@DV?$stream_input_adapter@D@__crt_stdio_input@@@__crt_stdio_input@@AAE_NW4conversion_mode@1@D@Z 10015b6e f i libucrt:input.obj
 0001:00014ce5       ??$process_string_specifier_tchar@_W@?$input_processor@DV?$stream_input_adapter@D@__crt_stdio_input@@@__crt_stdio_input@@AAE_NW4conversion_mode@1@_W@Z 10015ce5 f i libucrt:input.obj
 0001:00014e68       ??$skip_whitespace@Vstream_input_adapter@__crt_stdio_input@@D@__crt_stdio_input@@YAHAAV?$stream_input_adapter@D@0@QAU__crt_locale_pointers@@@Z 10015e68 f i libucrt:input.obj
 0001:00014e9f       ??$write_floating_point@M@?$input_processor@DV?$stream_input_adapter@D@__crt_stdio_input@@@__crt_stdio_input@@AAE_NABM@Z 10015e9f f i libucrt:input.obj
 0001:00014ed3       ??$write_floating_point@N@?$input_processor@DV?$stream_input_adapter@D@__crt_stdio_input@@@__crt_stdio_input@@AAE_NABN@Z 10015ed3 f i libucrt:input.obj
 0001:00014f0d       ??0?$format_string_parser@D@__crt_stdio_input@@QAE@_KQBE@Z 10015f0d f i libucrt:input.obj
 0001:00014f57       ??0?$input_adapter_character_source@V?$stream_input_adapter@D@__crt_stdio_input@@@__crt_strtox@@QAE@$$QAV01@@Z 10015f57 f i libucrt:input.obj
 0001:00014f94       ??0?$input_adapter_character_source@V?$stream_input_adapter@D@__crt_stdio_input@@@__crt_strtox@@QAE@QAV?$stream_input_adapter@D@__crt_stdio_input@@_KQA_N@Z 10015f94 f i libucrt:input.obj
 0001:00014fc5       ??0?$input_processor@DV?$stream_input_adapter@D@__crt_stdio_input@@@__crt_stdio_input@@QAE@ABV?$stream_input_adapter@D@1@_KQBDQAU__crt_locale_pointers@@QAD@Z 10015fc5 f i libucrt:input.obj
 0001:0001500e       ??0_LocaleUpdate@@QAE@QAU__crt_locale_pointers@@@Z 1001600e f i libucrt:input.obj
 0001:00015090       ??R<lambda_0b87716a0b73cdfba1cd37fcaaa20711>@@QBE_NXZ 10016090 f i libucrt:input.obj
 0001:00015090       ??R<lambda_c7c3f778895f47e7f4eff38a8fef279a>@@QBE_NXZ 10016090 f i libucrt:input.obj
 0001:00015090       ??R<lambda_e41f1170c8800e4a6fed1afad60fab6f>@@QBE_NXZ 10016090 f i libucrt:input.obj
 0001:0001513a       ?advance@?$format_string_parser@D@__crt_stdio_input@@QAE_NXZ 1001613a f i libucrt:input.obj
 0001:00015252       ?as_double@floating_point_value@__crt_strtox@@QBEAANXZ 10016252 f i libucrt:input.obj
 0001:00015277       ?as_float@floating_point_value@__crt_strtox@@QBEAAMXZ 10016277 f i libucrt:input.obj
 0001:0001529c       ?assemble_floating_point_infinity@__crt_strtox@@YAX_NABVfloating_point_value@1@@Z 1001629c f i libucrt:input.obj
 0001:000152dc       ?assemble_floating_point_value@__crt_strtox@@YA?AW4SLD_STATUS@@_KH_N1ABVfloating_point_value@1@@Z 100162dc f i libucrt:input.obj
 0001:0001562f       ?assemble_floating_point_value_from_big_integer@__crt_strtox@@YA?AW4SLD_STATUS@@ABUbig_integer@1@I_N1ABVfloating_point_value@1@@Z 1001662f f i libucrt:input.obj
 0001:000157c1       ?assemble_floating_point_zero@__crt_strtox@@YAX_NABVfloating_point_value@1@@Z 100167c1 f i libucrt:input.obj
 0001:000157f6       ?convert_decimal_string_to_floating_type_common@__crt_strtox@@YA?AW4SLD_STATUS@@ABUfloating_point_string@1@ABVfloating_point_value@1@@Z 100167f6 f i libucrt:input.obj
 0001:00017515       ?convert_hexadecimal_string_to_floating_type_common@__crt_strtox@@YA?AW4SLD_STATUS@@ABUfloating_point_string@1@ABVfloating_point_value@1@@Z 10018515 f i libucrt:input.obj
 0001:000175bb       ?denormal_mantissa_mask@floating_point_value@__crt_strtox@@QBE_KXZ 100185bb f i libucrt:input.obj
 0001:000175e0       ?divide@__crt_strtox@@YA_KAAUbig_integer@1@ABU21@@Z 100185e0 f i libucrt:input.obj
 0001:00017a68       ?get@?$input_adapter_character_source@V?$stream_input_adapter@D@__crt_stdio_input@@@__crt_strtox@@QAEDXZ 10018a68 f i libucrt:input.obj
 0001:00017aa7       ?is_character_allowed_in_string@?$input_processor@DV?$stream_input_adapter@D@__crt_stdio_input@@@__crt_stdio_input@@ABE_NW4conversion_mode@2@H@Z 10018aa7 f i libucrt:input.obj
 0001:00017af7       ?length@?$format_string_parser@D@__crt_stdio_input@@QBEIXZ 10018af7 f i libucrt:input.obj
 0001:00017b38       ?normal_mantissa_mask@floating_point_value@__crt_strtox@@QBE_KXZ 10018b38 f i libucrt:input.obj
 0001:00017b4f       ?process@?$input_processor@DV?$stream_input_adapter@D@__crt_stdio_input@@@__crt_stdio_input@@QAEHXZ 10018b4f f i libucrt:input.obj
 0001:00017bda       ?process_character_count_specifier@?$input_processor@DV?$stream_input_adapter@D@__crt_stdio_input@@@__crt_stdio_input@@AAE_NXZ 10018bda f i libucrt:input.obj
 0001:00017bee       ?process_conversion_specifier@?$input_processor@DV?$stream_input_adapter@D@__crt_stdio_input@@@__crt_stdio_input@@AAE_NXZ 10018bee f i libucrt:input.obj
 0001:00017c62       ?process_floating_point_specifier@?$input_processor@DV?$stream_input_adapter@D@__crt_stdio_input@@@__crt_stdio_input@@AAE_NXZ 10018c62 f i libucrt:input.obj
 0001:00017c92       ?process_integer_specifier@?$input_processor@DV?$stream_input_adapter@D@__crt_stdio_input@@@__crt_stdio_input@@AAE_NI_N@Z 10018c92 f i libucrt:input.obj
 0001:00017cf7       ?process_literal_character@?$input_processor@DV?$stream_input_adapter@D@__crt_stdio_input@@@__crt_stdio_input@@AAE_NXZ 10018cf7 f i libucrt:input.obj
 0001:00017d2d       ?process_literal_character_tchar@?$input_processor@DV?$stream_input_adapter@D@__crt_stdio_input@@@__crt_stdio_input@@AAE_ND@Z 10018d2d f i libucrt:input.obj
 0001:00017d84       ?process_state@?$input_processor@DV?$stream_input_adapter@D@__crt_stdio_input@@@__crt_stdio_input@@AAE_NXZ 10018d84 f i libucrt:input.obj
 0001:00017dc6       ?process_string_specifier@?$input_processor@DV?$stream_input_adapter@D@__crt_stdio_input@@@__crt_stdio_input@@AAE_NW4conversion_mode@2@@Z 10018dc6 f i libucrt:input.obj
 0001:00017e0e       ?process_whitespace@?$input_processor@DV?$stream_input_adapter@D@__crt_stdio_input@@@__crt_stdio_input@@AAE_NXZ 10018e0e f i libucrt:input.obj
 0001:00017e2b       ?restore_state@?$input_adapter_character_source@V?$stream_input_adapter@D@__crt_stdio_input@@@__crt_strtox@@QAE_N_K@Z 10018e2b f i libucrt:input.obj
 0001:00017e50       ?scan_conversion_specifier@?$format_string_parser@D@__crt_stdio_input@@AAE_NXZ 10018e50 f i libucrt:input.obj
 0001:00017fbb       ?scan_optional_field_width@?$format_string_parser@D@__crt_stdio_input@@AAE_NXZ 10018fbb f i libucrt:input.obj
 0001:0001804f       ?scan_optional_length_modifier@?$format_string_parser@D@__crt_stdio_input@@AAEXXZ 1001904f f i libucrt:input.obj
 0001:00018162       ?scan_optional_literal_character_trail_bytes_tchar@?$format_string_parser@D@__crt_stdio_input@@AAE_ND@Z 10019162 f i libucrt:input.obj
 0001:000181b4       ?scan_optional_wide_modifier@?$format_string_parser@D@__crt_stdio_input@@AAEXXZ 100191b4 f i libucrt:input.obj
 0001:000181d2       ?scan_scanset_range@?$format_string_parser@D@__crt_stdio_input@@AAE_NXZ 100191d2 f i libucrt:input.obj
 0001:00018313       ?set_wide_for_c_s_or_scanset@?$format_string_parser@D@__crt_stdio_input@@AAEXXZ 10019313 f i libucrt:input.obj
 0001:00018334       ?to_floating_point_length@__crt_stdio_input@@YAIW4length_modifier@1@@Z 10019334 f i libucrt:input.obj
 0001:00018357       ?to_integer_length@__crt_stdio_input@@YAIW4length_modifier@1@@Z 10019357 f i libucrt:input.obj
 0001:000183aa       ?unget@?$input_adapter_character_source@V?$stream_input_adapter@D@__crt_stdio_input@@@__crt_strtox@@QAEXD@Z 100193aa f i libucrt:input.obj
 0001:000183f1       ?unget@?$stream_input_adapter@D@__crt_stdio_input@@QAEXH@Z 100193f1 f i libucrt:input.obj
 0001:0001840f       ?validate@?$format_string_parser@D@__crt_stdio_input@@QBE_NXZ 1001940f f i libucrt:input.obj
 0001:0001842b       ?validate@?$input_adapter_character_source@V?$stream_input_adapter@D@__crt_stdio_input@@@__crt_strtox@@QBE_NXZ 1001942b f i libucrt:input.obj
 0001:0001844c       ?validate@?$stream_input_adapter@D@__crt_stdio_input@@QBE_NXZ 1001944c f i libucrt:input.obj
 0001:0001846d       ?write_character@?$input_processor@DV?$stream_input_adapter@D@__crt_stdio_input@@@__crt_stdio_input@@AAE_NQA_WIAAPA_WAAID@Z 1001946d f i libucrt:input.obj
 0001:000184e3       ?write_integer@?$input_processor@DV?$stream_input_adapter@D@__crt_stdio_input@@@__crt_stdio_input@@AAE_N_K@Z 100194e3 f i libucrt:input.obj
 0001:00018551       ___stdio_common_vfscanf    10019551 f   libucrt:input.obj
 0001:0001863a       ??$parse_floating_point@V?$c_string_character_source@D@__crt_strtox@@N@__crt_strtox@@YA?AW4SLD_STATUS@@QAU__crt_locale_pointers@@V?$c_string_character_source@D@0@QAN@Z 1001963a f i libucrt:atof.obj
 0001:000186ba       ??$parse_floating_point_from_source@V?$c_string_character_source@D@__crt_strtox@@@__crt_strtox@@YA?AW4floating_point_parse_result@0@QAU__crt_locale_pointers@@AAV?$c_string_character_source@D@0@AAUfloating_point_string@0@@Z 100196ba f i libucrt:atof.obj
 0001:00018ab2       ??$parse_floating_point_possible_infinity@DV?$c_string_character_source@D@__crt_strtox@@PBD@__crt_strtox@@YA?AW4floating_point_parse_result@0@AADAAV?$c_string_character_source@D@0@PBD@Z 10019ab2 f i libucrt:atof.obj
 0001:00018b65       ??$parse_floating_point_possible_nan@DV?$c_string_character_source@D@__crt_strtox@@PBD@__crt_strtox@@YA?AW4floating_point_parse_result@0@AADAAV?$c_string_character_source@D@0@PBD@Z 10019b65 f i libucrt:atof.obj
 0001:00018c69       ??$parse_floating_point_possible_nan_is_ind@DV?$c_string_character_source@D@__crt_strtox@@@__crt_strtox@@YA_NAADAAV?$c_string_character_source@D@0@@Z 10019c69 f i libucrt:atof.obj
 0001:00018ca5       ??$parse_floating_point_possible_nan_is_snan@DV?$c_string_character_source@D@__crt_strtox@@@__crt_strtox@@YA_NAADAAV?$c_string_character_source@D@0@@Z 10019ca5 f i libucrt:atof.obj
 0001:00018ce1       ??R<lambda_32aa245da1b5b882fa96db788295c8b2>@@QBE_NXZ 10019ce1 f i libucrt:atof.obj
 0001:00018ce1       ??R<lambda_690cf26ff5d754c94c32cf642e9f01bc>@@QBE_NXZ 10019ce1 f i libucrt:atof.obj
 0001:00018ce1       ??R<lambda_e51f7abad2595a5950d3223319845217>@@QBE_NXZ 10019ce1 f i libucrt:atof.obj
 0001:00018d07       _atof                      10019d07 f   libucrt:atof.obj
 0001:00018d1a       ??$__acrt_convert_wcs_mbs_cp@D_WV<lambda_62f6974d9771e494a5ea317cc32e971c>@@U__crt_win32_buffer_internal_dynamic_resizing@@@@YAHQBDAAV?$__crt_win32_buffer@_WU__crt_win32_buffer_internal_dynamic_resizing@@@@ABV<lambda_62f6974d9771e494a5ea317cc32e971c>@@I@Z 10019d1a f i libucrt:access.obj
 0001:00018dcc       ??$__acrt_mbs_to_wcs_cp@U__crt_win32_buffer_internal_dynamic_resizing@@@@YAHQBDAAV?$__crt_win32_buffer@_WU__crt_win32_buffer_internal_dynamic_resizing@@@@I@Z 10019dcc f i libucrt:access.obj
 0001:00018de9       ?__acrt_get_utf8_acp_compatibility_codepage@@YAIXZ 10019de9 f i libucrt:access.obj
 0001:00018e28       ?_deallocate@?$__crt_win32_buffer@DU__crt_win32_buffer_internal_dynamic_resizing@@@@AAEXXZ 10019e28 f i libucrt:argv_wildcards.obj
 0001:00018e28       ?_deallocate@?$__crt_win32_buffer@_WU__crt_win32_buffer_internal_dynamic_resizing@@@@AAEXXZ 10019e28 f i libucrt:access.obj
 0001:00018e42       ?allocate@?$__crt_win32_buffer@_WU__crt_win32_buffer_internal_dynamic_resizing@@@@QAEHI@Z 10019e42 f i libucrt:access.obj
 0001:00018e81       ?allocate@__crt_win32_buffer_internal_dynamic_resizing@@SAHQAPAXIABV__crt_win32_buffer_empty_debug_info@@@Z 10019e81 f i libucrt:access.obj
 0001:00018ea0       __access                   10019ea0 f   libucrt:access.obj
 0001:00018eb8       __access_s                 10019eb8 f   libucrt:access.obj
 0001:00018f2a       ___acrt_initialize_new_handler 10019f2a f   libucrt:new_handler.obj
 0001:00018f39       __callnewh                 10019f39 f   libucrt:new_handler.obj
 0001:00018f66       __query_new_handler        10019f66 f   libucrt:new_handler.obj
 0001:00018fc2       __initterm                 10019fc2 f   libucrt:initterm.obj
 0001:00018fed       __initterm_e               10019fed f   libucrt:initterm.obj
 0001:0001901b       __seh_filter_dll           1001a01b f   libucrt:exception_filter.obj
 0001:0001903b       __seh_filter_exe           1001a03b f   libucrt:exception_filter.obj
 0001:00019468       ___acrt_initialize_thread_local_exit_callback 1001a468 f   libucrt:exit.obj
 0001:00019477       __cexit                    1001a477 f   libucrt:exit.obj
 0001:00019486       __exit                     1001a486 f   libucrt:exit.obj
 0001:0001949c       __is_c_termination_complete 1001a49c f   libucrt:exit.obj
 0001:00019754       ___acrt_allocate_buffer_for_argv 1001a754 f   libucrt:argv_parsing.obj
 0001:000197a3       __configure_narrow_argv    1001a7a3 f   libucrt:argv_parsing.obj
 0001:0001994f       ___dcrt_uninitialize_environments_nolock 1001a94f f   libucrt:environment_initialization.obj
 0001:000199a0       __initialize_narrow_environment 1001a9a0 f   libucrt:environment_initialization.obj
 0001:00019ada       __execute_onexit_table     1001aada f   libucrt:onexit.obj
 0001:00019b18       __initialize_onexit_table  1001ab18 f   libucrt:onexit.obj
 0001:00019b91       ___acrt_uninitialize_command_line 1001ab91 f   libucrt:argv_data.obj
 0001:00019c11       ??$__crt_fast_encode_pointer@PAX@@YAPAXQAX@Z 1001ac11 f i libucrt:initialization.obj
 0001:00019c5e       ___acrt_initialize         1001ac5e f   libucrt:initialization.obj
 0001:00019c70       ___acrt_thread_attach      1001ac70 f   libucrt:initialization.obj
 0001:00019c7b       ___acrt_thread_detach      1001ac7b f   libucrt:initialization.obj
 0001:00019c83       ___acrt_uninitialize       1001ac83 f   libucrt:initialization.obj
 0001:00019cb3       ___acrt_uninitialize_critical 1001acb3 f   libucrt:initialization.obj
 0001:00019cc5       _terminate                 1001acc5 f   libucrt:terminate.obj
 0001:00019d01       _abort                     1001ad01 f   libucrt:abort.obj
 0001:00019d45       _calloc                    1001ad45 f   libucrt:calloc.obj
 0001:00019d50       _strncmp                   1001ad50 f   libucrt:strncmp.obj
 0001:00019dc8       _wcsncmp                   1001adc8 f   libucrt:wcsncmp.obj
 0001:00019e02       ___acrt_errno_from_os_error 1001ae02 f   libucrt:errno.obj
 0001:00019e45       ___acrt_errno_map_os_error 1001ae45 f   libucrt:errno.obj
 0001:00019e68       ___acrt_errno_map_os_error_ptd 1001ae68 f   libucrt:errno.obj
 0001:00019e8c       ___doserrno                1001ae8c f   libucrt:errno.obj
 0001:00019e9f       __errno                    1001ae9f f   libucrt:errno.obj
 0001:00019eb2       __free_base                1001aeb2 f   libucrt:free_base.obj
 0001:00019eec       __malloc_base              1001aeec f   libucrt:malloc_base.obj
 0001:00019f3a       _strnlen                   1001af3a f   libucrt:strnlen.obj
 0001:0001a05c       _wcsnlen                   1001b05c f   libucrt:strnlen.obj
 0001:0001a20c       ___acrt_update_locale_info 1001b20c f   libucrt:locale_update.obj
 0001:0001a239       ___acrt_update_locale_info_explicit 1001b239 f   libucrt:locale_update.obj
 0001:0001a26a       ___acrt_update_multibyte_info 1001b26a f   libucrt:locale_update.obj
 0001:0001a297       ___acrt_update_multibyte_info_explicit 1001b297 f   libucrt:locale_update.obj
 0001:0001a2c8       ?__acrt_fp_classify@@YA?AW4__acrt_fp_class@@ABN@Z 1001b2c8 f i libucrt:cvt.obj
 0001:0001ac91       ___acrt_fp_format          1001bc91 f   libucrt:cvt.obj
 0001:0001ae12       __wctomb_internal          1001be12 f   libucrt:wctomb.obj
 0001:0001af7c       __mbtowc_internal          1001bf7c f   libucrt:mbtowc.obj
 0001:0001b0af       __mbtowc_l                 1001c0af f   libucrt:mbtowc.obj
 0001:0001b0e7       __fileno                   1001c0e7 f   libucrt:fileno.obj
 0001:0001b10e       ___acrt_initialize_stdio   1001c10e f   libucrt:_file.obj
 0001:0001b1d6       ___acrt_iob_func           1001c1d6 f   libucrt:_file.obj
 0001:0001b1e6       ___acrt_uninitialize_stdio 1001c1e6 f   libucrt:_file.obj
 0001:0001b232       __lock_file                1001c232 f   libucrt:_file.obj
 0001:0001b246       __unlock_file              1001c246 f   libucrt:_file.obj
 0001:0001b25a       __get_printf_count_output  1001c25a f   libucrt:printf_count_output.obj
 0001:0001b26f       __fputc_nolock_internal    1001c26f f   libucrt:fputc.obj
 0001:0001b29c       ___acrt_should_use_temporary_buffer 1001c29c f   libucrt:_sftbuf.obj
 0001:0001b2d7       ___acrt_stdio_begin_temporary_buffering_nolock 1001c2d7 f   libucrt:_sftbuf.obj
 0001:0001b383       ___acrt_stdio_end_temporary_buffering_nolock 1001c383 f   libucrt:_sftbuf.obj
 0001:0001b6ff       ___acrt_freeptd            1001c6ff f   libucrt:per_thread_data.obj
 0001:0001b72b       ___acrt_getptd             1001c72b f   libucrt:per_thread_data.obj
 0001:0001b7e6       ___acrt_getptd_head        1001c7e6 f   libucrt:per_thread_data.obj
 0001:0001b87c       ___acrt_getptd_noexit      1001c87c f   libucrt:per_thread_data.obj
 0001:0001b92d       ___acrt_getptd_noexit_explicit 1001c92d f   libucrt:per_thread_data.obj
 0001:0001b9d0       ___acrt_initialize_ptd     1001c9d0 f   libucrt:per_thread_data.obj
 0001:0001b9fc       ___acrt_uninitialize_ptd   1001c9fc f   libucrt:per_thread_data.obj
 0001:0001ba84       ___acrt_set_locale_changed 1001ca84 f   libucrt:wsetlocale.obj
 0001:0001ba8f       ___acrt_uninitialize_locale 1001ca8f f   libucrt:wsetlocale.obj
 0001:0001bc1c       ___acrt_initialize_lowio   1001cc1c f   libucrt:ioinit.obj
 0001:0001bc7c       ___acrt_uninitialize_lowio 1001cc7c f   libucrt:ioinit.obj
 0001:0001bd39       __close_internal           1001cd39 f   libucrt:close.obj
 0001:0001bddc       __close_nolock             1001cddc f   libucrt:close.obj
 0001:0001be0c       __close_nolock_internal    1001ce0c f   libucrt:close.obj
 0001:0001beac       ?__acrt_stdio_allocate_stream@@YA?AV__crt_stdio_stream@@XZ 1001ceac f   libucrt:stream.obj
 0001:0001bf15       ?__acrt_stdio_free_stream@@YAXV__crt_stdio_stream@@@Z 1001cf15 f   libucrt:stream.obj
 0001:0001c012       ___acrt_stdio_free_buffer_nolock 1001d012 f   libucrt:_freebuf.obj
 0001:0001c22f       ___acrt_stdio_flush_nolock 1001d22f f   libucrt:fflush.obj
 0001:0001c298       __fflush_nolock            1001d298 f   libucrt:fflush.obj
 0001:0001c2fd       __flushall                 1001d2fd f   libucrt:fflush.obj
 0001:0001c306       ??$__acrt_stdio_parse_mode@D@@YA?AU__acrt_stdio_stream_mode@@QBD@Z 1001d306 f i libucrt:openfile.obj
 0001:0001c5b3       ?__acrt_stdio_parse_mode_D@@YA_NAAU__acrt_stdio_stream_mode@@@Z 1001d5b3 f i libucrt:openfile.obj
 0001:0001c5ce       ?__acrt_stdio_parse_mode_T@@YA_NAAU__acrt_stdio_stream_mode@@@Z 1001d5ce f i libucrt:openfile.obj
 0001:0001c5ed       ?__acrt_stdio_parse_mode_b@@YA_NAAU__acrt_stdio_stream_mode@@@Z 1001d5ed f i libucrt:openfile.obj
 0001:0001c60d       ?__acrt_stdio_parse_mode_c@@YA_NAAU__acrt_stdio_stream_mode@@AA_N@Z 1001d60d f i libucrt:openfile.obj
 0001:0001c62f       ?__acrt_stdio_parse_mode_n@@YA_NAAU__acrt_stdio_stream_mode@@AA_N@Z 1001d62f f i libucrt:openfile.obj
 0001:0001c651       ?__acrt_stdio_parse_mode_plus@@YA_NAAU__acrt_stdio_stream_mode@@AA_N@Z 1001d651 f i libucrt:openfile.obj
 0001:0001c687       ?__acrt_stdio_parse_mode_t@@YA_NAAU__acrt_stdio_stream_mode@@@Z 1001d687 f i libucrt:openfile.obj
 0001:0001c6a7       ?__acrt_stdio_parse_mode_x@@YA_NAAU__acrt_stdio_stream_mode@@@Z 1001d6a7 f i libucrt:openfile.obj
 0001:0001c6c7       __openfile                 1001d6c7 f   libucrt:openfile.obj
 0001:0001cb98       __read                     1001db98 f   libucrt:read.obj
 0001:0001ccac       __read_nolock              1001dcac f   libucrt:read.obj
 0001:0001d1da       ___acrt_stdio_refill_and_read_narrow_nolock 1001e1da f   libucrt:_filbuf.obj
 0001:0001d57c       __lseek_internal           1001e57c f   libucrt:lseek.obj
 0001:0001d587       __lseeki64                 1001e587 f   libucrt:lseek.obj
 0001:0001d5c7       __lseeki64_internal        1001e5c7 f   libucrt:lseek.obj
 0001:0001d5e5       __lseeki64_nolock          1001e5e5 f   libucrt:lseek.obj
 0001:0001d625       __lseeki64_nolock_internal 1001e625 f   libucrt:lseek.obj
 0001:0001d643       ___pctype_func             1001e643 f   libucrt:ctype.obj
 0001:0001d667       __isctype_l                1001e667 f   libucrt:isctype.obj
 0001:0001d740       _isspace                   1001e740 f   libucrt:_ctype.obj
 0001:0001d7c4       __calloc_base              1001e7c4 f   libucrt:calloc_base.obj
 0001:0001d821       _strtoull                  1001e821 f   libucrt:strtox.obj
 0001:0001d86d       __fgetc_nolock             1001e86d f   libucrt:fgetc.obj
 0001:0001d8a9       __getc_nolock              1001e8a9 f   libucrt:fgetc.obj
 0001:0001d8b4       __ungetc_nolock            1001e8b4 f   libucrt:ungetc.obj
 0001:0001d9ad       _fegetround                1001e9ad f   libucrt:fegetround.obj
 0001:0001d9ba       ___acrt_MultiByteToWideChar 1001e9ba f   libucrt:multibytetowidechar.obj
 0001:0001dbd2       ___acrt_AppPolicyGetProcessTerminationMethodInternal@4 1001ebd2 f   libucrt:winapi_thunks.obj
 0001:0001dc12       ___acrt_AreFileApisANSI@0  1001ec12 f   libucrt:winapi_thunks.obj
 0001:0001dc31       ___acrt_FlsAlloc@4         1001ec31 f   libucrt:winapi_thunks.obj
 0001:0001dc70       ___acrt_FlsFree@4          1001ec70 f   libucrt:winapi_thunks.obj
 0001:0001dcaf       ___acrt_FlsGetValue@4      1001ecaf f   libucrt:winapi_thunks.obj
 0001:0001dcee       ___acrt_FlsSetValue@8      1001ecee f   libucrt:winapi_thunks.obj
 0001:0001dd30       ___acrt_InitializeCriticalSectionEx@12 1001ed30 f   libucrt:winapi_thunks.obj
 0001:0001dd7b       ___acrt_LCMapStringEx@36   1001ed7b f   libucrt:winapi_thunks.obj
 0001:0001ddd8       ___acrt_LocaleNameToLCID@8 1001edd8 f   libucrt:winapi_thunks.obj
 0001:0001de09       ___acrt_initialize_winapi_thunks 1001ee09 f   libucrt:winapi_thunks.obj
 0001:0001de1d       ___acrt_uninitialize_winapi_thunks 1001ee1d f   libucrt:winapi_thunks.obj
 0001:0001de53       __waccess_s                1001ee53 f   libucrt:waccess.obj
 0001:0001df11       ___acrt_initialize_locks   1001ef11 f   libucrt:locks.obj
 0001:0001df52       ___acrt_lock               1001ef52 f   libucrt:locks.obj
 0001:0001df69       ___acrt_uninitialize_locks 1001ef69 f   libucrt:locks.obj
 0001:0001df9a       ___acrt_unlock             1001ef9a f   libucrt:locks.obj
 0001:0001dfb1       ___acrt_get_process_end_policy 1001efb1 f   libucrt:win_policies.obj
 0001:0001dffa       ??$__acrt_convert_wcs_mbs_cp@_WDV<lambda_28bda7af82a03b66c1cb3803a755f95d>@@U__crt_win32_buffer_internal_dynamic_resizing@@@@YAHQB_WAAV?$__crt_win32_buffer@DU__crt_win32_buffer_internal_dynamic_resizing@@@@ABV<lambda_28bda7af82a03b66c1cb3803a755f95d>@@I@Z 1001effa f i libucrt:argv_wildcards.obj
 0001:0001e59c       ??R<lambda_0fec1a7b3f42a53036604e18c2d5e07e>@@QBEHIQB_WQADI@Z 1001f59c f i libucrt:getmodulefilenamea.obj
 0001:0001e59c       ??R<lambda_28bda7af82a03b66c1cb3803a755f95d>@@QBEHIQB_WQADI@Z 1001f59c f i libucrt:argv_wildcards.obj
 0001:0001e5c0       ?allocate@?$__crt_win32_buffer@DU__crt_win32_buffer_internal_dynamic_resizing@@@@QAEHI@Z 1001f5c0 f i libucrt:argv_wildcards.obj
 0001:0001e683       ___acrt_expand_narrow_argv_wildcards 1001f683 f   libucrt:argv_wildcards.obj
 0001:0001e68e       ??$__acrt_convert_wcs_mbs_cp@_WDV<lambda_0fec1a7b3f42a53036604e18c2d5e07e>@@U__crt_win32_buffer_no_resizing@@@@YAHQB_WAAV?$__crt_win32_buffer@DU__crt_win32_buffer_no_resizing@@@@ABV<lambda_0fec1a7b3f42a53036604e18c2d5e07e>@@I@Z 1001f68e f i libucrt:getmodulefilenamea.obj
 0001:0001e750       ?allocate@?$__crt_win32_buffer@DU__crt_win32_buffer_no_resizing@@@@QAEHI@Z 1001f750 f i libucrt:getmodulefilenamea.obj
 0001:0001e777       ?set_to_nullptr@?$__crt_win32_buffer@DU__crt_win32_buffer_no_resizing@@@@QAEXXZ 1001f777 f i libucrt:getmodulefilenamea.obj
 0001:0001e78b       ___acrt_GetModuleFileNameA 1001f78b f   libucrt:getmodulefilenamea.obj
 0001:0001edaf       ___acrt_initialize_multibyte 1001fdaf f   libucrt:mbctype.obj
 0001:0001edf7       ___acrt_update_thread_multibyte_data 1001fdf7 f   libucrt:mbctype.obj
 0001:0001ee0a       __setmbcp_nolock           1001fe0a f   libucrt:mbctype.obj
 0001:0001f062       __ismbblead                10020062 f   libucrt:ismbbyte.obj
 0001:0001f07a       ___acrt_initialize_command_line 1002007a f   libucrt:argv_data.obj
 0001:0001f093       ___acrt_WideCharToMultiByte 10020093 f   libucrt:widechartomultibyte.obj
 0001:0001f181       ___dcrt_get_narrow_environment_from_os 10020181 f   libucrt:get_environment_from_os.obj
 0001:0001f221       __recalloc_base            10020221 f   libucrt:recalloc.obj
 0001:0001f28e       ___acrt_initialize_heap    1002028e f   libucrt:heap_handle.obj
 0001:0001f29f       ___acrt_uninitialize_heap  1002029f f   libucrt:heap_handle.obj
 0001:0001f2a9       ___acrt_execute_initializers 100202a9 f   libucrt:shared_initialization.obj
 0001:0001f311       ___acrt_execute_uninitializers 10020311 f   libucrt:shared_initialization.obj
 0001:0001f410       ___acrt_get_sigabrt_handler 10020410 f   libucrt:signal.obj
 0001:0001f437       ___acrt_initialize_signal_handlers 10020437 f   libucrt:signal.obj
 0001:0001f455       _raise                     10020455 f   libucrt:signal.obj
 0001:0001f648       ___acrt_has_user_matherr   10020648 f   libucrt:matherr.obj
 0001:0001f660       ___acrt_initialize_user_matherr 10020660 f   libucrt:matherr.obj
 0001:0001f66f       ___acrt_invoke_user_matherr 1002066f f   libucrt:matherr.obj
 0001:0001f6a1       __query_new_mode           100206a1 f   libucrt:new_mode.obj
 0001:0001f6a8       ___acrt_add_locale_ref     100206a8 f   libucrt:locale_refcounting.obj
 0001:0001f725       ___acrt_free_locale        10020725 f   libucrt:locale_refcounting.obj
 0001:0001f86d       ___acrt_locale_add_lc_time_reference 1002086d f   libucrt:locale_refcounting.obj
 0001:0001f896       ___acrt_locale_free_lc_time_if_unreferenced 10020896 f   libucrt:locale_refcounting.obj
 0001:0001f8c7       ___acrt_locale_release_lc_time_reference 100208c7 f   libucrt:locale_refcounting.obj
 0001:0001f8f0       ___acrt_release_locale_ref 100208f0 f   libucrt:locale_refcounting.obj
 0001:0001f971       ___acrt_update_thread_locale_data 10020971 f   libucrt:locale_refcounting.obj
 0001:0001f9f2       __updatetlocinfoEx_nolock  100209f2 f   libucrt:locale_refcounting.obj
 0001:0001fac0       ___acrt_fp_strflt_to_string 10020ac0 f   libucrt:_fptostr.obj
 0001:0001fbba       ___acrt_fltout             10020bba f   libucrt:cfout.obj
 0001:000210f3       ?__c32rtomb_utf8@__crt_mbstring@@YAIPAD_UPAU_Mbstatet@@AAV__crt_cached_ptd_host@@@Z 100220f3 f   libucrt:c32rtomb.obj
 0001:000211cf       ?__mbrtowc_utf8@__crt_mbstring@@YAIPA_WPBDIPAU_Mbstatet@@AAV__crt_cached_ptd_host@@@Z 100221cf f   libucrt:mbrtowc.obj
 0001:00021212       ?__mbsrtowcs_utf8@__crt_mbstring@@YAIPA_WPAPBDIPAU_Mbstatet@@AAV__crt_cached_ptd_host@@@Z 10022212 f   libucrt:mbrtowc.obj
 0001:0002131a       __fcloseall                1002231a f   libucrt:closeall.obj
 0001:00021612       ___acrt_stdio_flush_and_write_narrow_nolock 10022612 f   libucrt:_flsbuf.obj
 0001:0002161d       __isatty                   1002261d f   libucrt:isatty.obj
 0001:00021673       ___acrt_locale_free_monetary 10022673 f   libucrt:initmon.obj
 0001:00021771       ___acrt_locale_free_numeric 10022771 f   libucrt:initnum.obj
 0001:000217ff       ___acrt_locale_free_time   100227ff f   libucrt:inittime.obj
 0001:000218e3       ___acrt_GetStringTypeA     100228e3 f   libucrt:getstringtypea.obj
 0001:000219ec       __freea_crt                100229ec f i libucrt:getstringtypea.obj
 0001:00021a0c       ___acrt_lowio_create_handle_array 10022a0c f   libucrt:osfinfo.obj
 0001:00021a87       ___acrt_lowio_destroy_handle_array 10022a87 f   libucrt:osfinfo.obj
 0001:00021abc       ___acrt_lowio_ensure_fh_exists 10022abc f   libucrt:osfinfo.obj
 0001:00021b5a       ___acrt_lowio_lock_fh      10022b5a f   libucrt:osfinfo.obj
 0001:00021b7d       ___acrt_lowio_set_os_handle 10022b7d f   libucrt:osfinfo.obj
 0001:00021c0f       ___acrt_lowio_unlock_fh    10022c0f f   libucrt:osfinfo.obj
 0001:00021c32       __alloc_osfhnd             10022c32 f   libucrt:osfinfo.obj
 0001:00021d45       __free_osfhnd              10022d45 f   libucrt:osfinfo.obj
 0001:00021dd6       __get_osfhandle            10022dd6 f   libucrt:osfinfo.obj
 0001:00021ee2       __commit                   10022ee2 f   libucrt:commit.obj
 0001:0002270d       __write                    1002370d f   libucrt:write.obj
 0001:00022744       __write_internal           10023744 f   libucrt:write.obj
 0001:0002284c       __write_nolock             1002384c f   libucrt:write.obj
 0001:00022a4c       ___ascii_wcsnicmp          10023a4c f   libucrt:wcsnicmp.obj
 0001:00022a9b       __strnicmp                 10023a9b f   libucrt:strnicmp.obj
 0001:00022b08       __strnicmp_l               10023b08 f   libucrt:strnicmp.obj
 0001:0002319b       __sopen_nolock             1002419b f   libucrt:open.obj
 0001:00023209       __sopen_s                  10024209 f   libucrt:open.obj
 0001:00023229       __wsopen_nolock            10024229 f   libucrt:open.obj
 0001:00023553       ___acrt_stdio_allocate_buffer_nolock 10024553 f   libucrt:_getbuf.obj
 0001:00023878       ___acrt_fenv_get_common_round_control 10024878 f   libucrt:_fenvutils.obj
 0001:0002389a       ___acrt_fenv_get_control   1002489a f   libucrt:_fenvutils.obj
 0001:0002391a       ___acrt_fenv_get_status    1002491a f   libucrt:_fenvutils.obj
 0001:000239c4       ___acrt_fenv_set_control   100249c4 f   libucrt:_fenvutils.obj
 0001:00023a3f       ___acrt_fenv_set_status    10024a3f f   libucrt:_fenvutils.obj
 0001:00023b89       ___acrt_DownlevelLocaleNameToLCID 10024b89 f   libucrt:lcidtoname_downlevel.obj
 0001:00023bc0       _qsort                     10024bc0 f   libucrt:qsort.obj
 0001:00024165       _strncpy_s                 10025165 f   libucrt:strncpy_s.obj
 0001:00024170       _strpbrk                   10025170 f   libucrt:strpbrk.obj
 0001:000241b0       __mbsdec                   100251b0 f   libucrt:mbsdec.obj
 0001:000241c7       __mbsdec_l                 100251c7 f   libucrt:mbsdec.obj
 0001:00024442       ___acrt_LCMapStringA       10025442 f   libucrt:lcmapstringa.obj
 0001:0002449a       __msize_base               1002549a f   libucrt:msize.obj
 0001:000244cd       __realloc_base             100254cd f   libucrt:realloc_base.obj
 0001:00024536       __controlfp_s              10025536 f   libucrt:contrlfp.obj
 0001:00024595       _fegetenv                  10025595 f   libucrt:fegetenv.obj
 0001:000245b2       _fesetenv                  100255b2 f   libucrt:fesetenv.obj
 0001:000245fd       _feholdexcept              100255fd f   libucrt:feholdexcept.obj
 0001:00024650       __CIlog10                  10025650 f   libucrt:log10_impl.obj
 0001:0002468b       __CIlog10_default          1002568b f   libucrt:log10_impl.obj
 0001:0002469f       __log10_default            1002569f     libucrt:log10_impl.obj
 0001:00024760       _ceil                      10025760 f   libucrt:ceil_pentium4.obj
 0001:000247a0       __ceil_pentium4            100257a0 f   libucrt:ceil_pentium4.obj
 0001:0002487d       ?reset_and_return@__crt_mbstring@@YAIIPAU_Mbstatet@@@Z 1002587d f   libucrt:common_utf8.obj
 0001:00024891       ?return_illegal_sequence@__crt_mbstring@@YAIPAU_Mbstatet@@AAV__crt_cached_ptd_host@@@Z 10025891 f   libucrt:common_utf8.obj
 0001:000248b3       ?__mbrtoc32_utf8@__crt_mbstring@@YAIPA_UPBDIPAU_Mbstatet@@AAV__crt_cached_ptd_host@@@Z 100258b3 f   libucrt:mbrtoc32.obj
 0001:00024a71       __query_app_type           10025a71 f   libucrt:report_runtime_error.obj
 0001:00024a77       __putwch_nolock            10025a77 f   libucrt:putwch.obj
 0001:00024ab0       ___ascii_strnicmp          10025ab0 f   libucrt:_strnicm.obj
 0001:00024b11       __get_fmode                10025b11 f   libucrt:setmode.obj
 0001:00024b3e       __setmode_nolock           10025b3e f   libucrt:setmode.obj
 0001:00024c0d       ??0__crt_seek_guard@@QAE@H_J@Z 10025c0d f i libucrt:chsize.obj
 0001:00024c5a       __chsize_nolock            10025c5a f   libucrt:chsize.obj
 0001:00024c91       __chsize_nolock_internal   10025c91 f   libucrt:chsize.obj
 0001:00024e34       ___strncnt                 10025e34 f   libucrt:strncnt.obj
 0001:00024ef7       __clearfp                  10025ef7 f   libucrt:ieee87.obj
 0001:00024fd5       __control87                10025fd5 f   libucrt:ieee87.obj
 0001:00025374       ___acrt_initialize_sse2    10026374 f   libucrt:mathfcns.obj
 0001:00025390       __CIlog10_pentium4         10026390 f   libucrt:log10_pentium4.obj
 0001:000253a8       __log10_pentium4           100263a8     libucrt:log10_pentium4.obj
 0001:00025640       __fFEXP                    10026640 f   libucrt:87tran.obj
 0001:00025697       __rtinfpopse               10026697     libucrt:87tran.obj
 0001:00025699       __rtinfnpopse              10026699     libucrt:87tran.obj
 0001:000256a9       __fFLN                     100266a9     libucrt:87tran.obj
 0001:0002575e       __rtinfpop                 1002675e     libucrt:87tran.obj
 0001:00025760       __rtinfnpop                10026760     libucrt:87tran.obj
 0001:00025770       __rtforexpinf              10026770 f   libucrt:87tran.obj
 0001:0002577d       __ffexpm1                  1002677d     libucrt:87tran.obj
 0001:00025830       __trandisp1                10026830 f   libucrt:87disp.obj
 0001:000258a5       __trandisp2                100268a5 f   libucrt:87disp.obj
 0001:0002593f       __rttospopde               1002693f     libucrt:87disp.obj
 0001:00025944       __rttospop                 10026944     libucrt:87disp.obj
 0001:00025950       __rtnospop                 10026950 f   libucrt:87disp.obj
 0001:00025960       __rttosnpop                10026960 f   libucrt:87disp.obj
 0001:00025961       __rtnospopde               10026961     libucrt:87disp.obj
 0001:00025968       __rtzeropop                10026968     libucrt:87disp.obj
 0001:0002596a       __rtzeronpop               1002696a     libucrt:87disp.obj
 0001:00025970       __rtzerospop               10026970 f   libucrt:87disp.obj
 0001:0002597d       __rtonepop                 1002697d     libucrt:87disp.obj
 0001:00025980       __rtonenpop                10026980 f   libucrt:87disp.obj
 0001:00025990       __tosnan1                  10026990 f   libucrt:87disp.obj
 0001:000259c0       __nosnan2                  100269c0 f   libucrt:87disp.obj
 0001:000259d0       __tosnan2                  100269d0 f   libucrt:87disp.obj
 0001:00025a00       __nan2                     10026a00 f   libucrt:87disp.obj
 0001:00025a40       __rtindfpop                10026a40 f   libucrt:87disp.obj
 0001:00025a42       __rtindfnpop               10026a42     libucrt:87disp.obj
 0001:00025a53       __rttosnpopde              10026a53     libucrt:87disp.obj
 0001:00025a60       __rtatan2inf               10026a60 f   libucrt:87disp.obj
 0001:00025a7d       __rtchsifneg               10026a7d     libucrt:87disp.obj
 0001:00025a90       __twoToTOS                 10026a90 f   libucrt:common.obj
 0001:00025aa5       __load_CW                  10026aa5 f   libucrt:common.obj
 0001:00025abc       __convertTOStoQNaN         10026abc f   libucrt:common.obj
 0001:00025ad5       __fload_withFB             10026ad5 f   libucrt:common.obj
 0001:00025b18       __checkTOS_withFB          10026b18 f   libucrt:common.obj
 0001:00025b2e       __fast_exit                10026b2e f   libucrt:common.obj
 0001:00025b3b       __math_exit                10026b3b f   libucrt:common.obj
 0001:00025b65       __check_overflow_exit      10026b65 f   libucrt:common.obj
 0001:00025b79       __check_range_exit         10026b79 f   libucrt:common.obj
 0001:00025c20       __startTwoArgErrorHandling 10026c20 f   libucrt:genexcep.obj
 0001:00025c37       __startOneArgErrorHandling 10026c37 f   libucrt:genexcep.obj
 0001:00025c73       ___libm_error_support      10026c73 f   libucrt:libm_error.obj
 0001:00025e67       __ceil_default             10026e67 f   libucrt:ceil.obj
 0001:00025f3b       ___dcrt_lowio_ensure_console_output_initialized 10026f3b f   libucrt:initcon.obj
 0001:00025f5a       ___dcrt_terminate_console_output 10026f5a f   libucrt:initcon.obj
 0001:00025f71       ___dcrt_write_console      10026f71 f   libucrt:initcon.obj
 0001:00025fc6       ___acrt_initialize_fmode   10026fc6 f   libucrt:txtmode.obj
 0001:00025fdc       ___set_fpsr_sse2           10026fdc f   libucrt:fpctrl.obj
 0001:0002605c       __clrfp                    1002705c f   libucrt:fpctrl.obj
 0001:0002606d       __ctrlfp                   1002706d f   libucrt:fpctrl.obj
 0001:00026097       __set_statfp               10027097 f   libucrt:fpctrl.obj
 0001:000260f0       __statfp                   100270f0 f   libucrt:fpctrl.obj
 0001:00026100       __d_inttype                10027100 f   libucrt:powhlp.obj
 0001:00026168       __powhlp                   10027168 f   libucrt:powhlp.obj
 0001:00026293       __87except                 10027293 f   libucrt:87except.obj
 0001:0002639d       __frnd                     1002739d f   libucrt:frnd.obj
 0001:000263b1       __errcode                  100273b1 f   libucrt:fpexcept.obj
 0001:000263e5       __except1                  100273e5 f   libucrt:fpexcept.obj
 0001:000264b3       __handle_exc               100274b3 f   libucrt:fpexcept.obj
 0001:0002672c       __raise_exc                1002772c f   libucrt:fpexcept.obj
 0001:0002674f       __raise_exc_ex             1002774f f   libucrt:fpexcept.obj
 0001:00026a45       __set_errno_from_matherr   10027a45 f   libucrt:fpexcept.obj
 0001:00026a74       __umatherr                 10027a74 f   libucrt:fpexcept.obj
 0001:00026b14       __decomp                   10027b14 f   libucrt:util.obj
 0001:00026be6       __set_exp                  10027be6 f   libucrt:util.obj
 0001:00026c13       __sptype                   10027c13 f   libucrt:util.obj
 0001:00026c71       __fpclass                  10027c71 f   libucrt:ieeemisc.obj
 0001:00026d15       @_guard_check_icall@4      10027d15 f i LIBCMT:checkcfg.obj
 0001:00026d20       __FindPESection            10027d20 f   LIBCMT:pesect.obj
 0001:00026d70       __IsNonwritableInCurrentImage 10027d70 f   LIBCMT:pesect.obj
 0001:00026e30       __ValidateImageBase        10027e30 f   LIBCMT:pesect.obj
 0001:00026e61       __EH_epilog3               10027e61 f   LIBCMT:ehprolg3.obj
 0001:00026e75       __EH_prolog3               10027e75 f   LIBCMT:ehprolg3.obj
 0001:00026ea8       __EH_prolog3_catch         10027ea8 f   LIBCMT:ehprolg3.obj
 0001:00026ee0       __aulldvrm                 10027ee0 f   LIBCMT:ulldvrm.obj
 0001:00026f80       __alldiv                   10027f80 f   LIBCMT:lldiv.obj
 0001:00027030       __alloca_probe             10028030 f   LIBCMT:chkstk.obj
 0001:00027030       __chkstk                   10028030 f   LIBCMT:chkstk.obj
 0001:00027060       __allmul                   10028060 f   LIBCMT:llmul.obj
 0001:000270a0       __aulldiv                  100280a0 f   LIBCMT:ulldiv.obj
 0001:00027110       __allshl                   10028110 f   LIBCMT:llshl.obj
 0001:00027130       __aullshr                  10028130 f   LIBCMT:ullshr.obj
 0001:00027150       __alldvrm                  10028150 f   LIBCMT:lldvrm.obj
 0001:00027230       __ftol2_sse                10028230 f   LIBCMT:ftol2.obj
 0001:00027240       __ftoi2                    10028240 f   LIBCMT:ftol2.obj
 0001:000272c0       __alloca_probe_16          100282c0 f   LIBCMT:alloca16.obj
 0001:000272d6       __alloca_probe_8           100282d6     LIBCMT:alloca16.obj
 0001:000272f0       _strrchr                   100282f0 f   libvcruntime:strrchr.obj
 0001:00027427       __filter_x86_sse2_floating_point_exception 10028427 f   LIBCMT:x86_exception_filter.obj
 0001:00027427       __filter_x86_sse2_floating_point_exception_default 10028427 f   LIBCMT:x86_exception_filter.obj
 0002:00000000       __imp__GetModuleHandleW@4  10029000     kernel32:KERNEL32.dll
 0002:00000004       __imp__GetProcAddress@8    10029004     kernel32:KERNEL32.dll
 0002:00000008       __imp__LoadLibraryA@4      10029008     kernel32:KERNEL32.dll
 0002:0000000c       __imp__FindClose@4         1002900c     kernel32:KERNEL32.dll
 0002:00000010       __imp__FindFirstFileA@8    10029010     kernel32:KERNEL32.dll
 0002:00000014       __imp__FindNextFileA@8     10029014     kernel32:KERNEL32.dll
 0002:00000018       __imp__Sleep@4             10029018     kernel32:KERNEL32.dll
 0002:0000001c       __imp__DecodePointer@4     1002901c     kernel32:KERNEL32.dll
 0002:00000020       __imp__SetEndOfFile@4      10029020     kernel32:KERNEL32.dll
 0002:00000024       __imp__UnhandledExceptionFilter@4 10029024     kernel32:KERNEL32.dll
 0002:00000028       __imp__SetUnhandledExceptionFilter@4 10029028     kernel32:KERNEL32.dll
 0002:0000002c       __imp__GetCurrentProcess@0 1002902c     kernel32:KERNEL32.dll
 0002:00000030       __imp__TerminateProcess@8  10029030     kernel32:KERNEL32.dll
 0002:00000034       __imp__IsProcessorFeaturePresent@4 10029034     kernel32:KERNEL32.dll
 0002:00000038       __imp__QueryPerformanceCounter@4 10029038     kernel32:KERNEL32.dll
 0002:0000003c       __imp__GetCurrentProcessId@0 1002903c     kernel32:KERNEL32.dll
 0002:00000040       __imp__GetCurrentThreadId@0 10029040     kernel32:KERNEL32.dll
 0002:00000044       __imp__GetSystemTimeAsFileTime@4 10029044     kernel32:KERNEL32.dll
 0002:00000048       __imp__InitializeSListHead@4 10029048     kernel32:KERNEL32.dll
 0002:0000004c       __imp__IsDebuggerPresent@0 1002904c     kernel32:KERNEL32.dll
 0002:00000050       __imp__GetStartupInfoW@4   10029050     kernel32:KERNEL32.dll
 0002:00000054       __imp__RaiseException@16   10029054     kernel32:KERNEL32.dll
 0002:00000058       __imp__RtlUnwind@16        10029058     kernel32:KERNEL32.dll
 0002:0000005c       __imp__InterlockedFlushSList@4 1002905c     kernel32:KERNEL32.dll
 0002:00000060       __imp__GetLastError@0      10029060     kernel32:KERNEL32.dll
 0002:00000064       __imp__SetLastError@4      10029064     kernel32:KERNEL32.dll
 0002:00000068       __imp__EncodePointer@4     10029068     kernel32:KERNEL32.dll
 0002:0000006c       __imp__EnterCriticalSection@4 1002906c     kernel32:KERNEL32.dll
 0002:00000070       __imp__LeaveCriticalSection@4 10029070     kernel32:KERNEL32.dll
 0002:00000074       __imp__DeleteCriticalSection@4 10029074     kernel32:KERNEL32.dll
 0002:00000078       __imp__InitializeCriticalSectionAndSpinCount@8 10029078     kernel32:KERNEL32.dll
 0002:0000007c       __imp__TlsAlloc@0          1002907c     kernel32:KERNEL32.dll
 0002:00000080       __imp__TlsGetValue@4       10029080     kernel32:KERNEL32.dll
 0002:00000084       __imp__TlsSetValue@8       10029084     kernel32:KERNEL32.dll
 0002:00000088       __imp__TlsFree@4           10029088     kernel32:KERNEL32.dll
 0002:0000008c       __imp__FreeLibrary@4       1002908c     kernel32:KERNEL32.dll
 0002:00000090       __imp__LoadLibraryExW@12   10029090     kernel32:KERNEL32.dll
 0002:00000094       __imp__ReadFile@20         10029094     kernel32:KERNEL32.dll
 0002:00000098       __imp__ExitProcess@4       10029098     kernel32:KERNEL32.dll
 0002:0000009c       __imp__GetModuleHandleExW@12 1002909c     kernel32:KERNEL32.dll
 0002:000000a0       __imp__GetModuleFileNameW@12 100290a0     kernel32:KERNEL32.dll
 0002:000000a4       __imp__HeapFree@12         100290a4     kernel32:KERNEL32.dll
 0002:000000a8       __imp__HeapAlloc@12        100290a8     kernel32:KERNEL32.dll
 0002:000000ac       __imp__GetStdHandle@4      100290ac     kernel32:KERNEL32.dll
 0002:000000b0       __imp__GetFileType@4       100290b0     kernel32:KERNEL32.dll
 0002:000000b4       __imp__CloseHandle@4       100290b4     kernel32:KERNEL32.dll
 0002:000000b8       __imp__GetConsoleMode@8    100290b8     kernel32:KERNEL32.dll
 0002:000000bc       __imp__ReadConsoleW@20     100290bc     kernel32:KERNEL32.dll
 0002:000000c0       __imp__SetFilePointerEx@20 100290c0     kernel32:KERNEL32.dll
 0002:000000c4       __imp__MultiByteToWideChar@24 100290c4     kernel32:KERNEL32.dll
 0002:000000c8       __imp__LCMapStringW@24     100290c8     kernel32:KERNEL32.dll
 0002:000000cc       __imp__GetFileAttributesExW@12 100290cc     kernel32:KERNEL32.dll
 0002:000000d0       __imp__FindFirstFileExW@24 100290d0     kernel32:KERNEL32.dll
 0002:000000d4       __imp__FindNextFileW@8     100290d4     kernel32:KERNEL32.dll
 0002:000000d8       __imp__IsValidCodePage@4   100290d8     kernel32:KERNEL32.dll
 0002:000000dc       __imp__GetACP@0            100290dc     kernel32:KERNEL32.dll
 0002:000000e0       __imp__GetOEMCP@0          100290e0     kernel32:KERNEL32.dll
 0002:000000e4       __imp__GetCPInfo@8         100290e4     kernel32:KERNEL32.dll
 0002:000000e8       __imp__GetCommandLineA@0   100290e8     kernel32:KERNEL32.dll
 0002:000000ec       __imp__GetCommandLineW@0   100290ec     kernel32:KERNEL32.dll
 0002:000000f0       __imp__WideCharToMultiByte@32 100290f0     kernel32:KERNEL32.dll
 0002:000000f4       __imp__GetEnvironmentStringsW@0 100290f4     kernel32:KERNEL32.dll
 0002:000000f8       __imp__FreeEnvironmentStringsW@4 100290f8     kernel32:KERNEL32.dll
 0002:000000fc       __imp__GetProcessHeap@0    100290fc     kernel32:KERNEL32.dll
 0002:00000100       __imp__GetFileSizeEx@8     10029100     kernel32:KERNEL32.dll
 0002:00000104       __imp__GetStringTypeW@16   10029104     kernel32:KERNEL32.dll
 0002:00000108       __imp__SetStdHandle@8      10029108     kernel32:KERNEL32.dll
 0002:0000010c       __imp__FlushFileBuffers@4  1002910c     kernel32:KERNEL32.dll
 0002:00000110       __imp__WriteFile@20        10029110     kernel32:KERNEL32.dll
 0002:00000114       __imp__GetConsoleOutputCP@0 10029114     kernel32:KERNEL32.dll
 0002:00000118       __imp__CreateFileW@28      10029118     kernel32:KERNEL32.dll
 0002:0000011c       __imp__HeapSize@12         1002911c     kernel32:KERNEL32.dll
 0002:00000120       __imp__HeapReAlloc@16      10029120     kernel32:KERNEL32.dll
 0002:00000124       __imp__WriteConsoleW@20    10029124     kernel32:KERNEL32.dll
 0002:00000128       \177KERNEL32_NULL_THUNK_DATA 10029128     kernel32:KERNEL32.dll
 0002:0000012c       __imp__MessageBoxA@16      1002912c     user32:USER32.dll
 0002:00000130       \177USER32_NULL_THUNK_DATA 10029130     user32:USER32.dll
 0002:00000134       ___guard_check_icall_fptr  10029134     LIBCMT:guard_support.obj
 0002:00000138       ___castguard_check_failure_os_handled_fptr 10029138     LIBCMT:guard_support.obj
 0002:0000013c       ___xc_a                    1002913c     LIBCMT:initializers.obj
 0002:00000144       ___xc_z                    10029144     LIBCMT:initializers.obj
 0002:00000148       ___xi_a                    10029148     LIBCMT:initializers.obj
 0002:0000014c       ___acrt_stdio_initializer  1002914c     libucrt:stdio_initializer.obj
 0002:00000150       ___acrt_multibyte_initializer 10029150     libucrt:multibyte_initializer.obj
 0002:00000154       ___acrt_tran_sse2_initializer 10029154     libucrt:sse2_initializer.obj
 0002:00000158       ___acrt_fmode_initializer  10029158     libucrt:fmode_initializer.obj
 0002:0000015c       ___xi_z                    1002915c     LIBCMT:initializers.obj
 0002:00000160       ___xp_a                    10029160     LIBCMT:initializers.obj
 0002:00000164       ___acrt_locale_terminator  10029164     libucrt:locale_initializer.obj
 0002:00000168       ___dcrt_console_output_terminator 10029168     libucrt:console_output_initializer.obj
 0002:0000016c       ___acrt_stdio_terminator   1002916c     libucrt:stdio_initializer.obj
 0002:00000170       ___xp_z                    10029170     LIBCMT:initializers.obj
 0002:00000174       ___xt_a                    10029174     LIBCMT:initializers.obj
 0002:00000178       ___xt_z                    10029178     LIBCMT:initializers.obj
 0002:00000f2c       ??_7exception@std@@6B@     10029f2c     dllmain.obj
 0002:00000f34       ??_C@_0BC@EOODALEL@Unknown?5exception@ 10029f34     dllmain.obj
 0002:00000f48       ??_C@_0BA@FDLNIKIG@patcher_x86?4dll@ 10029f48     dllmain.obj
 0002:00000f58       ??_C@_0BB@CKHJKIEB@_GetPatcherX86?$EA0@ 10029f58     dllmain.obj
 0002:000021bc       __real@00000000            1002b1bc     tables.obj
 0002:000021c0       __real@3e4ccccd            1002b1c0     tables.obj
 0002:000021c4       __real@3f800000            1002b1c4     tables.obj
 0002:000021c8       __real@3f847ae147ae147b    1002b1c8     tables.obj
 0002:000021d0       __real@3ff0000000000000    1002b1d0     tables.obj
 0002:000021d8       __real@3ff028f5c28f5c29    1002b1d8     tables.obj
 0002:000021e4       ??_7type_info@@6B@         1002b1e4     LIBCMT:std_type_info_static.obj
 0002:000021f0       __pDefaultRawDllMain       1002b1f0     LIBCMT:dll_dllmain.obj
 0002:000021f0       __pRawDllMain              1002b1f0     LIBCMT:dll_dllmain.obj
 0002:000021f4       __pDestructExceptionObject 1002b1f4     libvcruntime:ehhelpers.obj
 0002:000021fc       ??_7bad_exception@std@@6B@ 1002b1fc     libvcruntime:frame.obj
 0002:00002204       ??_C@_0O@DPKOEFFH@bad?5exception@ 1002b204     libvcruntime:frame.obj
 0002:000025a0       ??_C@_08EHJDFFNH@__based?$CI@ 1002b5a0     libvcruntime:undname.obj
 0002:000025ac       ??_C@_07KOLFKCDI@__cdecl@  1002b5ac     libvcruntime:undname.obj
 0002:000025b4       ??_C@_08GHMPAG@__pascal@   1002b5b4     libvcruntime:undname.obj
 0002:000025c0       ??_C@_09IFJBGAPI@__stdcall@ 1002b5c0     libvcruntime:undname.obj
 0002:000025cc       ??_C@_0L@NPHFGOKO@__thiscall@ 1002b5cc     libvcruntime:undname.obj
 0002:000025d8       ??_C@_0L@JMKHOMEK@__fastcall@ 1002b5d8     libvcruntime:undname.obj
 0002:000025e4       ??_C@_0N@BCKKPABJ@__vectorcall@ 1002b5e4     libvcruntime:undname.obj
 0002:000025f4       ??_C@_09HIJEGCPM@__clrcall@ 1002b5f4     libvcruntime:undname.obj
 0002:00002600       ??_C@_06GHPCKEAG@__eabi@   1002b600     libvcruntime:undname.obj
 0002:00002608       ??_C@_09IOPIDJLG@__swift_1@ 1002b608     libvcruntime:undname.obj
 0002:00002614       ??_C@_09KFNFGKHF@__swift_2@ 1002b614     libvcruntime:undname.obj
 0002:00002620       ??_C@_09LMMOFLDE@__swift_3@ 1002b620     libvcruntime:undname.obj
 0002:0000262c       ??_C@_07JOMMBBKO@__ptr64@  1002b62c     libvcruntime:undname.obj
 0002:00002634       ??_C@_0L@PILCLIHE@__restrict@ 1002b634     libvcruntime:undname.obj
 0002:00002640       ??_C@_0M@GFIIJFMG@__unaligned@ 1002b640     libvcruntime:undname.obj
 0002:0000264c       ??_C@_09DHDLOLLB@restrict?$CI@ 1002b64c     libvcruntime:undname.obj
 0002:00002656       ??_C@_00CNPNBAHC@@         1002b656     libvcruntime:undname.obj
 0002:00002658       ??_C@_04NIHEBCM@?5new@     1002b658     libvcruntime:undname.obj
 0002:00002660       ??_C@_07FPCDHGMM@?5delete@ 1002b660     libvcruntime:undname.obj
 0002:00002668       ??_C@_01NEMOKFLO@?$DN@     1002b668     libvcruntime:undname.obj
 0002:0000266c       ??_C@_02GPIOPFAK@?$DO?$DO@ 1002b66c     libvcruntime:undname.obj
 0002:00002670       ??_C@_02FODMEDOG@?$DM?$DM@ 1002b670     libvcruntime:undname.obj
 0002:00002674       ??_C@_01DCLJPIOD@?$CB@     1002b674     libvcruntime:undname.obj
 0002:00002678       ??_C@_02EGOFBIJA@?$DN?$DN@ 1002b678     libvcruntime:undname.obj
 0002:0000267c       ??_C@_02FDNJECIE@?$CB?$DN@ 1002b67c     libvcruntime:undname.obj
 0002:00002680       ??_C@_02GPECMEKF@?$FL?$FN@ 1002b680     libvcruntime:undname.obj
 0002:00002684       ??_C@_08LHJFAFGD@operator@ 1002b684     libvcruntime:undname.obj
 0002:00002690       ??_C@_02HBOOOICD@?9?$DO@   1002b690     libvcruntime:undname.obj
 0002:00002694       ??_C@_01NBENCBCI@?$CK@     1002b694     libvcruntime:undname.obj
 0002:00002698       ??_C@_02ECNGHCIF@?$CL?$CL@ 1002b698     libvcruntime:undname.obj
 0002:0000269c       ??_C@_02BAABKJLB@?9?9@     1002b69c     libvcruntime:undname.obj
 0002:000026a0       ??_C@_01JOAMLHOP@?9@       1002b6a0     libvcruntime:undname.obj
 0002:000026a4       ??_C@_01MIFGBAGJ@?$CL@     1002b6a4     libvcruntime:undname.obj
 0002:000026a8       ??_C@_01HNPIGOCE@?$CG@     1002b6a8     libvcruntime:undname.obj
 0002:000026ac       ??_C@_03MNHNFDLC@?9?$DO?$CK@ 1002b6ac     libvcruntime:undname.obj
 0002:000026b0       ??_C@_01KMDKNFGN@?1@       1002b6b0     libvcruntime:undname.obj
 0002:000026b4       ??_C@_01FGNFDNOH@?$CF@     1002b6b4     libvcruntime:undname.obj
 0002:000026b8       ??_C@_01MNNFJEPP@?$DM@     1002b6b8     libvcruntime:undname.obj
 0002:000026bc       ??_C@_02EHCHHCKH@?$DM?$DN@ 1002b6bc     libvcruntime:undname.obj
 0002:000026c0       ??_C@_01PPODPGHN@?$DO@     1002b6c0     libvcruntime:undname.obj
 0002:000026c4       ??_C@_02EEKDKGMJ@?$DO?$DN@ 1002b6c4     libvcruntime:undname.obj
 0002:000026c8       ??_C@_01IHBHIGKO@?0@       1002b6c8     libvcruntime:undname.obj
 0002:000026cc       ??_C@_02HCKGKOFO@?$CI?$CJ@ 1002b6cc     libvcruntime:undname.obj
 0002:000026d0       ??_C@_01PJKLJHI@?$HO@      1002b6d0     libvcruntime:undname.obj
 0002:000026d4       ??_C@_01JKBOJNNK@?$FO@     1002b6d4     libvcruntime:undname.obj
 0002:000026d8       ??_C@_01DNKMNLPK@?$HM@     1002b6d8     libvcruntime:undname.obj
 0002:000026dc       ??_C@_02PPKAJPJL@?$CG?$CG@ 1002b6dc     libvcruntime:undname.obj
 0002:000026e0       ??_C@_02NONPIBCD@?$HM?$HM@ 1002b6e0     libvcruntime:undname.obj
 0002:000026e4       ??_C@_02FPIMKNGF@?$CK?$DN@ 1002b6e4     libvcruntime:undname.obj
 0002:000026e8       ??_C@_02FOEOMHFC@?$CL?$DN@ 1002b6e8     libvcruntime:undname.obj
 0002:000026ec       ??_C@_02FKMDLLOA@?9?$DN@   1002b6ec     libvcruntime:undname.obj
 0002:000026f0       ??_C@_02FJEHGPIO@?1?$DN@   1002b6f0     libvcruntime:undname.obj
 0002:000026f4       ??_C@_02FENAOKFI@?$CF?$DN@ 1002b6f4     libvcruntime:undname.obj
 0002:000026f8       ??_C@_03IKFCCPFF@?$DO?$DO?$DN@ 1002b6f8     libvcruntime:undname.obj
 0002:000026fc       ??_C@_03CDNPDDLA@?$DM?$DM?$DN@ 1002b6fc     libvcruntime:undname.obj
 0002:00002700       ??_C@_02FGJGFEAB@?$CG?$DN@ 1002b700     libvcruntime:undname.obj
 0002:00002704       ??_C@_02DHLNPPGH@?$HM?$DN@ 1002b704     libvcruntime:undname.obj
 0002:00002708       ??_C@_02MHEGNOJ@?$FO?$DN@  1002b708     libvcruntime:undname.obj
 0002:0000270c       ??_C@_09IFPLHPGF@?$GAvftable?8@ 1002b70c     libvcruntime:undname.obj
 0002:00002718       ??_C@_09BLBHBJP@?$GAvbtable?8@ 1002b718     libvcruntime:undname.obj
 0002:00002724       ??_C@_07FEEIOKP@?$GAvcall?8@ 1002b724     libvcruntime:undname.obj
 0002:0000272c       ??_C@_08LLFFHHDJ@?$GAtypeof?8@ 1002b72c     libvcruntime:undname.obj
 0002:00002738       ??_C@_0BF@KDPPACIK@?$GAlocal?5static?5guard?8@ 1002b738     libvcruntime:undname.obj
 0002:00002750       ??_C@_08OBABFOLI@?$GAstring?8@ 1002b750     libvcruntime:undname.obj
 0002:0000275c       ??_C@_0BD@JDLKDPAB@?$GAvbase?5destructor?8@ 1002b75c     libvcruntime:undname.obj
 0002:00002770       ??_C@_0BN@DEGPLNFK@?$GAvector?5deleting?5destructor?8@ 1002b770     libvcruntime:undname.obj
 0002:00002790       ??_C@_0BO@OBMKPJIG@?$GAdefault?5constructor?5closure?8@ 1002b790     libvcruntime:undname.obj
 0002:000027b0       ??_C@_0BN@IMDCHIKM@?$GAscalar?5deleting?5destructor?8@ 1002b7b0     libvcruntime:undname.obj
 0002:000027d0       ??_C@_0BO@PFGOCPJJ@?$GAvector?5constructor?5iterator?8@ 1002b7d0     libvcruntime:undname.obj
 0002:000027f0       ??_C@_0BN@LFPFMEDL@?$GAvector?5destructor?5iterator?8@ 1002b7f0     libvcruntime:undname.obj
 0002:00002810       ??_C@_0CE@IKBNEHA@?$GAvector?5vbase?5constructor?5itera@ 1002b810     libvcruntime:undname.obj
 0002:00002834       ??_C@_0BL@NILFHHPC@?$GAvirtual?5displacement?5map?8@ 1002b834     libvcruntime:undname.obj
 0002:00002850       ??_C@_0CB@JONCMFFK@?$GAeh?5vector?5constructor?5iterator@ 1002b850     libvcruntime:undname.obj
 0002:00002874       ??_C@_0CA@GCEOPDGL@?$GAeh?5vector?5destructor?5iterator?8@ 1002b874     libvcruntime:undname.obj
 0002:00002894       ??_C@_0CH@OOJPLCPH@?$GAeh?5vector?5vbase?5constructor?5it@ 1002b894     libvcruntime:undname.obj
 0002:000028bc       ??_C@_0BL@LLKPOHJI@?$GAcopy?5constructor?5closure?8@ 1002b8bc     libvcruntime:undname.obj
 0002:000028d8       ??_C@_0BA@KBCDOMBN@?$GAudt?5returning?8@ 1002b8d8     libvcruntime:undname.obj
 0002:000028e8       ??_C@_03KLGMFNMG@?$GAEH@   1002b8e8     libvcruntime:undname.obj
 0002:000028ec       ??_C@_05KHLCHHI@?$GARTTI@  1002b8ec     libvcruntime:undname.obj
 0002:000028f4       ??_C@_0BA@KKLDJDLB@?$GAlocal?5vftable?8@ 1002b8f4     libvcruntime:undname.obj
 0002:00002904       ??_C@_0CE@IIHCMGGL@?$GAlocal?5vftable?5constructor?5clos@ 1002b904     libvcruntime:undname.obj
 0002:00002928       ??_C@_06FHBGPFGH@?5new?$FL?$FN@ 1002b928     libvcruntime:undname.obj
 0002:00002930       ??_C@_09LBNFPBCA@?5delete?$FL?$FN@ 1002b930     libvcruntime:undname.obj
 0002:0000293c       ??_C@_0P@HJKNJFNN@?$GAomni?5callsig?8@ 1002b93c     libvcruntime:undname.obj
 0002:0000294c       ??_C@_0BL@CNOONJFP@?$GAplacement?5delete?5closure?8@ 1002b94c     libvcruntime:undname.obj
 0002:00002968       ??_C@_0BN@CKNJLHMB@?$GAplacement?5delete?$FL?$FN?5closure?8@ 1002b968     libvcruntime:undname.obj
 0002:00002988       ??_C@_0CG@CFDHKGGD@?$GAmanaged?5vector?5constructor?5ite@ 1002b988     libvcruntime:undname.obj
 0002:000029b0       ??_C@_0CF@IMGKMJNO@?$GAmanaged?5vector?5destructor?5iter@ 1002b9b0     libvcruntime:undname.obj
 0002:000029d8       ??_C@_0CG@HLDDJMAG@?$GAeh?5vector?5copy?5constructor?5ite@ 1002b9d8     libvcruntime:undname.obj
 0002:00002a00       ??_C@_0CM@FCBBDIGB@?$GAeh?5vector?5vbase?5copy?5construct@ 1002ba00     libvcruntime:undname.obj
 0002:00002a2c       ??_C@_0BL@CLIPGLGB@?$GAdynamic?5initializer?5for?5?8@ 1002ba2c     libvcruntime:undname.obj
 0002:00002a48       ??_C@_0CB@PDBIFEP@?$GAdynamic?5atexit?5destructor?5for?5@ 1002ba48     libvcruntime:undname.obj
 0002:00002a6c       ??_C@_0CD@CGAJBKEJ@?$GAvector?5copy?5constructor?5iterat@ 1002ba6c     libvcruntime:undname.obj
 0002:00002a90       ??_C@_0CJ@GJELGAMM@?$GAvector?5vbase?5copy?5constructor?5@ 1002ba90     libvcruntime:undname.obj
 0002:00002abc       ??_C@_0CL@FGIJHLCE@?$GAmanaged?5vector?5copy?5constructo@ 1002babc     libvcruntime:undname.obj
 0002:00002ae8       ??_C@_0BM@PMGGMLDN@?$GAlocal?5static?5thread?5guard?8@ 1002bae8     libvcruntime:undname.obj
 0002:00002b04       ??_C@_0N@BDNMDMOL@operator?5?$CC?$CC?5@ 1002bb04     libvcruntime:undname.obj
 0002:00002b14       ??_C@_0BC@GGEBGALA@operator?5co_await@ 1002bb14     libvcruntime:undname.obj
 0002:00002b28       ??_C@_0M@GAAIMMOH@operator?$DM?$DN?$DO@ 1002bb28     libvcruntime:undname.obj
 0002:00002b34       ??_C@_0BC@DAFEJGAK@?5Type?5Descriptor?8@ 1002bb34     libvcruntime:undname.obj
 0002:00002b48       ??_C@_0BM@LDKODKLH@?5Base?5Class?5Descriptor?5at?5?$CI@ 1002bb48     libvcruntime:undname.obj
 0002:00002b64       ??_C@_0BD@LGICGFMM@?5Base?5Class?5Array?8@ 1002bb64     libvcruntime:undname.obj
 0002:00002b78       ??_C@_0BN@MECKDCOJ@?5Class?5Hierarchy?5Descriptor?8@ 1002bb78     libvcruntime:undname.obj
 0002:00002b98       ??_C@_0BK@CFCOFLF@?5Complete?5Object?5Locator?8@ 1002bb98     libvcruntime:undname.obj
 0002:00002bb4       ??_C@_0BG@JNJLAMPM@?$GAanonymous?5namespace?8@ 1002bbb4     libvcruntime:undname.obj
 0002:00002bd8       ??_C@_1DM@KHCHBNEB@?$AAa?$AAp?$AAi?$AA?9?$AAm?$AAs?$AA?9?$AAw?$AAi?$AAn?$AA?9?$AAc?$AAo?$AAr?$AAe@ 1002bbd8     libvcruntime:winapi_downlevel.obj
 0002:00002c14       ??_C@_1DK@LPPGFMPP@?$AAa?$AAp?$AAi?$AA?9?$AAm?$AAs?$AA?9?$AAw?$AAi?$AAn?$AA?9?$AAc?$AAo?$AAr?$AAe@ 1002bc14     libvcruntime:winapi_downlevel.obj
 0002:00002c50       ??_C@_1BC@GDMECMAK@?$AAk?$AAe?$AAr?$AAn?$AAe?$AAl?$AA3?$AA2@ 1002bc50     libvcruntime:winapi_downlevel.obj
 0002:00002c64       ??_C@_1BA@PFFKHIOG@?$AAa?$AAp?$AAi?$AA?9?$AAm?$AAs?$AA?9@ 1002bc64     libvcruntime:winapi_downlevel.obj
 0002:00002c7c       ??_C@_08KNHFBNJ@FlsAlloc@  1002bc7c     libvcruntime:winapi_downlevel.obj
 0002:00002c90       ??_C@_07PEJMOBNF@FlsFree@  1002bc90     libvcruntime:winapi_downlevel.obj
 0002:00002ca0       ??_C@_0M@GDNOONDI@FlsGetValue@ 1002bca0     libvcruntime:winapi_downlevel.obj
 0002:00002cb4       ??_C@_0M@JCPCPOEF@FlsSetValue@ 1002bcb4     libvcruntime:winapi_downlevel.obj
 0002:00002cc8       ??_C@_0BM@HCFOFFN@InitializeCriticalSectionEx@ 1002bcc8     libvcruntime:winapi_downlevel.obj
 0002:00002ce8       ?standard_lookup_table_spectre@__crt_stdio_output@@3V?$spectre_mitigated_lookup_table@Ustate_transition_pair@__crt_stdio_output@@$0IA@@1@B 1002bce8     libucrt:output.obj
 0002:00002de8       ??_C@_1O@CEDCILHN@?$AA?$CI?$AAn?$AAu?$AAl?$AAl?$AA?$CJ@ 1002bde8     libucrt:output.obj
 0002:00002df8       ??_C@_06OJHGLDPL@?$CInull?$CJ@ 1002bdf8     libucrt:output.obj
 0002:00002e00       ?large_power_data@?1??multiply_by_power_of_ten@__crt_strtox@@YA_NAAUbig_integer@2@I@Z@4QBIB 1002be00     libucrt:input.obj
 0002:00003708       ?large_power_indices@?1??multiply_by_power_of_ten@__crt_strtox@@YA_NAAUbig_integer@2@I@Z@4QBUunpack_index@?1??12@YA_N0I@Z@B 1002c708     libucrt:input.obj
 0002:000037a0       ?small_powers_of_ten@?1??multiply_by_power_of_ten@__crt_strtox@@YA_NAAUbig_integer@2@I@Z@4QBIB 1002c7a0     libucrt:input.obj
 0002:000037c8       ??_C@_1GE@DPGDJKLM@?$AAm?$AAi?$AAn?$AAk?$AAe?$AAr?$AAn?$AAe?$AAl?$AA?2?$AAc?$AAr?$AAt?$AAs?$AA?2@ 1002c7c8     libucrt:input.obj
 0002:00003830       ??_C@_1FM@FELNCOBF@?$AA_?$AA_?$AAc?$AAr?$AAt?$AA_?$AAs?$AAt?$AAr?$AAt?$AAo?$AAx?$AA?3?$AA?3?$AAf@ 1002c830     libucrt:input.obj
 0002:0000388c       ??_C@_1BG@GEMHBGAF@?$AA_?$AAi?$AAs?$AA_?$AAd?$AAo?$AAu?$AAb?$AAl?$AAe@ 1002c88c     libucrt:input.obj
 0002:000038a8       ??_C@_1FK@JOJELFFO@?$AA_?$AA_?$AAc?$AAr?$AAt?$AA_?$AAs?$AAt?$AAr?$AAt?$AAo?$AAx?$AA?3?$AA?3?$AAf@ 1002c8a8     libucrt:input.obj
 0002:00003904       ??_C@_1BI@BANMPGJI@?$AA?$CB?$AA_?$AAi?$AAs?$AA_?$AAd?$AAo?$AAu?$AAb?$AAl?$AAe@ 1002c904     libucrt:input.obj
 0002:00003920       ?constraints@?1??is_length_valid@__crt_stdio_input@@YA_NW4conversion_mode@2@W4length_modifier@2@@Z@4QAY0M@$$CBEA 1002c920     libucrt:input.obj
 0002:00003998       ?inf_uppercase@?1???$parse_floating_point_possible_infinity@DV?$input_adapter_character_source@V?$stream_input_adapter@D@__crt_stdio_input@@@__crt_strtox@@_K@__crt_strtox@@YA?AW4floating_point_parse_result@1@AADAAV?$input_adapter_character_source@V?$stream_input_adapter@D@__crt_stdio_input@@@1@_K@Z@4QBDB 1002c998     libucrt:input.obj
 0002:0000399c       ?inf_lowercase@?1???$parse_floating_point_possible_infinity@DV?$input_adapter_character_source@V?$stream_input_adapter@D@__crt_stdio_input@@@__crt_strtox@@_K@__crt_strtox@@YA?AW4floating_point_parse_result@1@AADAAV?$input_adapter_character_source@V?$stream_input_adapter@D@__crt_stdio_input@@@1@_K@Z@4QBDB 1002c99c     libucrt:input.obj
 0002:000039a0       ?inity_uppercase@?1???$parse_floating_point_possible_infinity@DV?$input_adapter_character_source@V?$stream_input_adapter@D@__crt_stdio_input@@@__crt_strtox@@_K@__crt_strtox@@YA?AW4floating_point_parse_result@1@AADAAV?$input_adapter_character_source@V?$stream_input_adapter@D@__crt_stdio_input@@@1@_K@Z@4QBDB 1002c9a0     libucrt:input.obj
 0002:000039a8       ?inity_lowercase@?1???$parse_floating_point_possible_infinity@DV?$input_adapter_character_source@V?$stream_input_adapter@D@__crt_stdio_input@@@__crt_strtox@@_K@__crt_strtox@@YA?AW4floating_point_parse_result@1@AADAAV?$input_adapter_character_source@V?$stream_input_adapter@D@__crt_stdio_input@@@1@_K@Z@4QBDB 1002c9a8     libucrt:input.obj
 0002:000039b0       ?uppercase@?1???$parse_floating_point_possible_nan@DV?$input_adapter_character_source@V?$stream_input_adapter@D@__crt_stdio_input@@@__crt_strtox@@_K@__crt_strtox@@YA?AW4floating_point_parse_result@1@AADAAV?$input_adapter_character_source@V?$stream_input_adapter@D@__crt_stdio_input@@@1@_K@Z@4QBDB 1002c9b0     libucrt:input.obj
 0002:000039b4       ?lowercase@?1???$parse_floating_point_possible_nan@DV?$input_adapter_character_source@V?$stream_input_adapter@D@__crt_stdio_input@@@__crt_strtox@@_K@__crt_strtox@@YA?AW4floating_point_parse_result@1@AADAAV?$input_adapter_character_source@V?$stream_input_adapter@D@__crt_stdio_input@@@1@_K@Z@4QBDB 1002c9b4     libucrt:input.obj
 0002:000039b8       ?uppercase@?1???$parse_floating_point_possible_nan_is_snan@DV?$input_adapter_character_source@V?$stream_input_adapter@D@__crt_stdio_input@@@__crt_strtox@@@__crt_strtox@@YA_NAADAAV?$input_adapter_character_source@V?$stream_input_adapter@D@__crt_stdio_input@@@1@@Z@4QBDB 1002c9b8     libucrt:input.obj
 0002:000039c0       ?lowercase@?1???$parse_floating_point_possible_nan_is_snan@DV?$input_adapter_character_source@V?$stream_input_adapter@D@__crt_stdio_input@@@__crt_strtox@@@__crt_strtox@@YA_NAADAAV?$input_adapter_character_source@V?$stream_input_adapter@D@__crt_stdio_input@@@1@@Z@4QBDB 1002c9c0     libucrt:input.obj
 0002:000039c8       ?uppercase@?1???$parse_floating_point_possible_nan_is_ind@DV?$input_adapter_character_source@V?$stream_input_adapter@D@__crt_stdio_input@@@__crt_strtox@@@__crt_strtox@@YA_NAADAAV?$input_adapter_character_source@V?$stream_input_adapter@D@__crt_stdio_input@@@1@@Z@4QBDB 1002c9c8     libucrt:input.obj
 0002:000039cc       ?lowercase@?1???$parse_floating_point_possible_nan_is_ind@DV?$input_adapter_character_source@V?$stream_input_adapter@D@__crt_stdio_input@@@__crt_strtox@@@__crt_strtox@@YA_NAADAAV?$input_adapter_character_source@V?$stream_input_adapter@D@__crt_stdio_input@@@1@@Z@4QBDB 1002c9cc     libucrt:input.obj
 0002:000039d0       ?inf_uppercase@?1???$parse_floating_point_possible_infinity@DV?$c_string_character_source@D@__crt_strtox@@PBD@__crt_strtox@@YA?AW4floating_point_parse_result@1@AADAAV?$c_string_character_source@D@1@PBD@Z@4QBDB 1002c9d0     libucrt:atof.obj
 0002:000039d4       ?inf_lowercase@?1???$parse_floating_point_possible_infinity@DV?$c_string_character_source@D@__crt_strtox@@PBD@__crt_strtox@@YA?AW4floating_point_parse_result@1@AADAAV?$c_string_character_source@D@1@PBD@Z@4QBDB 1002c9d4     libucrt:atof.obj
 0002:000039d8       ?inity_uppercase@?1???$parse_floating_point_possible_infinity@DV?$c_string_character_source@D@__crt_strtox@@PBD@__crt_strtox@@YA?AW4floating_point_parse_result@1@AADAAV?$c_string_character_source@D@1@PBD@Z@4QBDB 1002c9d8     libucrt:atof.obj
 0002:000039e0       ?inity_lowercase@?1???$parse_floating_point_possible_infinity@DV?$c_string_character_source@D@__crt_strtox@@PBD@__crt_strtox@@YA?AW4floating_point_parse_result@1@AADAAV?$c_string_character_source@D@1@PBD@Z@4QBDB 1002c9e0     libucrt:atof.obj
 0002:000039e8       ?uppercase@?1???$parse_floating_point_possible_nan@DV?$c_string_character_source@D@__crt_strtox@@PBD@__crt_strtox@@YA?AW4floating_point_parse_result@1@AADAAV?$c_string_character_source@D@1@PBD@Z@4QBDB 1002c9e8     libucrt:atof.obj
 0002:000039ec       ?lowercase@?1???$parse_floating_point_possible_nan@DV?$c_string_character_source@D@__crt_strtox@@PBD@__crt_strtox@@YA?AW4floating_point_parse_result@1@AADAAV?$c_string_character_source@D@1@PBD@Z@4QBDB 1002c9ec     libucrt:atof.obj
 0002:000039f0       ?uppercase@?1???$parse_floating_point_possible_nan_is_snan@DV?$c_string_character_source@D@__crt_strtox@@@__crt_strtox@@YA_NAADAAV?$c_string_character_source@D@1@@Z@4QBDB 1002c9f0     libucrt:atof.obj
 0002:000039f8       ?lowercase@?1???$parse_floating_point_possible_nan_is_snan@DV?$c_string_character_source@D@__crt_strtox@@@__crt_strtox@@YA_NAADAAV?$c_string_character_source@D@1@@Z@4QBDB 1002c9f8     libucrt:atof.obj
 0002:00003a00       ?uppercase@?1???$parse_floating_point_possible_nan_is_ind@DV?$c_string_character_source@D@__crt_strtox@@@__crt_strtox@@YA_NAADAAV?$c_string_character_source@D@1@@Z@4QBDB 1002ca00     libucrt:atof.obj
 0002:00003a04       ?lowercase@?1???$parse_floating_point_possible_nan_is_ind@DV?$c_string_character_source@D@__crt_strtox@@@__crt_strtox@@YA_NAADAAV?$c_string_character_source@D@1@@Z@4QBDB 1002ca04     libucrt:atof.obj
 0002:00003a08       ___acrt_exception_action_table 1002ca08     libucrt:exception_filter.obj
 0002:00003a98       ___acrt_signal_action_table_count 1002ca98     libucrt:exception_filter.obj
 0002:00003a9c       ___acrt_signal_action_first_fpe_index 1002ca9c     libucrt:exception_filter.obj
 0002:00003aa0       ___acrt_signal_action_fpe_count 1002caa0     libucrt:exception_filter.obj
 0002:00003aa4       ??_C@_1BI@BGOHAHKC@?$AAm?$AAs?$AAc?$AAo?$AAr?$AAe?$AAe?$AA?4?$AAd?$AAl?$AAl@ 1002caa4     libucrt:exit.obj
 0002:00003abc       ??_C@_0P@MIGLKIOC@CorExitProcess@ 1002cabc     libucrt:exit.obj
 0002:00003cf8       ??_C@_03OEIAHPBN@INF@      1002ccf8     libucrt:cvt.obj
 0002:00003cfc       ??_C@_03OJHLLCGB@inf@      1002ccfc     libucrt:cvt.obj
 0002:00003d00       ??_C@_03LKNCIKJB@NAN@      1002cd00     libucrt:cvt.obj
 0002:00003d04       ??_C@_03LHCJEHON@nan@      1002cd04     libucrt:cvt.obj
 0002:00003d08       ??_C@_09OFJJIMPC@NAN?$CISNAN?$CJ@ 1002cd08     libucrt:cvt.obj
 0002:00003d14       ??_C@_09IPFBKMDL@nan?$CIsnan?$CJ@ 1002cd14     libucrt:cvt.obj
 0002:00003d20       ??_C@_08IKHNHAJ@NAN?$CIIND?$CJ@ 1002cd20     libucrt:cvt.obj
 0002:00003d2c       ??_C@_08OFCDMILK@nan?$CIind?$CJ@ 1002cd2c     libucrt:cvt.obj
 0002:00003d38       ??_C@_05KLBDPFGC@e?$CL000@ 1002cd38     libucrt:cvt.obj
 0002:00003d40       ___lc_time_c               1002cd40     libucrt:nlsdata.obj
 0002:00003ea4       ??_C@_03KOEHGMDN@Sun@      1002cea4     libucrt:nlsdata.obj
 0002:00003ea8       ??_C@_03PDAGKDH@Mon@       1002cea8     libucrt:nlsdata.obj
 0002:00003eac       ??_C@_03NAGEINEP@Tue@      1002ceac     libucrt:nlsdata.obj
 0002:00003eb0       ??_C@_03MHOMLAJA@Wed@      1002ceb0     libucrt:nlsdata.obj
 0002:00003eb4       ??_C@_03IOFIKPDN@Thu@      1002ceb4     libucrt:nlsdata.obj
 0002:00003eb8       ??_C@_03IDIOELNC@Fri@      1002ceb8     libucrt:nlsdata.obj
 0002:00003ebc       ??_C@_03FEFJNEK@Sat@       1002cebc     libucrt:nlsdata.obj
 0002:00003ec0       ??_C@_06OOPIFAJ@Sunday@    1002cec0     libucrt:nlsdata.obj
 0002:00003ec8       ??_C@_06JLEDEDGH@Monday@   1002cec8     libucrt:nlsdata.obj
 0002:00003ed0       ??_C@_07BAAGCFCM@Tuesday@  1002ced0     libucrt:nlsdata.obj
 0002:00003ed8       ??_C@_09DLIGFAKA@Wednesday@ 1002ced8     libucrt:nlsdata.obj
 0002:00003ee4       ??_C@_08HACCIKIA@Thursday@ 1002cee4     libucrt:nlsdata.obj
 0002:00003ef0       ??_C@_06JECMNKMI@Friday@   1002cef0     libucrt:nlsdata.obj
 0002:00003ef8       ??_C@_08INBOOONO@Saturday@ 1002cef8     libucrt:nlsdata.obj
 0002:00003f04       ??_C@_03JIHJHPIE@Jan@      1002cf04     libucrt:nlsdata.obj
 0002:00003f08       ??_C@_03HJBDCHOM@Feb@      1002cf08     libucrt:nlsdata.obj
 0002:00003f0c       ??_C@_03ODNJBKGA@Mar@      1002cf0c     libucrt:nlsdata.obj
 0002:00003f10       ??_C@_03LEOLGMJP@Apr@      1002cf10     libucrt:nlsdata.obj
 0002:00003f14       ??_C@_03CNMDKL@May@        1002cf14     libucrt:nlsdata.obj
 0002:00003f18       ??_C@_03IDFGHECI@Jun@      1002cf18     libucrt:nlsdata.obj
 0002:00003f1c       ??_C@_03LBGABGKK@Jul@      1002cf1c     libucrt:nlsdata.obj
 0002:00003f20       ??_C@_03IFJFEIGA@Aug@      1002cf20     libucrt:nlsdata.obj
 0002:00003f24       ??_C@_03GGCAPAJC@Sep@      1002cf24     libucrt:nlsdata.obj
 0002:00003f28       ??_C@_03BMAOKBAD@Oct@      1002cf28     libucrt:nlsdata.obj
 0002:00003f2c       ??_C@_03JPJOFNIA@Nov@      1002cf2c     libucrt:nlsdata.obj
 0002:00003f30       ??_C@_03MKABNOCG@Dec@      1002cf30     libucrt:nlsdata.obj
 0002:00003f34       ??_C@_07CGJPFGJA@January@  1002cf34     libucrt:nlsdata.obj
 0002:00003f3c       ??_C@_08GNJGEPFN@February@ 1002cf3c     libucrt:nlsdata.obj
 0002:00003f48       ??_C@_05HPCKOFNC@March@    1002cf48     libucrt:nlsdata.obj
 0002:00003f50       ??_C@_05DMJDNLEJ@April@    1002cf50     libucrt:nlsdata.obj
 0002:00003f58       ??_C@_04CNLMGBGM@June@     1002cf58     libucrt:nlsdata.obj
 0002:00003f60       ??_C@_04MIEPOIFP@July@     1002cf60     libucrt:nlsdata.obj
 0002:00003f68       ??_C@_06LBBHFDDG@August@   1002cf68     libucrt:nlsdata.obj
 0002:00003f70       ??_C@_09BHHEALKD@September@ 1002cf70     libucrt:nlsdata.obj
 0002:00003f7c       ??_C@_07JJNFCEND@October@  1002cf7c     libucrt:nlsdata.obj
 0002:00003f84       ??_C@_08HCHEGEOA@November@ 1002cf84     libucrt:nlsdata.obj
 0002:00003f90       ??_C@_08EDHMEBNP@December@ 1002cf90     libucrt:nlsdata.obj
 0002:00003f9c       ??_C@_02DEDBPAFC@AM@       1002cf9c     libucrt:nlsdata.obj
 0002:00003fa0       ??_C@_02CJNFDJBF@PM@       1002cfa0     libucrt:nlsdata.obj
 0002:00003fa4       ??_C@_08BPBNCDIB@MM?1dd?1yy@ 1002cfa4     libucrt:nlsdata.obj
 0002:00003fb0       ??_C@_0BE@CKGJFCPC@dddd?0?5MMMM?5dd?0?5yyyy@ 1002cfb0     libucrt:nlsdata.obj
 0002:00003fc4       ??_C@_08JCCMCCIL@HH?3mm?3ss@ 1002cfc4     libucrt:nlsdata.obj
 0002:00003fd0       ??_C@_17MBGCMIPB@?$AAS?$AAu?$AAn@ 1002cfd0     libucrt:nlsdata.obj
 0002:00003fd8       ??_C@_17KBOMKBF@?$AAM?$AAo?$AAn@ 1002cfd8     libucrt:nlsdata.obj
 0002:00003fe0       ??_C@_17BMKGEGOJ@?$AAT?$AAu?$AAe@ 1002cfe0     libucrt:nlsdata.obj
 0002:00003fe8       ??_C@_17CJEDCEPE@?$AAW?$AAe?$AAd@ 1002cfe8     libucrt:nlsdata.obj
 0002:00003ff0       ??_C@_17PDPHAADD@?$AAT?$AAh?$AAu@ 1002cff0     libucrt:nlsdata.obj
 0002:00003ff8       ??_C@_17HFOLPPLP@?$AAF?$AAr?$AAi@ 1002cff8     libucrt:nlsdata.obj
 0002:00004000       ??_C@_17GGIBDPIH@?$AAS?$AAa?$AAt@ 1002d000     libucrt:nlsdata.obj
 0002:00004008       ??_C@_1O@IHNHDHPB@?$AAS?$AAu?$AAn?$AAd?$AAa?$AAy@ 1002d008     libucrt:nlsdata.obj
 0002:00004018       ??_C@_1O@MMNBFLIA@?$AAM?$AAo?$AAn?$AAd?$AAa?$AAy@ 1002d018     libucrt:nlsdata.obj
 0002:00004028       ??_C@_1BA@ENFBFFEK@?$AAT?$AAu?$AAe?$AAs?$AAd?$AAa?$AAy@ 1002d028     libucrt:nlsdata.obj
 0002:00004038       ??_C@_1BE@EBOGMDOH@?$AAW?$AAe?$AAd?$AAn?$AAe?$AAs?$AAd?$AAa?$AAy@ 1002d038     libucrt:nlsdata.obj
 0002:0000404c       ??_C@_1BC@HHMNLIHE@?$AAT?$AAh?$AAu?$AAr?$AAs?$AAd?$AAa?$AAy@ 1002d04c     libucrt:nlsdata.obj
 0002:00004060       ??_C@_1O@PDICJHAG@?$AAF?$AAr?$AAi?$AAd?$AAa?$AAy@ 1002d060     libucrt:nlsdata.obj
 0002:00004070       ??_C@_1BC@ENMNNPAJ@?$AAS?$AAa?$AAt?$AAu?$AAr?$AAd?$AAa?$AAy@ 1002d070     libucrt:nlsdata.obj
 0002:00004084       ??_C@_17DKNBKCHM@?$AAJ?$AAa?$AAn@ 1002d084     libucrt:nlsdata.obj
 0002:0000408c       ??_C@_17LMDJEKJN@?$AAF?$AAe?$AAb@ 1002d08c     libucrt:nlsdata.obj
 0002:00004094       ??_C@_17CKNLEDEC@?$AAM?$AAa?$AAr@ 1002d094     libucrt:nlsdata.obj
 0002:0000409c       ??_C@_17LFPOIHDD@?$AAA?$AAp?$AAr@ 1002d09c     libucrt:nlsdata.obj
 0002:000040a4       ??_C@_17PNNKMEED@?$AAM?$AAa?$AAy@ 1002d0a4     libucrt:nlsdata.obj
 0002:000040ac       ??_C@_17KCJGOCPB@?$AAJ?$AAu?$AAn@ 1002d0ac     libucrt:nlsdata.obj
 0002:000040b4       ??_C@_17IJPCKHK@?$AAJ?$AAu?$AAl@ 1002d0b4     libucrt:nlsdata.obj
 0002:000040bc       ??_C@_17ICPELBCN@?$AAA?$AAu?$AAg@ 1002d0bc     libucrt:nlsdata.obj
 0002:000040c4       ??_C@_17HCHCOKMG@?$AAS?$AAe?$AAp@ 1002d0c4     libucrt:nlsdata.obj
 0002:000040cc       ??_C@_17FNLKOI@?$AAO?$AAc?$AAt@ 1002d0cc     libucrt:nlsdata.obj
 0002:000040d4       ??_C@_17BBDMLCIG@?$AAN?$AAo?$AAv@ 1002d0d4     libucrt:nlsdata.obj
 0002:000040dc       ??_C@_17EGKACKIF@?$AAD?$AAe?$AAc@ 1002d0dc     libucrt:nlsdata.obj
 0002:000040e4       ??_C@_1BA@EFMEIEBA@?$AAJ?$AAa?$AAn?$AAu?$AAa?$AAr?$AAy@ 1002d0e4     libucrt:nlsdata.obj
 0002:000040f4       ??_C@_1BC@JGDDFFAM@?$AAF?$AAe?$AAb?$AAr?$AAu?$AAa?$AAr?$AAy@ 1002d0f4     libucrt:nlsdata.obj
 0002:00004108       ??_C@_1M@IKEENEDF@?$AAM?$AAa?$AAr?$AAc?$AAh@ 1002d108     libucrt:nlsdata.obj
 0002:00004114       ??_C@_1M@GJNLMHFD@?$AAA?$AAp?$AAr?$AAi?$AAl@ 1002d114     libucrt:nlsdata.obj
 0002:00004120       ??_C@_19EPFLPGAP@?$AAJ?$AAu?$AAn?$AAe@ 1002d120     libucrt:nlsdata.obj
 0002:0000412c       ??_C@_19BIFMLPCD@?$AAJ?$AAu?$AAl?$AAy@ 1002d12c     libucrt:nlsdata.obj
 0002:00004138       ??_C@_1O@PAHLKOAC@?$AAA?$AAu?$AAg?$AAu?$AAs?$AAt@ 1002d138     libucrt:nlsdata.obj
 0002:00004148       ??_C@_1BE@DKAAMBJL@?$AAS?$AAe?$AAp?$AAt?$AAe?$AAm?$AAb?$AAe?$AAr@ 1002d148     libucrt:nlsdata.obj
 0002:0000415c       ??_C@_1BA@EPANDLNG@?$AAO?$AAc?$AAt?$AAo?$AAb?$AAe?$AAr@ 1002d15c     libucrt:nlsdata.obj
 0002:0000416c       ??_C@_1BC@BGLIFPF@?$AAN?$AAo?$AAv?$AAe?$AAm?$AAb?$AAe?$AAr@ 1002d16c     libucrt:nlsdata.obj
 0002:00004180       ??_C@_1BC@FEMKIFH@?$AAD?$AAe?$AAc?$AAe?$AAm?$AAb?$AAe?$AAr@ 1002d180     libucrt:nlsdata.obj
 0002:00004194       ??_C@_15ODEHAHHF@?$AAA?$AAM@ 1002d194     libucrt:nlsdata.obj
 0002:0000419c       ??_C@_15CLMNNGEL@?$AAP?$AAM@ 1002d19c     libucrt:nlsdata.obj
 0002:000041a4       ??_C@_1BC@IEBCMHCM@?$AAM?$AAM?$AA?1?$AAd?$AAd?$AA?1?$AAy?$AAy@ 1002d1a4     libucrt:nlsdata.obj
 0002:000041b8       ??_C@_1CI@KNAKOEBC@?$AAd?$AAd?$AAd?$AAd?$AA?0?$AA?5?$AAM?$AAM?$AAM?$AAM?$AA?5?$AAd?$AAd?$AA?0?$AA?5@ 1002d1b8     libucrt:nlsdata.obj
 0002:000041e0       ??_C@_1BC@GDGBMEMK@?$AAH?$AAH?$AA?3?$AAm?$AAm?$AA?3?$AAs?$AAs@ 1002d1e0     libucrt:nlsdata.obj
 0002:000041f4       ??_C@_1M@BMHNFIME@?$AAe?$AAn?$AA?9?$AAU?$AAS@ 1002d1f4     libucrt:nlsdata.obj
 0002:00004200       ?ccs@?1???$__acrt_stdio_parse_mode@D@@YA?AU__acrt_stdio_stream_mode@@QBD@Z@4QBDB 1002d200     libucrt:openfile.obj
 0002:00004204       ?utf8_encoding@?1???$__acrt_stdio_parse_mode@D@@YA?AU__acrt_stdio_stream_mode@@QBD@Z@4QBDB 1002d204     libucrt:openfile.obj
 0002:0000420c       ?utf16_encoding@?1???$__acrt_stdio_parse_mode@D@@YA?AU__acrt_stdio_stream_mode@@QBD@Z@4QBDB 1002d20c     libucrt:openfile.obj
 0002:00004214       ?unicode_encoding@?1???$__acrt_stdio_parse_mode@D@@YA?AU__acrt_stdio_stream_mode@@QBD@Z@4QBDB 1002d214     libucrt:openfile.obj
 0002:00004220       ___newctype                1002d220     libucrt:ctype.obj
 0002:00004520       ___newclmap                1002d520     libucrt:ctype.obj
 0002:000046a0       ___newcumap                1002d6a0     libucrt:ctype.obj
 0002:00004870       ??_C@_1EA@JGEFHKEI@?$AAa?$AAp?$AAi?$AA?9?$AAm?$AAs?$AA?9?$AAw?$AAi?$AAn?$AA?9?$AAc?$AAo?$AAr?$AAe@ 1002d870     libucrt:winapi_thunks.obj
 0002:000048b0       ??_C@_1DI@IJCEHOCB@?$AAa?$AAp?$AAi?$AA?9?$AAm?$AAs?$AA?9?$AAw?$AAi?$AAn?$AA?9?$AAc?$AAo?$AAr?$AAe@ 1002d8b0     libucrt:winapi_thunks.obj
 0002:000048e8       ??_C@_1EI@MPIAOHOC@?$AAa?$AAp?$AAi?$AA?9?$AAm?$AAs?$AA?9?$AAw?$AAi?$AAn?$AA?9?$AAc?$AAo?$AAr?$AAe@ 1002d8e8     libucrt:winapi_thunks.obj
 0002:00004930       ??_C@_1FK@FPHCKFIE@?$AAa?$AAp?$AAi?$AA?9?$AAm?$AAs?$AA?9?$AAw?$AAi?$AAn?$AA?9?$AAc?$AAo?$AAr?$AAe@ 1002d930     libucrt:winapi_thunks.obj
 0002:00004990       ??_C@_1EM@DILCGIIO@?$AAa?$AAp?$AAi?$AA?9?$AAm?$AAs?$AA?9?$AAw?$AAi?$AAn?$AA?9?$AAc?$AAo?$AAr?$AAe@ 1002d990     libucrt:winapi_thunks.obj
 0002:000049dc       ??_C@_1DM@LNCGDDPN@?$AAa?$AAp?$AAi?$AA?9?$AAm?$AAs?$AA?9?$AAw?$AAi?$AAn?$AA?9?$AAc?$AAo?$AAr?$AAe@ 1002d9dc     libucrt:winapi_thunks.obj
 0002:00004a18       ??_C@_1DO@FPAPJEMD@?$AAa?$AAp?$AAi?$AA?9?$AAm?$AAs?$AA?9?$AAw?$AAi?$AAn?$AA?9?$AAc?$AAo?$AAr?$AAe@ 1002da18     libucrt:winapi_thunks.obj
 0002:00004a58       ??_C@_1DK@NDHNAHIO@?$AAa?$AAp?$AAi?$AA?9?$AAm?$AAs?$AA?9?$AAw?$AAi?$AAn?$AA?9?$AAc?$AAo?$AAr?$AAe@ 1002da58     libucrt:winapi_thunks.obj
 0002:00004a94       ??_C@_1DM@KGHDGBCM@?$AAa?$AAp?$AAi?$AA?9?$AAm?$AAs?$AA?9?$AAw?$AAi?$AAn?$AA?9?$AAc?$AAo?$AAr?$AAe@ 1002da94     libucrt:winapi_thunks.obj
 0002:00004ad0       ??_C@_1EO@IJIOEFOH@?$AAa?$AAp?$AAi?$AA?9?$AAm?$AAs?$AA?9?$AAw?$AAi?$AAn?$AA?9?$AAr?$AAt?$AAc?$AAo@ 1002dad0     libucrt:winapi_thunks.obj
 0002:00004b20       ??_C@_1FG@HHGEKANL@?$AAa?$AAp?$AAi?$AA?9?$AAm?$AAs?$AA?9?$AAw?$AAi?$AAn?$AA?9?$AAs?$AAe?$AAc?$AAu@ 1002db20     libucrt:winapi_thunks.obj
 0002:00004b78       ??_C@_1EG@DBIOJECG@?$AAe?$AAx?$AAt?$AA?9?$AAm?$AAs?$AA?9?$AAw?$AAi?$AAn?$AA?9?$AAn?$AAt?$AAu?$AAs@ 1002db78     libucrt:winapi_thunks.obj
 0002:00004bc0       ??_C@_1EO@FIHMJCLF@?$AAe?$AAx?$AAt?$AA?9?$AAm?$AAs?$AA?9?$AAw?$AAi?$AAn?$AA?9?$AAn?$AAt?$AAu?$AAs@ 1002dbc0     libucrt:winapi_thunks.obj
 0002:00004c10       ??_C@_1BC@DNHGCMLG@?$AAa?$AAd?$AAv?$AAa?$AAp?$AAi?$AA3?$AA2@ 1002dc10     libucrt:winapi_thunks.obj
 0002:00004c24       ??_C@_1M@OAIMIKLP@?$AAn?$AAt?$AAd?$AAl?$AAl@ 1002dc24     libucrt:winapi_thunks.obj
 0002:00004c30       ??_C@_1EG@DPGNFKGC@?$AAa?$AAp?$AAi?$AA?9?$AAm?$AAs?$AA?9?$AAw?$AAi?$AAn?$AA?9?$AAa?$AAp?$AAp?$AAm@ 1002dc30     libucrt:winapi_thunks.obj
 0002:00004c78       ??_C@_1O@BCCLBEOE@?$AAu?$AAs?$AAe?$AAr?$AA3?$AA2@ 1002dc78     libucrt:winapi_thunks.obj
 0002:00004c88       ??_C@_1DM@BPJLHKCE@?$AAa?$AAp?$AAi?$AA?9?$AAm?$AAs?$AA?9?$AAw?$AAi?$AAn?$AA?9?$AAc?$AAo?$AAr?$AAe@ 1002dc88     libucrt:winapi_thunks.obj
 0002:00004cc4       ??_C@_1BA@IAIFMGEF@?$AAe?$AAx?$AAt?$AA?9?$AAm?$AAs?$AA?9@ 1002dcc4     libucrt:winapi_thunks.obj
 0002:00004cd8       ??_C@_0BA@FHFNEAED@AreFileApisANSI@ 1002dcd8     libucrt:winapi_thunks.obj
 0002:00004cf8       ??_C@_0O@KKBNKAPF@LCMapStringEx@ 1002dcf8     libucrt:winapi_thunks.obj
 0002:00004d10       ??_C@_0BB@HBDEELFH@LocaleNameToLCID@ 1002dd10     libucrt:winapi_thunks.obj
 0002:00004d28       ??_C@_0CF@OJOFEIGO@AppPolicyGetProcessTerminationM@ 1002dd28     libucrt:winapi_thunks.obj
 0002:00004d80       ??_C@_1M@HPNHIDJI@?$AAj?$AAa?$AA?9?$AAJ?$AAP@ 1002dd80     libucrt:mbctype.obj
 0002:00004d8c       ??_C@_1M@BIBDDEMK@?$AAz?$AAh?$AA?9?$AAC?$AAN@ 1002dd8c     libucrt:mbctype.obj
 0002:00004d98       ??_C@_1M@JLOOOEGK@?$AAk?$AAo?$AA?9?$AAK?$AAR@ 1002dd98     libucrt:mbctype.obj
 0002:00004da4       ??_C@_1M@CLNBBOPM@?$AAz?$AAh?$AA?9?$AAT?$AAW@ 1002dda4     libucrt:mbctype.obj
 0002:00004db0       ??_C@_01GBGANLPD@0@        1002ddb0     libucrt:cfout.obj
 0002:00004db4       ??_C@_05DNEBIAHO@1?$CDINF@ 1002ddb4     libucrt:cfout.obj
 0002:00004dbc       ??_C@_06IMKFLFPG@1?$CDQNAN@ 1002ddbc     libucrt:cfout.obj
 0002:00004dc4       ??_C@_06PGGFOGJG@1?$CDSNAN@ 1002ddc4     libucrt:cfout.obj
 0002:00004dcc       ??_C@_05PHHOCPM@1?$CDIND@  1002ddcc     libucrt:cfout.obj
 0002:00004dd4       ??_C@_15PJPFLCCM@?$AAu?$AAk@ 1002ddd4     libucrt:get_qualified_locale.obj
 0002:00005500       ??_C@_15EMKDOKLE@?$AAa?$AAr@ 1002e500     libucrt:lcidtoname_downlevel.obj
 0002:00005508       ??_C@_15KNPADPLH@?$AAb?$AAg@ 1002e508     libucrt:lcidtoname_downlevel.obj
 0002:00005510       ??_C@_15EDMHLDMO@?$AAc?$AAa@ 1002e510     libucrt:lcidtoname_downlevel.obj
 0002:00005518       ??_C@_1O@BPEAJADD@?$AAz?$AAh?$AA?9?$AAC?$AAH?$AAS@ 1002e518     libucrt:lcidtoname_downlevel.obj
 0002:00005528       ??_C@_15LJNHCMNK@?$AAc?$AAs@ 1002e528     libucrt:lcidtoname_downlevel.obj
 0002:00005530       ??_C@_15FOMCIDHG@?$AAd?$AAa@ 1002e530     libucrt:lcidtoname_downlevel.obj
 0002:00005538       ??_C@_15NBKABECB@?$AAd?$AAe@ 1002e538     libucrt:lcidtoname_downlevel.obj
 0002:00005540       ??_C@_15GHPEIIAO@?$AAe?$AAl@ 1002e540     libucrt:lcidtoname_downlevel.obj
 0002:00005548       ??_C@_15MNPNEAIF@?$AAe?$AAn@ 1002e548     libucrt:lcidtoname_downlevel.obj
 0002:00005550       ??_C@_15GPIOMPMH@?$AAe?$AAs@ 1002e550     libucrt:lcidtoname_downlevel.obj
 0002:00005558       ??_C@_15NGLOAKJC@?$AAf?$AAi@ 1002e558     libucrt:lcidtoname_downlevel.obj
 0002:00005560       ??_C@_15FBKGNKAM@?$AAf?$AAr@ 1002e560     libucrt:lcidtoname_downlevel.obj
 0002:00005568       ??_C@_15KGGCNEFK@?$AAh?$AAe@ 1002e568     libucrt:lcidtoname_downlevel.obj
 0002:00005570       ??_C@_15PGHLIDMF@?$AAh?$AAu@ 1002e570     libucrt:lcidtoname_downlevel.obj
 0002:00005578       ??_C@_15BIEMAPLM@?$AAi?$AAs@ 1002e578     libucrt:lcidtoname_downlevel.obj
 0002:00005580       ??_C@_15IFJLDHAF@?$AAi?$AAt@ 1002e580     libucrt:lcidtoname_downlevel.obj
 0002:00005588       ??_C@_15GEMIOCAG@?$AAj?$AAa@ 1002e588     libucrt:lcidtoname_downlevel.obj
 0002:00005590       ??_C@_15EPELEGJA@?$AAk?$AAo@ 1002e590     libucrt:lcidtoname_downlevel.obj
 0002:00005598       ??_C@_15NDDHIMN@?$AAn?$AAl@ 1002e598     libucrt:lcidtoname_downlevel.obj
 0002:000055a0       ??_C@_15BPIGNHCD@?$AAn?$AAo@ 1002e5a0     libucrt:lcidtoname_downlevel.obj
 0002:000055a8       ??_C@_15DEOPBLCG@?$AAp?$AAl@ 1002e5a8     libucrt:lcidtoname_downlevel.obj
 0002:000055b0       ??_C@_15KBECGEFG@?$AAp?$AAt@ 1002e5b0     libucrt:lcidtoname_downlevel.obj
 0002:000055b8       ??_C@_15GLJCBFMD@?$AAr?$AAo@ 1002e5b8     libucrt:lcidtoname_downlevel.obj
 0002:000055c0       ??_C@_15FEDGKCDI@?$AAr?$AAu@ 1002e5c0     libucrt:lcidtoname_downlevel.obj
 0002:000055c8       ??_C@_15GLKMLLHM@?$AAh?$AAr@ 1002e5c8     libucrt:lcidtoname_downlevel.obj
 0002:000055d0       ??_C@_15CPKMFBDB@?$AAs?$AAk@ 1002e5d0     libucrt:lcidtoname_downlevel.obj
 0002:000055d8       ??_C@_15BAAIOGMK@?$AAs?$AAq@ 1002e5d8     libucrt:lcidtoname_downlevel.obj
 0002:000055e0       ??_C@_15INNPNOHD@?$AAs?$AAv@ 1002e5e0     libucrt:lcidtoname_downlevel.obj
 0002:000055e8       ??_C@_15CABMMOGH@?$AAt?$AAh@ 1002e5e8     libucrt:lcidtoname_downlevel.obj
 0002:000055f0       ??_C@_15BPLIHJJM@?$AAt?$AAr@ 1002e5f0     libucrt:lcidtoname_downlevel.obj
 0002:000055f8       ??_C@_15NEOEKKDJ@?$AAu?$AAr@ 1002e5f8     libucrt:lcidtoname_downlevel.obj
 0002:00005600       ??_C@_15NFICGAJK@?$AAi?$AAd@ 1002e600     libucrt:lcidtoname_downlevel.obj
 0002:00005608       ??_C@_15HPJPHDM@?$AAb?$AAe@ 1002e608     libucrt:lcidtoname_downlevel.obj
 0002:00005610       ??_C@_15LCHLGJII@?$AAs?$AAl@ 1002e610     libucrt:lcidtoname_downlevel.obj
 0002:00005618       ??_C@_15PCFJPHHO@?$AAe?$AAt@ 1002e618     libucrt:lcidtoname_downlevel.obj
 0002:00005620       ??_C@_15HPFPGODN@?$AAl?$AAv@ 1002e620     libucrt:lcidtoname_downlevel.obj
 0002:00005628       ??_C@_15NFFGKGLG@?$AAl?$AAt@ 1002e628     libucrt:lcidtoname_downlevel.obj
 0002:00005630       ??_C@_15BDAKCCHN@?$AAf?$AAa@ 1002e630     libucrt:lcidtoname_downlevel.obj
 0002:00005638       ??_C@_15NFGIAIAJ@?$AAv?$AAi@ 1002e638     libucrt:lcidtoname_downlevel.obj
 0002:00005640       ??_C@_15LMKNDMHN@?$AAh?$AAy@ 1002e640     libucrt:lcidtoname_downlevel.obj
 0002:00005648       ??_C@_15IJBHMCFL@?$AAa?$AAz@ 1002e648     libucrt:lcidtoname_downlevel.obj
 0002:00005650       ??_C@_15EKOFJABL@?$AAe?$AAu@ 1002e650     libucrt:lcidtoname_downlevel.obj
 0002:00005658       ??_C@_15BGHADCNK@?$AAm?$AAk@ 1002e658     libucrt:lcidtoname_downlevel.obj
 0002:00005660       ??_C@_15JDNICKHM@?$AAa?$AAf@ 1002e660     libucrt:lcidtoname_downlevel.obj
 0002:00005668       ??_C@_15KPJEDBKD@?$AAk?$AAa@ 1002e668     libucrt:lcidtoname_downlevel.obj
 0002:00005670       ??_C@_15PDNFFFEO@?$AAf?$AAo@ 1002e670     libucrt:lcidtoname_downlevel.obj
 0002:00005678       ??_C@_15OMLEGLOC@?$AAh?$AAi@ 1002e678     libucrt:lcidtoname_downlevel.obj
 0002:00005680       ??_C@_15IDNNENKK@?$AAm?$AAs@ 1002e680     libucrt:lcidtoname_downlevel.obj
 0002:00005688       ??_C@_15MACJNBMH@?$AAk?$AAk@ 1002e688     libucrt:lcidtoname_downlevel.obj
 0002:00005690       ??_C@_15DKDJEOND@?$AAk?$AAy@ 1002e690     libucrt:lcidtoname_downlevel.obj
 0002:00005698       ??_C@_15DFGDLJBG@?$AAs?$AAw@ 1002e698     libucrt:lcidtoname_downlevel.obj
 0002:000056a0       ??_C@_15BBFAICNG@?$AAu?$AAz@ 1002e6a0     libucrt:lcidtoname_downlevel.obj
 0002:000056a8       ??_C@_15DKNDCGEA@?$AAt?$AAt@ 1002e6a8     libucrt:lcidtoname_downlevel.obj
 0002:000056b0       ??_C@_15MGIFMDPL@?$AAp?$AAa@ 1002e6b0     libucrt:lcidtoname_downlevel.obj
 0002:000056b8       ??_C@_15HCNDBBA@?$AAg?$AAu@ 1002e6b8     libucrt:lcidtoname_downlevel.obj
 0002:000056c0       ??_C@_15FNBEIBON@?$AAt?$AAa@ 1002e6c0     libucrt:lcidtoname_downlevel.obj
 0002:000056c8       ??_C@_15NCHGBGLK@?$AAt?$AAe@ 1002e6c8     libucrt:lcidtoname_downlevel.obj
 0002:000056d0       ??_C@_15PHPHCBPF@?$AAk?$AAn@ 1002e6d0     libucrt:lcidtoname_downlevel.obj
 0002:000056d8       ??_C@_15DLGBCKMP@?$AAm?$AAr@ 1002e6d8     libucrt:lcidtoname_downlevel.obj
 0002:000056e0       ??_C@_15EABBLBFF@?$AAs?$AAa@ 1002e6e0     libucrt:lcidtoname_downlevel.obj
 0002:000056e8       ??_C@_15CBKOMCOI@?$AAm?$AAn@ 1002e6e8     libucrt:lcidtoname_downlevel.obj
 0002:000056f0       ??_C@_15CKDMCJAF@?$AAg?$AAl@ 1002e6f0     libucrt:lcidtoname_downlevel.obj
 0002:000056f8       ??_C@_17CNJFBPG@?$AAk?$AAo?$AAk@ 1002e6f8     libucrt:lcidtoname_downlevel.obj
 0002:00005700       ??_C@_17FFBJICPL@?$AAs?$AAy?$AAr@ 1002e700     libucrt:lcidtoname_downlevel.obj
 0002:00005708       ??_C@_17KPNDCPAF@?$AAd?$AAi?$AAv@ 1002e708     libucrt:lcidtoname_downlevel.obj
 0002:00005710       ??_C@_11LOCGONAA@@         1002e710     libucrt:lcidtoname_downlevel.obj
 0002:00005714       ??_C@_1M@OKAHONE@?$AAa?$AAr?$AA?9?$AAS?$AAA@ 1002e714     libucrt:lcidtoname_downlevel.obj
 0002:00005720       ??_C@_1M@FFFIGIGK@?$AAb?$AAg?$AA?9?$AAB?$AAG@ 1002e720     libucrt:lcidtoname_downlevel.obj
 0002:0000572c       ??_C@_1M@BJNKEDC@?$AAc?$AAa?$AA?9?$AAE?$AAS@ 1002e72c     libucrt:lcidtoname_downlevel.obj
 0002:00005738       ??_C@_1M@IJJHFJHA@?$AAc?$AAs?$AA?9?$AAC?$AAZ@ 1002e738     libucrt:lcidtoname_downlevel.obj
 0002:00005744       ??_C@_1M@CLPEOBGI@?$AAd?$AAa?$AA?9?$AAD?$AAK@ 1002e744     libucrt:lcidtoname_downlevel.obj
 0002:00005750       ??_C@_1M@MCMADGCB@?$AAd?$AAe?$AA?9?$AAD?$AAE@ 1002e750     libucrt:lcidtoname_downlevel.obj
 0002:0000575c       ??_C@_1M@OOCKEMAM@?$AAe?$AAl?$AA?9?$AAG?$AAR@ 1002e75c     libucrt:lcidtoname_downlevel.obj
 0002:00005768       ??_C@_1M@DDNJFGID@?$AAf?$AAi?$AA?9?$AAF?$AAI@ 1002e768     libucrt:lcidtoname_downlevel.obj
 0002:00005774       ??_C@_1M@GLIPPMAC@?$AAf?$AAr?$AA?9?$AAF?$AAR@ 1002e774     libucrt:lcidtoname_downlevel.obj
 0002:00005780       ??_C@_1M@GFMCHPE@?$AAh?$AAe?$AA?9?$AAI?$AAL@ 1002e780     libucrt:lcidtoname_downlevel.obj
 0002:0000578c       ??_C@_1M@MHLPGNKM@?$AAh?$AAu?$AA?9?$AAH?$AAU@ 1002e78c     libucrt:lcidtoname_downlevel.obj
 0002:00005798       ??_C@_1M@LPDDNNPN@?$AAi?$AAs?$AA?9?$AAI?$AAS@ 1002e798     libucrt:lcidtoname_downlevel.obj
 0002:000057a4       ??_C@_1M@MADIPODN@?$AAi?$AAt?$AA?9?$AAI?$AAT@ 1002e7a4     libucrt:lcidtoname_downlevel.obj
 0002:000057b0       ??_C@_1M@IHBJJGG@?$AAn?$AAl?$AA?9?$AAN?$AAL@ 1002e7b0     libucrt:lcidtoname_downlevel.obj
 0002:000057bc       ??_C@_1M@EANAGDL@?$AAn?$AAb?$AA?9?$AAN?$AAO@ 1002e7bc     libucrt:lcidtoname_downlevel.obj
 0002:000057c8       ??_C@_1M@NEIEMEGP@?$AAp?$AAl?$AA?9?$AAP?$AAL@ 1002e7c8     libucrt:lcidtoname_downlevel.obj
 0002:000057d4       ??_C@_1M@BOCFIGEP@?$AAp?$AAt?$AA?9?$AAB?$AAR@ 1002e7d4     libucrt:lcidtoname_downlevel.obj
 0002:000057e0       ??_C@_1M@IMPFOPBG@?$AAr?$AAo?$AA?9?$AAR?$AAO@ 1002e7e0     libucrt:lcidtoname_downlevel.obj
 0002:000057ec       ??_C@_1M@IDNNEJMM@?$AAr?$AAu?$AA?9?$AAR?$AAU@ 1002e7ec     libucrt:lcidtoname_downlevel.obj
 0002:000057f8       ??_C@_1M@LILEEOGM@?$AAh?$AAr?$AA?9?$AAH?$AAR@ 1002e7f8     libucrt:lcidtoname_downlevel.obj
 0002:00005804       ??_C@_1M@FKIFEHPB@?$AAs?$AAk?$AA?9?$AAS?$AAK@ 1002e804     libucrt:lcidtoname_downlevel.obj
 0002:00005810       ??_C@_1M@LJMAMNPJ@?$AAs?$AAq?$AA?9?$AAA?$AAL@ 1002e810     libucrt:lcidtoname_downlevel.obj
 0002:0000581c       ??_C@_1M@GIAKDKJK@?$AAs?$AAv?$AA?9?$AAS?$AAE@ 1002e81c     libucrt:lcidtoname_downlevel.obj
 0002:00005828       ??_C@_1M@MKJKIKCL@?$AAt?$AAh?$AA?9?$AAT?$AAH@ 1002e828     libucrt:lcidtoname_downlevel.obj
 0002:00005834       ??_C@_1M@MFLCCMPB@?$AAt?$AAr?$AA?9?$AAT?$AAR@ 1002e834     libucrt:lcidtoname_downlevel.obj
 0002:00005840       ??_C@_1M@OIJHDKJN@?$AAu?$AAr?$AA?9?$AAP?$AAK@ 1002e840     libucrt:lcidtoname_downlevel.obj
 0002:0000584c       ??_C@_1M@LHIPCIEK@?$AAi?$AAd?$AA?9?$AAI?$AAD@ 1002e84c     libucrt:lcidtoname_downlevel.obj
 0002:00005858       ??_C@_1M@MFMOBGI@?$AAu?$AAk?$AA?9?$AAU?$AAA@ 1002e858     libucrt:lcidtoname_downlevel.obj
 0002:00005864       ??_C@_1M@OBGLJIPL@?$AAb?$AAe?$AA?9?$AAB?$AAY@ 1002e864     libucrt:lcidtoname_downlevel.obj
 0002:00005870       ??_C@_1M@BCFAJEAD@?$AAs?$AAl?$AA?9?$AAS?$AAI@ 1002e870     libucrt:lcidtoname_downlevel.obj
 0002:0000587c       ??_C@_1M@FKFFEDDN@?$AAe?$AAt?$AA?9?$AAE?$AAE@ 1002e87c     libucrt:lcidtoname_downlevel.obj
 0002:00005888       ??_C@_1M@KGKKAACI@?$AAl?$AAv?$AA?9?$AAL?$AAV@ 1002e888     libucrt:lcidtoname_downlevel.obj
 0002:00005894       ??_C@_1M@IFGBIJO@?$AAl?$AAt?$AA?9?$AAL?$AAT@ 1002e894     libucrt:lcidtoname_downlevel.obj
 0002:000058a0       ??_C@_1M@FGEAHEDM@?$AAf?$AAa?$AA?9?$AAI?$AAR@ 1002e8a0     libucrt:lcidtoname_downlevel.obj
 0002:000058ac       ??_C@_1M@KBMAIBFN@?$AAv?$AAi?$AA?9?$AAV?$AAN@ 1002e8ac     libucrt:lcidtoname_downlevel.obj
 0002:000058b8       ??_C@_1M@GPCBKDJK@?$AAh?$AAy?$AA?9?$AAA?$AAM@ 1002e8b8     libucrt:lcidtoname_downlevel.obj
 0002:000058c4       ??_C@_1BG@BECMDDJB@?$AAa?$AAz?$AA?9?$AAA?$AAZ?$AA?9?$AAL?$AAa?$AAt?$AAn@ 1002e8c4     libucrt:lcidtoname_downlevel.obj
 0002:000058dc       ??_C@_1M@MAOFCAEA@?$AAe?$AAu?$AA?9?$AAE?$AAS@ 1002e8dc     libucrt:lcidtoname_downlevel.obj
 0002:000058e8       ??_C@_1M@IGHABKPI@?$AAm?$AAk?$AA?9?$AAM?$AAK@ 1002e8e8     libucrt:lcidtoname_downlevel.obj
 0002:000058f4       ??_C@_1M@IAIGNEJG@?$AAt?$AAn?$AA?9?$AAZ?$AAA@ 1002e8f4     libucrt:lcidtoname_downlevel.obj
 0002:00005900       ??_C@_1M@IIJCOJFA@?$AAx?$AAh?$AA?9?$AAZ?$AAA@ 1002e900     libucrt:lcidtoname_downlevel.obj
 0002:0000590c       ??_C@_1M@LGPJHNJH@?$AAz?$AAu?$AA?9?$AAZ?$AAA@ 1002e90c     libucrt:lcidtoname_downlevel.obj
 0002:00005918       ??_C@_1M@HOKAOIO@?$AAa?$AAf?$AA?9?$AAZ?$AAA@ 1002e918     libucrt:lcidtoname_downlevel.obj
 0002:00005924       ??_C@_1M@DPCLHLIE@?$AAk?$AAa?$AA?9?$AAG?$AAE@ 1002e924     libucrt:lcidtoname_downlevel.obj
 0002:00005930       ??_C@_1M@BLKMHJBI@?$AAf?$AAo?$AA?9?$AAF?$AAO@ 1002e930     libucrt:lcidtoname_downlevel.obj
 0002:0000593c       ??_C@_1M@LGGJAPPB@?$AAh?$AAi?$AA?9?$AAI?$AAN@ 1002e93c     libucrt:lcidtoname_downlevel.obj
 0002:00005948       ??_C@_1M@FIKPIHFE@?$AAm?$AAt?$AA?9?$AAM?$AAT@ 1002e948     libucrt:lcidtoname_downlevel.obj
 0002:00005954       ??_C@_1M@HEGGPBFA@?$AAs?$AAe?$AA?9?$AAN?$AAO@ 1002e954     libucrt:lcidtoname_downlevel.obj
 0002:00005960       ??_C@_1M@EIBJEEPA@?$AAm?$AAs?$AA?9?$AAM?$AAY@ 1002e960     libucrt:lcidtoname_downlevel.obj
 0002:0000596c       ??_C@_1M@FHLBGMPP@?$AAk?$AAk?$AA?9?$AAK?$AAZ@ 1002e96c     libucrt:lcidtoname_downlevel.obj
 0002:00005978       ??_C@_1M@NGJJLCGI@?$AAk?$AAy?$AA?9?$AAK?$AAG@ 1002e978     libucrt:lcidtoname_downlevel.obj
 0002:00005984       ??_C@_1M@GIENNBFC@?$AAs?$AAw?$AA?9?$AAK?$AAE@ 1002e984     libucrt:lcidtoname_downlevel.obj
 0002:00005990       ??_C@_1BG@NDGMJIMJ@?$AAu?$AAz?$AA?9?$AAU?$AAZ?$AA?9?$AAL?$AAa?$AAt?$AAn@ 1002e990     libucrt:lcidtoname_downlevel.obj
 0002:000059a8       ??_C@_1M@IDCCIHBC@?$AAt?$AAt?$AA?9?$AAR?$AAU@ 1002e9a8     libucrt:lcidtoname_downlevel.obj
 0002:000059b4       ??_C@_1M@LOICPMOJ@?$AAb?$AAn?$AA?9?$AAI?$AAN@ 1002e9b4     libucrt:lcidtoname_downlevel.obj
 0002:000059c0       ??_C@_1M@KPKKNEAH@?$AAp?$AAa?$AA?9?$AAI?$AAN@ 1002e9c0     libucrt:lcidtoname_downlevel.obj
 0002:000059cc       ??_C@_1M@PJGPPBOG@?$AAg?$AAu?$AA?9?$AAI?$AAN@ 1002e9cc     libucrt:lcidtoname_downlevel.obj
 0002:000059d8       ??_C@_1M@KMKMOPHI@?$AAt?$AAa?$AA?9?$AAI?$AAN@ 1002e9d8     libucrt:lcidtoname_downlevel.obj
 0002:000059e4       ??_C@_1M@KFEHEPAC@?$AAt?$AAe?$AA?9?$AAI?$AAN@ 1002e9e4     libucrt:lcidtoname_downlevel.obj
 0002:000059f0       ??_C@_1M@CDCLMGHI@?$AAk?$AAn?$AA?9?$AAI?$AAN@ 1002e9f0     libucrt:lcidtoname_downlevel.obj
 0002:000059fc       ??_C@_1M@MIODLDKF@?$AAm?$AAl?$AA?9?$AAI?$AAN@ 1002e9fc     libucrt:lcidtoname_downlevel.obj
 0002:00005a08       ??_C@_1M@PBIEACPO@?$AAm?$AAr?$AA?9?$AAI?$AAN@ 1002ea08     libucrt:lcidtoname_downlevel.obj
 0002:00005a14       ??_C@_1M@NIDEAGPH@?$AAs?$AAa?$AA?9?$AAI?$AAN@ 1002ea14     libucrt:lcidtoname_downlevel.obj
 0002:00005a20       ??_C@_1M@FHIHCBIO@?$AAm?$AAn?$AA?9?$AAM?$AAN@ 1002ea20     libucrt:lcidtoname_downlevel.obj
 0002:00005a2c       ??_C@_1M@JAIJPENP@?$AAc?$AAy?$AA?9?$AAG?$AAB@ 1002ea2c     libucrt:lcidtoname_downlevel.obj
 0002:00005a38       ??_C@_1M@PHGFBEPN@?$AAg?$AAl?$AA?9?$AAE?$AAS@ 1002ea38     libucrt:lcidtoname_downlevel.obj
 0002:00005a44       ??_C@_1O@KPIPDNCP@?$AAk?$AAo?$AAk?$AA?9?$AAI?$AAN@ 1002ea44     libucrt:lcidtoname_downlevel.obj
 0002:00005a54       ??_C@_1O@KNHJLDJA@?$AAs?$AAy?$AAr?$AA?9?$AAS?$AAY@ 1002ea54     libucrt:lcidtoname_downlevel.obj
 0002:00005a64       ??_C@_1O@MKEKBLAH@?$AAd?$AAi?$AAv?$AA?9?$AAM?$AAV@ 1002ea64     libucrt:lcidtoname_downlevel.obj
 0002:00005a74       ??_C@_1O@OHDCKDDF@?$AAq?$AAu?$AAz?$AA?9?$AAB?$AAO@ 1002ea74     libucrt:lcidtoname_downlevel.obj
 0002:00005a84       ??_C@_1M@LEPJNLFD@?$AAn?$AAs?$AA?9?$AAZ?$AAA@ 1002ea84     libucrt:lcidtoname_downlevel.obj
 0002:00005a90       ??_C@_1M@OMLEIIJB@?$AAm?$AAi?$AA?9?$AAN?$AAZ@ 1002ea90     libucrt:lcidtoname_downlevel.obj
 0002:00005a9c       ??_C@_1M@PMPEAILG@?$AAa?$AAr?$AA?9?$AAI?$AAQ@ 1002ea9c     libucrt:lcidtoname_downlevel.obj
 0002:00005aa8       ??_C@_1M@CNKPNOEE@?$AAd?$AAe?$AA?9?$AAC?$AAH@ 1002eaa8     libucrt:lcidtoname_downlevel.obj
 0002:00005ab4       ??_C@_1M@LKMGMLKO@?$AAe?$AAn?$AA?9?$AAG?$AAB@ 1002eab4     libucrt:lcidtoname_downlevel.obj
 0002:00005ac0       ??_C@_1M@PGKJFFGL@?$AAe?$AAs?$AA?9?$AAM?$AAX@ 1002eac0     libucrt:lcidtoname_downlevel.obj
 0002:00005acc       ??_C@_1M@DNNANBDC@?$AAf?$AAr?$AA?9?$AAB?$AAE@ 1002eacc     libucrt:lcidtoname_downlevel.obj
 0002:00005ad8       ??_C@_1M@HLGMDFHM@?$AAi?$AAt?$AA?9?$AAC?$AAH@ 1002ead8     libucrt:lcidtoname_downlevel.obj
 0002:00005ae4       ??_C@_1M@CLLBGJH@?$AAn?$AAl?$AA?9?$AAB?$AAE@ 1002eae4     libucrt:lcidtoname_downlevel.obj
 0002:00005af0       ??_C@_1M@BODBOGLF@?$AAn?$AAn?$AA?9?$AAN?$AAO@ 1002eaf0     libucrt:lcidtoname_downlevel.obj
 0002:00005afc       ??_C@_1M@HFFAHKAD@?$AAp?$AAt?$AA?9?$AAP?$AAT@ 1002eafc     libucrt:lcidtoname_downlevel.obj
 0002:00005b08       ??_C@_1BG@LNOAKHIE@?$AAs?$AAr?$AA?9?$AAS?$AAP?$AA?9?$AAL?$AAa?$AAt?$AAn@ 1002eb08     libucrt:lcidtoname_downlevel.obj
 0002:00005b20       ??_C@_1M@HBMHBGAK@?$AAs?$AAv?$AA?9?$AAF?$AAI@ 1002eb20     libucrt:lcidtoname_downlevel.obj
 0002:00005b2c       ??_C@_1BG@DGCJGJBE@?$AAa?$AAz?$AA?9?$AAA?$AAZ?$AA?9?$AAC?$AAy?$AAr?$AAl@ 1002eb2c     libucrt:lcidtoname_downlevel.obj
 0002:00005b44       ??_C@_1M@KEJDAAHB@?$AAs?$AAe?$AA?9?$AAS?$AAE@ 1002eb44     libucrt:lcidtoname_downlevel.obj
 0002:00005b50       ??_C@_1M@HEIBJJAD@?$AAm?$AAs?$AA?9?$AAB?$AAN@ 1002eb50     libucrt:lcidtoname_downlevel.obj
 0002:00005b5c       ??_C@_1BG@PBGJMCEM@?$AAu?$AAz?$AA?9?$AAU?$AAZ?$AA?9?$AAC?$AAy?$AAr?$AAl@ 1002eb5c     libucrt:lcidtoname_downlevel.obj
 0002:00005b74       ??_C@_1O@LAOBCMDF@?$AAq?$AAu?$AAz?$AA?9?$AAE?$AAC@ 1002eb74     libucrt:lcidtoname_downlevel.obj
 0002:00005b84       ??_C@_1M@POEEMAIO@?$AAa?$AAr?$AA?9?$AAE?$AAG@ 1002eb84     libucrt:lcidtoname_downlevel.obj
 0002:00005b90       ??_C@_1M@EFAKDEDL@?$AAz?$AAh?$AA?9?$AAH?$AAK@ 1002eb90     libucrt:lcidtoname_downlevel.obj
 0002:00005b9c       ??_C@_1M@HKKIJHGI@?$AAd?$AAe?$AA?9?$AAA?$AAT@ 1002eb9c     libucrt:lcidtoname_downlevel.obj
 0002:00005ba8       ??_C@_1M@KBFBEHJF@?$AAe?$AAn?$AA?9?$AAA?$AAU@ 1002eba8     libucrt:lcidtoname_downlevel.obj
 0002:00005bb4       ??_C@_1M@MNPLFAAH@?$AAe?$AAs?$AA?9?$AAE?$AAS@ 1002ebb4     libucrt:lcidtoname_downlevel.obj
 0002:00005bc0       ??_C@_1M@HJOOJFMA@?$AAf?$AAr?$AA?9?$AAC?$AAA@ 1002ebc0     libucrt:lcidtoname_downlevel.obj
 0002:00005bcc       ??_C@_1BG@JPOFPNAB@?$AAs?$AAr?$AA?9?$AAS?$AAP?$AA?9?$AAC?$AAy?$AAr?$AAl@ 1002ebcc     libucrt:lcidtoname_downlevel.obj
 0002:00005be4       ??_C@_1M@LNFOCMOB@?$AAs?$AAe?$AA?9?$AAF?$AAI@ 1002ebe4     libucrt:lcidtoname_downlevel.obj
 0002:00005bf0       ??_C@_1O@MGJBOAMB@?$AAq?$AAu?$AAz?$AA?9?$AAP?$AAE@ 1002ebf0     libucrt:lcidtoname_downlevel.obj
 0002:00005c00       ??_C@_1M@GJINLBOK@?$AAa?$AAr?$AA?9?$AAL?$AAY@ 1002ec00     libucrt:lcidtoname_downlevel.obj
 0002:00005c0c       ??_C@_1M@GGMNHJNL@?$AAz?$AAh?$AA?9?$AAS?$AAG@ 1002ec0c     libucrt:lcidtoname_downlevel.obj
 0002:00005c18       ??_C@_1M@HOIKODND@?$AAd?$AAe?$AA?9?$AAL?$AAU@ 1002ec18     libucrt:lcidtoname_downlevel.obj
 0002:00005c24       ??_C@_1M@DDOCCGFG@?$AAe?$AAn?$AA?9?$AAC?$AAA@ 1002ec24     libucrt:lcidtoname_downlevel.obj
 0002:00005c30       ??_C@_1M@BNOEMJLF@?$AAe?$AAs?$AA?9?$AAG?$AAT@ 1002ec30     libucrt:lcidtoname_downlevel.obj
 0002:00005c3c       ??_C@_1M@EOGNKEK@?$AAf?$AAr?$AA?9?$AAC?$AAH@ 1002ec3c     libucrt:lcidtoname_downlevel.obj
 0002:00005c48       ??_C@_1M@FLIDJFHL@?$AAh?$AAr?$AA?9?$AAB?$AAA@ 1002ec48     libucrt:lcidtoname_downlevel.obj
 0002:00005c54       ??_C@_1O@FMCELNAJ@?$AAs?$AAm?$AAj?$AA?9?$AAN?$AAO@ 1002ec54     libucrt:lcidtoname_downlevel.obj
 0002:00005c64       ??_C@_1M@JHGLJMGJ@?$AAa?$AAr?$AA?9?$AAD?$AAZ@ 1002ec64     libucrt:lcidtoname_downlevel.obj
 0002:00005c70       ??_C@_1M@JKKFDCNP@?$AAz?$AAh?$AA?9?$AAM?$AAO@ 1002ec70     libucrt:lcidtoname_downlevel.obj
 0002:00005c7c       ??_C@_1M@GEEFALPE@?$AAd?$AAe?$AA?9?$AAL?$AAI@ 1002ec7c     libucrt:lcidtoname_downlevel.obj
 0002:00005c88       ??_C@_1M@IGEOFBG@?$AAe?$AAn?$AA?9?$AAN?$AAZ@ 1002ec88     libucrt:lcidtoname_downlevel.obj
 0002:00005c94       ??_C@_1M@KDBONEHP@?$AAe?$AAs?$AA?9?$AAC?$AAR@ 1002ec94     libucrt:lcidtoname_downlevel.obj
 0002:00005ca0       ??_C@_1M@FHMDOHNN@?$AAf?$AAr?$AA?9?$AAL?$AAU@ 1002eca0     libucrt:lcidtoname_downlevel.obj
 0002:00005cac       ??_C@_1BG@NFKKMAFG@?$AAb?$AAs?$AA?9?$AAB?$AAA?$AA?9?$AAL?$AAa?$AAt?$AAn@ 1002ecac     libucrt:lcidtoname_downlevel.obj
 0002:00005cc4       ??_C@_1O@IMNBEMCI@?$AAs?$AAm?$AAj?$AA?9?$AAS?$AAE@ 1002ecc4     libucrt:lcidtoname_downlevel.obj
 0002:00005cd4       ??_C@_1M@DHHMBNDP@?$AAa?$AAr?$AA?9?$AAM?$AAA@ 1002ecd4     libucrt:lcidtoname_downlevel.obj
 0002:00005ce0       ??_C@_1M@BNBLJCGH@?$AAe?$AAn?$AA?9?$AAI?$AAE@ 1002ece0     libucrt:lcidtoname_downlevel.obj
 0002:00005cec       ??_C@_1M@GEPAFMDL@?$AAe?$AAs?$AA?9?$AAP?$AAA@ 1002ecec     libucrt:lcidtoname_downlevel.obj
 0002:00005cf8       ??_C@_1M@OJONDMDL@?$AAf?$AAr?$AA?9?$AAM?$AAC@ 1002ecf8     libucrt:lcidtoname_downlevel.obj
 0002:00005d04       ??_C@_1BG@OBCNFJB@?$AAs?$AAr?$AA?9?$AAB?$AAA?$AA?9?$AAL?$AAa?$AAt?$AAn@ 1002ed04     libucrt:lcidtoname_downlevel.obj
 0002:00005d1c       ??_C@_1O@KEMEEGPO@?$AAs?$AAm?$AAa?$AA?9?$AAN?$AAO@ 1002ed1c     libucrt:lcidtoname_downlevel.obj
 0002:00005d2c       ??_C@_1M@ELMGFODK@?$AAa?$AAr?$AA?9?$AAT?$AAN@ 1002ed2c     libucrt:lcidtoname_downlevel.obj
 0002:00005d38       ??_C@_1M@BHDLHFAF@?$AAe?$AAn?$AA?9?$AAZ?$AAA@ 1002ed38     libucrt:lcidtoname_downlevel.obj
 0002:00005d44       ??_C@_1M@BMGIGLIF@?$AAe?$AAs?$AA?9?$AAD?$AAO@ 1002ed44     libucrt:lcidtoname_downlevel.obj
 0002:00005d50       ??_C@_1BG@CMBHIPBE@?$AAs?$AAr?$AA?9?$AAB?$AAA?$AA?9?$AAC?$AAy?$AAr?$AAl@ 1002ed50     libucrt:lcidtoname_downlevel.obj
 0002:00005d68       ??_C@_1O@HEDBLHNP@?$AAs?$AAm?$AAa?$AA?9?$AAS?$AAE@ 1002ed68     libucrt:lcidtoname_downlevel.obj
 0002:00005d78       ??_C@_1M@DAGCADIM@?$AAa?$AAr?$AA?9?$AAO?$AAM@ 1002ed78     libucrt:lcidtoname_downlevel.obj
 0002:00005d84       ??_C@_1M@FODLMICG@?$AAe?$AAn?$AA?9?$AAJ?$AAM@ 1002ed84     libucrt:lcidtoname_downlevel.obj
 0002:00005d90       ??_C@_1M@DNMLCIHB@?$AAe?$AAs?$AA?9?$AAV?$AAE@ 1002ed90     libucrt:lcidtoname_downlevel.obj
 0002:00005d9c       ??_C@_1O@EOKHMKJK@?$AAs?$AAm?$AAs?$AA?9?$AAF?$AAI@ 1002ed9c     libucrt:lcidtoname_downlevel.obj
 0002:00005dac       ??_C@_1M@CAFJMKOF@?$AAa?$AAr?$AA?9?$AAY?$AAE@ 1002edac     libucrt:lcidtoname_downlevel.obj
 0002:00005db8       ??_C@_1M@CBFHIJLI@?$AAe?$AAn?$AA?9?$AAC?$AAB@ 1002edb8     libucrt:lcidtoname_downlevel.obj
 0002:00005dc4       ??_C@_1M@BGNFLDN@?$AAe?$AAs?$AA?9?$AAC?$AAO@ 1002edc4     libucrt:lcidtoname_downlevel.obj
 0002:00005dd0       ??_C@_1O@JMPHMAMC@?$AAs?$AAm?$AAn?$AA?9?$AAF?$AAI@ 1002edd0     libucrt:lcidtoname_downlevel.obj
 0002:00005de0       ??_C@_1M@JLANABKE@?$AAa?$AAr?$AA?9?$AAS?$AAY@ 1002ede0     libucrt:lcidtoname_downlevel.obj
 0002:00005dec       ??_C@_1M@HPKGCFGN@?$AAe?$AAn?$AA?9?$AAB?$AAZ@ 1002edec     libucrt:lcidtoname_downlevel.obj
 0002:00005df8       ??_C@_1M@OLJCMLGM@?$AAe?$AAs?$AA?9?$AAP?$AAE@ 1002edf8     libucrt:lcidtoname_downlevel.obj
 0002:00005e04       ??_C@_1M@MKKGFKLE@?$AAa?$AAr?$AA?9?$AAJ?$AAO@ 1002ee04     libucrt:lcidtoname_downlevel.obj
 0002:00005e10       ??_C@_1M@EKPGLDNI@?$AAe?$AAn?$AA?9?$AAT?$AAT@ 1002ee10     libucrt:lcidtoname_downlevel.obj
 0002:00005e1c       ??_C@_1M@OONGHFHE@?$AAe?$AAs?$AA?9?$AAA?$AAR@ 1002ee1c     libucrt:lcidtoname_downlevel.obj
 0002:00005e28       ??_C@_1M@OOJFGBHE@?$AAa?$AAr?$AA?9?$AAL?$AAB@ 1002ee28     libucrt:lcidtoname_downlevel.obj
 0002:00005e34       ??_C@_1M@GCEJHNEG@?$AAe?$AAn?$AA?9?$AAZ?$AAW@ 1002ee34     libucrt:lcidtoname_downlevel.obj
 0002:00005e40       ??_C@_1M@JNOCAHJI@?$AAe?$AAs?$AA?9?$AAE?$AAC@ 1002ee40     libucrt:lcidtoname_downlevel.obj
 0002:00005e4c       ??_C@_1M@JEFHPGGB@?$AAa?$AAr?$AA?9?$AAK?$AAW@ 1002ee4c     libucrt:lcidtoname_downlevel.obj
 0002:00005e58       ??_C@_1M@MLKIBJOJ@?$AAe?$AAn?$AA?9?$AAP?$AAH@ 1002ee58     libucrt:lcidtoname_downlevel.obj
 0002:00005e64       ??_C@_1M@BDNIPEND@?$AAe?$AAs?$AA?9?$AAC?$AAL@ 1002ee64     libucrt:lcidtoname_downlevel.obj
 0002:00005e70       ??_C@_1M@MPNMEKBD@?$AAa?$AAr?$AA?9?$AAA?$AAE@ 1002ee70     libucrt:lcidtoname_downlevel.obj
 0002:00005e7c       ??_C@_1M@KBJALCPI@?$AAe?$AAs?$AA?9?$AAU?$AAY@ 1002ee7c     libucrt:lcidtoname_downlevel.obj
 0002:00005e88       ??_C@_1M@LLCCOAGA@?$AAa?$AAr?$AA?9?$AAB?$AAH@ 1002ee88     libucrt:lcidtoname_downlevel.obj
 0002:00005e94       ??_C@_1M@PBFNCDEL@?$AAe?$AAs?$AA?9?$AAP?$AAY@ 1002ee94     libucrt:lcidtoname_downlevel.obj
 0002:00005ea0       ??_C@_1M@EDGINPNP@?$AAa?$AAr?$AA?9?$AAQ?$AAA@ 1002eea0     libucrt:lcidtoname_downlevel.obj
 0002:00005eac       ??_C@_1M@MKDBIIJI@?$AAe?$AAs?$AA?9?$AAB?$AAO@ 1002eeac     libucrt:lcidtoname_downlevel.obj
 0002:00005eb8       ??_C@_1M@CPKKEBLD@?$AAe?$AAs?$AA?9?$AAS?$AAV@ 1002eeb8     libucrt:lcidtoname_downlevel.obj
 0002:00005ec4       ??_C@_1M@NDBGMMJL@?$AAe?$AAs?$AA?9?$AAH?$AAN@ 1002eec4     libucrt:lcidtoname_downlevel.obj
 0002:00005ed0       ??_C@_1M@JIJIBHDP@?$AAe?$AAs?$AA?9?$AAN?$AAI@ 1002eed0     libucrt:lcidtoname_downlevel.obj
 0002:00005edc       ??_C@_1M@CGFMKEEK@?$AAe?$AAs?$AA?9?$AAP?$AAR@ 1002eedc     libucrt:lcidtoname_downlevel.obj
 0002:00005ee8       ??_C@_1O@ICJHKIIK@?$AAz?$AAh?$AA?9?$AAC?$AAH?$AAT@ 1002eee8     libucrt:lcidtoname_downlevel.obj
 0002:00005ef8       ??_C@_15CLNEJCE@?$AAs?$AAr@ 1002eef8     libucrt:lcidtoname_downlevel.obj
 0002:00006620       ??_C@_1M@KAHEKEIG@?$AAa?$AAf?$AA?9?$AAz?$AAa@ 1002f620     libucrt:lcidtoname_downlevel.obj
 0002:0000662c       ??_C@_1M@GIECOABL@?$AAa?$AAr?$AA?9?$AAa?$AAe@ 1002f62c     libucrt:lcidtoname_downlevel.obj
 0002:00006638       ??_C@_1M@BMLMEKGI@?$AAa?$AAr?$AA?9?$AAb?$AAh@ 1002f638     libucrt:lcidtoname_downlevel.obj
 0002:00006644       ??_C@_1M@DAPFDGGB@?$AAa?$AAr?$AA?9?$AAd?$AAz@ 1002f644     libucrt:lcidtoname_downlevel.obj
 0002:00006650       ??_C@_1M@FJNKGKIG@?$AAa?$AAr?$AA?9?$AAe?$AAg@ 1002f650     libucrt:lcidtoname_downlevel.obj
 0002:0000665c       ??_C@_1M@FLGKKCLO@?$AAa?$AAr?$AA?9?$AAi?$AAq@ 1002f65c     libucrt:lcidtoname_downlevel.obj
 0002:00006668       ??_C@_1M@GNDIPALM@?$AAa?$AAr?$AA?9?$AAj?$AAo@ 1002f668     libucrt:lcidtoname_downlevel.obj
 0002:00006674       ??_C@_1M@DDMJFMGJ@?$AAa?$AAr?$AA?9?$AAk?$AAw@ 1002f674     libucrt:lcidtoname_downlevel.obj
 0002:00006680       ??_C@_1M@EJALMLHM@?$AAa?$AAr?$AA?9?$AAl?$AAb@ 1002f680     libucrt:lcidtoname_downlevel.obj
 0002:0000668c       ??_C@_1M@MOBDBLOC@?$AAa?$AAr?$AA?9?$AAl?$AAy@ 1002f68c     libucrt:lcidtoname_downlevel.obj
 0002:00006698       ??_C@_1M@JAOCLHDH@?$AAa?$AAr?$AA?9?$AAm?$AAa@ 1002f698     libucrt:lcidtoname_downlevel.obj
 0002:000066a4       ??_C@_1M@JHPMKJIE@?$AAa?$AAr?$AA?9?$AAo?$AAm@ 1002f6a4     libucrt:lcidtoname_downlevel.obj
 0002:000066b0       ??_C@_1M@OEPGHFNH@?$AAa?$AAr?$AA?9?$AAq?$AAa@ 1002f6b0     libucrt:lcidtoname_downlevel.obj
 0002:000066bc       ??_C@_1M@KJDONENM@?$AAa?$AAr?$AA?9?$AAs?$AAa@ 1002f6bc     libucrt:lcidtoname_downlevel.obj
 0002:000066c8       ??_C@_1M@DMJDKLKM@?$AAa?$AAr?$AA?9?$AAs?$AAy@ 1002f6c8     libucrt:lcidtoname_downlevel.obj
 0002:000066d4       ??_C@_1M@OMFIPEDC@?$AAa?$AAr?$AA?9?$AAt?$AAn@ 1002f6d4     libucrt:lcidtoname_downlevel.obj
 0002:000066e0       ??_C@_1M@IHMHGAON@?$AAa?$AAr?$AA?9?$AAy?$AAe@ 1002f6e0     libucrt:lcidtoname_downlevel.obj
 0002:000066ec       ??_C@_1BG@KDCPGJGB@?$AAa?$AAz?$AA?9?$AAa?$AAz?$AA?9?$AAc?$AAy?$AAr?$AAl@ 1002f6ec     libucrt:lcidtoname_downlevel.obj
 0002:00006704       ??_C@_1BG@IBCKDDOE@?$AAa?$AAz?$AA?9?$AAa?$AAz?$AA?9?$AAl?$AAa?$AAt?$AAn@ 1002f704     libucrt:lcidtoname_downlevel.obj
 0002:0000671c       ??_C@_1M@EGPFDCPD@?$AAb?$AAe?$AA?9?$AAb?$AAy@ 1002f71c     libucrt:lcidtoname_downlevel.obj
 0002:00006728       ??_C@_1M@PCMGMCGC@?$AAb?$AAg?$AA?9?$AAb?$AAg@ 1002f728     libucrt:lcidtoname_downlevel.obj
 0002:00006734       ??_C@_1M@BJBMFGOB@?$AAb?$AAn?$AA?9?$AAi?$AAn@ 1002f734     libucrt:lcidtoname_downlevel.obj
 0002:00006740       ??_C@_1BG@EAKMMACD@?$AAb?$AAs?$AA?9?$AAb?$AAa?$AA?9?$AAl?$AAa?$AAt?$AAn@ 1002f740     libucrt:lcidtoname_downlevel.obj
 0002:00006758       ??_C@_1M@KGADAODK@?$AAc?$AAa?$AA?9?$AAe?$AAs@ 1002f758     libucrt:lcidtoname_downlevel.obj
 0002:00006764       ??_C@_1M@COAJPDHI@?$AAc?$AAs?$AA?9?$AAc?$AAz@ 1002f764     libucrt:lcidtoname_downlevel.obj
 0002:00006770       ??_C@_1M@DHBHFONH@?$AAc?$AAy?$AA?9?$AAg?$AAb@ 1002f770     libucrt:lcidtoname_downlevel.obj
 0002:0000677c       ??_C@_1M@IMGKELGA@?$AAd?$AAa?$AA?9?$AAd?$AAk@ 1002f77c     libucrt:lcidtoname_downlevel.obj
 0002:00006788       ??_C@_1M@NNDGDNGA@?$AAd?$AAe?$AA?9?$AAa?$AAt@ 1002f788     libucrt:lcidtoname_downlevel.obj
 0002:00006794       ??_C@_1M@IKDBHEEM@?$AAd?$AAe?$AA?9?$AAc?$AAh@ 1002f794     libucrt:lcidtoname_downlevel.obj
 0002:000067a0       ??_C@_1M@GFFOJMCJ@?$AAd?$AAe?$AA?9?$AAd?$AAe@ 1002f7a0     libucrt:lcidtoname_downlevel.obj
 0002:000067ac       ??_C@_1M@MDNLKBPM@?$AAd?$AAe?$AA?9?$AAl?$AAi@ 1002f7ac     libucrt:lcidtoname_downlevel.obj
 0002:000067b8       ??_C@_1M@NJBEEJNL@?$AAd?$AAe?$AA?9?$AAl?$AAu@ 1002f7b8     libucrt:lcidtoname_downlevel.obj
 0002:000067c4       ??_C@_1O@GNNELBAP@?$AAd?$AAi?$AAv?$AA?9?$AAm?$AAv@ 1002f7c4     libucrt:lcidtoname_downlevel.obj
 0002:000067d4       ??_C@_1M@EJLEOGAE@?$AAe?$AAl?$AA?9?$AAg?$AAr@ 1002f7d4     libucrt:lcidtoname_downlevel.obj
 0002:000067e0       ??_C@_1M@GMPONJN@?$AAe?$AAn?$AA?9?$AAa?$AAu@ 1002f7e0     libucrt:lcidtoname_downlevel.obj
 0002:000067ec       ??_C@_1M@NIDIIPGF@?$AAe?$AAn?$AA?9?$AAb?$AAz@ 1002f7ec     libucrt:lcidtoname_downlevel.obj
 0002:000067f8       ??_C@_1M@JEHMIMFO@?$AAe?$AAn?$AA?9?$AAc?$AAa@ 1002f7f8     libucrt:lcidtoname_downlevel.obj
 0002:00006804       ??_C@_1M@IGMJCDLA@?$AAe?$AAn?$AA?9?$AAc?$AAb@ 1002f804     libucrt:lcidtoname_downlevel.obj
 0002:00006810       ??_C@_1M@BNFIGBKG@?$AAe?$AAn?$AA?9?$AAg?$AAb@ 1002f810     libucrt:lcidtoname_downlevel.obj
 0002:0000681c       ??_C@_1M@LKIFDIGP@?$AAe?$AAn?$AA?9?$AAi?$AAe@ 1002f81c     libucrt:lcidtoname_downlevel.obj
 0002:00006828       ??_C@_1M@PJKFGCCO@?$AAe?$AAn?$AA?9?$AAj?$AAm@ 1002f828     libucrt:lcidtoname_downlevel.obj
 0002:00006834       ??_C@_1M@KPPKEPBO@?$AAe?$AAn?$AA?9?$AAn?$AAz@ 1002f834     libucrt:lcidtoname_downlevel.obj
 0002:00006840       ??_C@_1M@GMDGLDOB@?$AAe?$AAn?$AA?9?$AAp?$AAh@ 1002f840     libucrt:lcidtoname_downlevel.obj
 0002:0000684c       ??_C@_1M@ONGIBJNA@?$AAe?$AAn?$AA?9?$AAt?$AAt@ 1002f84c     libucrt:lcidtoname_downlevel.obj
 0002:00006858       ??_C@_1M@LLODPCMM@?$AAe?$AAn?$AA?9?$AAu?$AAs@ 1002f858     libucrt:lcidtoname_downlevel.obj
 0002:00006864       ??_C@_1M@LAKFNPAN@?$AAe?$AAn?$AA?9?$AAz?$AAa@ 1002f864     libucrt:lcidtoname_downlevel.obj
 0002:00006870       ??_C@_1M@MFNHNHEO@?$AAe?$AAn?$AA?9?$AAz?$AAw@ 1002f870     libucrt:lcidtoname_downlevel.obj
 0002:0000687c       ??_C@_1M@EJEINPHM@?$AAe?$AAs?$AA?9?$AAa?$AAr@ 1002f87c     libucrt:lcidtoname_downlevel.obj
 0002:00006888       ??_C@_1M@GNKPCCJA@?$AAe?$AAs?$AA?9?$AAb?$AAo@ 1002f888     libucrt:lcidtoname_downlevel.obj
 0002:00006894       ??_C@_1M@LEEGFONL@?$AAe?$AAs?$AA?9?$AAc?$AAl@ 1002f894     libucrt:lcidtoname_downlevel.obj
 0002:000068a0       ??_C@_1M@KGPDPBDF@?$AAe?$AAs?$AA?9?$AAc?$AAo@ 1002f8a0     libucrt:lcidtoname_downlevel.obj
 0002:000068ac       ??_C@_1M@EIAHOHH@?$AAe?$AAs?$AA?9?$AAc?$AAr@ 1002f8ac     libucrt:lcidtoname_downlevel.obj
 0002:000068b8       ??_C@_1M@LLPGMBIN@?$AAe?$AAs?$AA?9?$AAd?$AAo@ 1002f8b8     libucrt:lcidtoname_downlevel.obj
 0002:000068c4       ??_C@_1M@DKHMKNJA@?$AAe?$AAs?$AA?9?$AAe?$AAc@ 1002f8c4     libucrt:lcidtoname_downlevel.obj
 0002:000068d0       ??_C@_1M@GKGFPKAP@?$AAe?$AAs?$AA?9?$AAe?$AAs@ 1002f8d0     libucrt:lcidtoname_downlevel.obj
 0002:000068dc       ??_C@_1M@LKHKGDLN@?$AAe?$AAs?$AA?9?$AAg?$AAt@ 1002f8dc     libucrt:lcidtoname_downlevel.obj
 0002:000068e8       ??_C@_1M@HEIIGGJD@?$AAe?$AAs?$AA?9?$AAh?$AAn@ 1002f8e8     libucrt:lcidtoname_downlevel.obj
 0002:000068f4       ??_C@_1M@FBDHPPGD@?$AAe?$AAs?$AA?9?$AAm?$AAx@ 1002f8f4     libucrt:lcidtoname_downlevel.obj
 0002:00006900       ??_C@_1M@DPAGLNDH@?$AAe?$AAs?$AA?9?$AAn?$AAi@ 1002f900     libucrt:lcidtoname_downlevel.obj
 0002:0000690c       ??_C@_1M@MDGOPGDD@?$AAe?$AAs?$AA?9?$AAp?$AAa@ 1002f90c     libucrt:lcidtoname_downlevel.obj
 0002:00006918       ??_C@_1M@EMAMGBGE@?$AAe?$AAs?$AA?9?$AAp?$AAe@ 1002f918     libucrt:lcidtoname_downlevel.obj
 0002:00006924       ??_C@_1M@IBMCAOEC@?$AAe?$AAs?$AA?9?$AAp?$AAr@ 1002f924     libucrt:lcidtoname_downlevel.obj
 0002:00006930       ??_C@_1M@FGMDIJED@?$AAe?$AAs?$AA?9?$AAp?$AAy@ 1002f930     libucrt:lcidtoname_downlevel.obj
 0002:0000693c       ??_C@_1M@IIDEOLLL@?$AAe?$AAs?$AA?9?$AAs?$AAv@ 1002f93c     libucrt:lcidtoname_downlevel.obj
 0002:00006948       ??_C@_1M@GAOBIPA@?$AAe?$AAs?$AA?9?$AAu?$AAy@ 1002f948     libucrt:lcidtoname_downlevel.obj
 0002:00006954       ??_C@_1M@JKFFICHJ@?$AAe?$AAs?$AA?9?$AAv?$AAe@ 1002f954     libucrt:lcidtoname_downlevel.obj
 0002:00006960       ??_C@_1M@PNMLOJDF@?$AAe?$AAt?$AA?9?$AAe?$AAe@ 1002f960     libucrt:lcidtoname_downlevel.obj
 0002:0000696c       ??_C@_1M@GHHLIKEI@?$AAe?$AAu?$AA?9?$AAe?$AAs@ 1002f96c     libucrt:lcidtoname_downlevel.obj
 0002:00006978       ??_C@_1M@PBNONODE@?$AAf?$AAa?$AA?9?$AAi?$AAr@ 1002f978     libucrt:lcidtoname_downlevel.obj
 0002:00006984       ??_C@_1M@JEEHPMIL@?$AAf?$AAi?$AA?9?$AAf?$AAi@ 1002f984     libucrt:lcidtoname_downlevel.obj
 0002:00006990       ??_C@_1M@LMDCNDBA@?$AAf?$AAo?$AA?9?$AAf?$AAo@ 1002f990     libucrt:lcidtoname_downlevel.obj
 0002:0000699c       ??_C@_1M@JKEOHLDK@?$AAf?$AAr?$AA?9?$AAb?$AAe@ 1002f99c     libucrt:lcidtoname_downlevel.obj
 0002:000069a8       ??_C@_1M@NOHADPMI@?$AAf?$AAr?$AA?9?$AAc?$AAa@ 1002f9a8     libucrt:lcidtoname_downlevel.obj
 0002:000069b4       ??_C@_1M@KDHIHAEC@?$AAf?$AAr?$AA?9?$AAc?$AAh@ 1002f9b4     libucrt:lcidtoname_downlevel.obj
 0002:000069c0       ??_C@_1M@MMBBFGAK@?$AAf?$AAr?$AA?9?$AAf?$AAr@ 1002f9c0     libucrt:lcidtoname_downlevel.obj
 0002:000069cc       ??_C@_1M@PAFNENNF@?$AAf?$AAr?$AA?9?$AAl?$AAu@ 1002f9cc     libucrt:lcidtoname_downlevel.obj
 0002:000069d8       ??_C@_1M@EOHDJGDD@?$AAf?$AAr?$AA?9?$AAm?$AAc@ 1002f9d8     libucrt:lcidtoname_downlevel.obj
 0002:000069e4       ??_C@_1M@FAPLLOPF@?$AAg?$AAl?$AA?9?$AAe?$AAs@ 1002f9e4     libucrt:lcidtoname_downlevel.obj
 0002:000069f0       ??_C@_1M@FOPBFLOO@?$AAg?$AAu?$AA?9?$AAi?$AAn@ 1002f9f0     libucrt:lcidtoname_downlevel.obj
 0002:000069fc       ??_C@_1M@KBMCINPM@?$AAh?$AAe?$AA?9?$AAi?$AAl@ 1002f9fc     libucrt:lcidtoname_downlevel.obj
 0002:00006a08       ??_C@_1M@BBPHKFPJ@?$AAh?$AAi?$AA?9?$AAi?$AAn@ 1002fa08     libucrt:lcidtoname_downlevel.obj
 0002:00006a14       ??_C@_1M@PMBNDPHD@?$AAh?$AAr?$AA?9?$AAb?$AAa@ 1002fa14     libucrt:lcidtoname_downlevel.obj
 0002:00006a20       ??_C@_1M@BPCKOEGE@?$AAh?$AAr?$AA?9?$AAh?$AAr@ 1002fa20     libucrt:lcidtoname_downlevel.obj
 0002:00006a2c       ??_C@_1M@GACBMHKE@?$AAh?$AAu?$AA?9?$AAh?$AAu@ 1002fa2c     libucrt:lcidtoname_downlevel.obj
 0002:00006a38       ??_C@_1M@MILPAJJC@?$AAh?$AAy?$AA?9?$AAa?$AAm@ 1002fa38     libucrt:lcidtoname_downlevel.obj
 0002:00006a44       ??_C@_1M@BABBICEC@?$AAi?$AAd?$AA?9?$AAi?$AAd@ 1002fa44     libucrt:lcidtoname_downlevel.obj
 0002:00006a50       ??_C@_1M@BIKNHHPF@?$AAi?$AAs?$AA?9?$AAi?$AAs@ 1002fa50     libucrt:lcidtoname_downlevel.obj
 0002:00006a5c       ??_C@_1M@NMPCJPHE@?$AAi?$AAt?$AA?9?$AAc?$AAh@ 1002fa5c     libucrt:lcidtoname_downlevel.obj
 0002:00006a68       ??_C@_1M@GHKGFEDF@?$AAi?$AAt?$AA?9?$AAi?$AAt@ 1002fa68     libucrt:lcidtoname_downlevel.obj
 0002:00006a74       ??_C@_1M@NIEJCJJA@?$AAj?$AAa?$AA?9?$AAj?$AAp@ 1002fa74     libucrt:lcidtoname_downlevel.obj
 0002:00006a80       ??_C@_1M@JILFNBIM@?$AAk?$AAa?$AA?9?$AAg?$AAe@ 1002fa80     libucrt:lcidtoname_downlevel.obj
 0002:00006a8c       ??_C@_1M@PACPMGPH@?$AAk?$AAk?$AA?9?$AAk?$AAz@ 1002fa8c     libucrt:lcidtoname_downlevel.obj
 0002:00006a98       ??_C@_1M@IELFGMHA@?$AAk?$AAn?$AA?9?$AAi?$AAn@ 1002fa98     libucrt:lcidtoname_downlevel.obj
 0002:00006aa4       ??_C@_1O@IBBJHCH@?$AAk?$AAo?$AAk?$AA?9?$AAi?$AAn@ 1002faa4     libucrt:lcidtoname_downlevel.obj
 0002:00006ab4       ??_C@_1M@DMHAEOGC@?$AAk?$AAo?$AA?9?$AAk?$AAr@ 1002fab4     libucrt:lcidtoname_downlevel.obj
 0002:00006ac0       ??_C@_1M@HBAHBIGA@?$AAk?$AAy?$AA?9?$AAk?$AAg@ 1002fac0     libucrt:lcidtoname_downlevel.obj
 0002:00006acc       ??_C@_1M@KPMILCJG@?$AAl?$AAt?$AA?9?$AAl?$AAt@ 1002facc     libucrt:lcidtoname_downlevel.obj
 0002:00006ad8       ??_C@_1M@BDEKKCA@?$AAl?$AAv?$AA?9?$AAl?$AAv@ 1002fad8     libucrt:lcidtoname_downlevel.obj
 0002:00006ae4       ??_C@_1M@ELCKCCJJ@?$AAm?$AAi?$AA?9?$AAn?$AAz@ 1002fae4     libucrt:lcidtoname_downlevel.obj
 0002:00006af0       ??_C@_1M@CBOOLAPA@?$AAm?$AAk?$AA?9?$AAm?$AAk@ 1002faf0     libucrt:lcidtoname_downlevel.obj
 0002:00006afc       ??_C@_1M@GPHNBJKN@?$AAm?$AAl?$AA?9?$AAi?$AAn@ 1002fafc     libucrt:lcidtoname_downlevel.obj
 0002:00006b08       ??_C@_1M@PABJILIG@?$AAm?$AAn?$AA?9?$AAm?$AAn@ 1002fb08     libucrt:lcidtoname_downlevel.obj
 0002:00006b14       ??_C@_1M@FGBKKIPG@?$AAm?$AAr?$AA?9?$AAi?$AAn@ 1002fb14     libucrt:lcidtoname_downlevel.obj
 0002:00006b20       ??_C@_1M@NDBPDDAL@?$AAm?$AAs?$AA?9?$AAb?$AAn@ 1002fb20     libucrt:lcidtoname_downlevel.obj
 0002:00006b2c       ??_C@_1M@OPIHOOPI@?$AAm?$AAs?$AA?9?$AAm?$AAy@ 1002fb2c     libucrt:lcidtoname_downlevel.obj
 0002:00006b38       ??_C@_1M@PPDBCNFM@?$AAm?$AAt?$AA?9?$AAm?$AAt@ 1002fb38     libucrt:lcidtoname_downlevel.obj
 0002:00006b44       ??_C@_1M@KDJDKMDD@?$AAn?$AAb?$AA?9?$AAn?$AAo@ 1002fb44     libucrt:lcidtoname_downlevel.obj
 0002:00006b50       ??_C@_1M@KFCFLMJP@?$AAn?$AAl?$AA?9?$AAb?$AAe@ 1002fb50     libucrt:lcidtoname_downlevel.obj
 0002:00006b5c       ??_C@_1M@KPOPDDGO@?$AAn?$AAl?$AA?9?$AAn?$AAl@ 1002fb5c     libucrt:lcidtoname_downlevel.obj
 0002:00006b68       ??_C@_1M@LJKPEMLN@?$AAn?$AAn?$AA?9?$AAn?$AAo@ 1002fb68     libucrt:lcidtoname_downlevel.obj
 0002:00006b74       ??_C@_1M@BDGHHBFL@?$AAn?$AAs?$AA?9?$AAz?$AAa@ 1002fb74     libucrt:lcidtoname_downlevel.obj
 0002:00006b80       ??_C@_1M@IDEHOAP@?$AAp?$AAa?$AA?9?$AAi?$AAn@ 1002fb80     libucrt:lcidtoname_downlevel.obj
 0002:00006b8c       ??_C@_1M@HDBKGOGH@?$AAp?$AAl?$AA?9?$AAp?$AAl@ 1002fb8c     libucrt:lcidtoname_downlevel.obj
 0002:00006b98       ??_C@_1M@LJLLCMEH@?$AAp?$AAt?$AA?9?$AAb?$AAr@ 1002fb98     libucrt:lcidtoname_downlevel.obj
 0002:00006ba4       ??_C@_1M@NCMONAAL@?$AAp?$AAt?$AA?9?$AAp?$AAt@ 1002fba4     libucrt:lcidtoname_downlevel.obj
 0002:00006bb0       ??_C@_1O@EAKMAJDN@?$AAq?$AAu?$AAz?$AA?9?$AAb?$AAo@ 1002fbb0     libucrt:lcidtoname_downlevel.obj
 0002:00006bc0       ??_C@_1O@BHHPIGDN@?$AAq?$AAu?$AAz?$AA?9?$AAe?$AAc@ 1002fbc0     libucrt:lcidtoname_downlevel.obj
 0002:00006bd0       ??_C@_1O@GBAPEKMJ@?$AAq?$AAu?$AAz?$AA?9?$AAp?$AAe@ 1002fbd0     libucrt:lcidtoname_downlevel.obj
 0002:00006be0       ??_C@_1M@CLGLEFBO@?$AAr?$AAo?$AA?9?$AAr?$AAo@ 1002fbe0     libucrt:lcidtoname_downlevel.obj
 0002:00006bec       ??_C@_1M@CEEDODME@?$AAr?$AAu?$AA?9?$AAr?$AAu@ 1002fbec     libucrt:lcidtoname_downlevel.obj
 0002:00006bf8       ??_C@_1M@HPKKKMPP@?$AAs?$AAa?$AA?9?$AAi?$AAn@ 1002fbf8     libucrt:lcidtoname_downlevel.obj
 0002:00006c04       ??_C@_1M@BKMAIGOJ@?$AAs?$AAe?$AA?9?$AAf?$AAi@ 1002fc04     libucrt:lcidtoname_downlevel.obj
 0002:00006c10       ??_C@_1M@NDPIFLFI@?$AAs?$AAe?$AA?9?$AAn?$AAo@ 1002fc10     libucrt:lcidtoname_downlevel.obj
 0002:00006c1c       ??_C@_1M@DANKKHJ@?$AAs?$AAe?$AA?9?$AAs?$AAe@ 1002fc1c     libucrt:lcidtoname_downlevel.obj
 0002:00006c28       ??_C@_1M@PNBLONPJ@?$AAs?$AAk?$AA?9?$AAs?$AAk@ 1002fc28     libucrt:lcidtoname_downlevel.obj
 0002:00006c34       ??_C@_1M@LFMODOAL@?$AAs?$AAl?$AA?9?$AAs?$AAi@ 1002fc34     libucrt:lcidtoname_downlevel.obj
 0002:00006c40       ??_C@_1O@DFKOMPG@?$AAs?$AAm?$AAa?$AA?9?$AAn?$AAo@ 1002fc40     libucrt:lcidtoname_downlevel.obj
 0002:00006c50       ??_C@_1O@NDKPBNNH@?$AAs?$AAm?$AAa?$AA?9?$AAs?$AAe@ 1002fc50     libucrt:lcidtoname_downlevel.obj
 0002:00006c60       ??_C@_1O@PLLKBHAB@?$AAs?$AAm?$AAj?$AA?9?$AAn?$AAo@ 1002fc60     libucrt:lcidtoname_downlevel.obj
 0002:00006c70       ??_C@_1O@CLEPOGCA@?$AAs?$AAm?$AAj?$AA?9?$AAs?$AAe@ 1002fc70     libucrt:lcidtoname_downlevel.obj
 0002:00006c80       ??_C@_1O@DLGJGKMK@?$AAs?$AAm?$AAn?$AA?9?$AAf?$AAi@ 1002fc80     libucrt:lcidtoname_downlevel.obj
 0002:00006c90       ??_C@_1O@OJDJGAJC@?$AAs?$AAm?$AAs?$AA?9?$AAf?$AAi@ 1002fc90     libucrt:lcidtoname_downlevel.obj
 0002:00006ca0       ??_C@_1M@BOFOGHPB@?$AAs?$AAq?$AA?9?$AAa?$AAl@ 1002fca0     libucrt:lcidtoname_downlevel.obj
 0002:00006cac       ??_C@_1BG@LJBBIPGB@?$AAs?$AAr?$AA?9?$AAb?$AAa?$AA?9?$AAc?$AAy?$AAr?$AAl@ 1002fcac     libucrt:lcidtoname_downlevel.obj
 0002:00006cc4       ??_C@_1BG@JLBENFOE@?$AAs?$AAr?$AA?9?$AAb?$AAa?$AA?9?$AAl?$AAa?$AAt?$AAn@ 1002fcc4     libucrt:lcidtoname_downlevel.obj
 0002:00006cdc       ??_C@_1BG@KODPNHE@?$AAs?$AAr?$AA?9?$AAs?$AAp?$AA?9?$AAc?$AAy?$AAr?$AAl@ 1002fcdc     libucrt:lcidtoname_downlevel.obj
 0002:00006cf4       ??_C@_1BG@CIOGKHPB@?$AAs?$AAr?$AA?9?$AAs?$AAp?$AA?9?$AAl?$AAa?$AAt?$AAn@ 1002fcf4     libucrt:lcidtoname_downlevel.obj
 0002:00006d0c       ??_C@_1M@NGFJLMAC@?$AAs?$AAv?$AA?9?$AAf?$AAi@ 1002fd0c     libucrt:lcidtoname_downlevel.obj
 0002:00006d18       ??_C@_1M@MPJEJAJC@?$AAs?$AAv?$AA?9?$AAs?$AAe@ 1002fd18     libucrt:lcidtoname_downlevel.obj
 0002:00006d24       ??_C@_1M@MPNDHLFK@?$AAs?$AAw?$AA?9?$AAk?$AAe@ 1002fd24     libucrt:lcidtoname_downlevel.obj
 0002:00006d30       ??_C@_1O@KOHBJJI@?$AAs?$AAy?$AAr?$AA?9?$AAs?$AAy@ 1002fd30     libucrt:lcidtoname_downlevel.obj
 0002:00006d40       ??_C@_1M@LDCEFHA@?$AAt?$AAa?$AA?9?$AAi?$AAn@ 1002fd40     libucrt:lcidtoname_downlevel.obj
 0002:00006d4c       ??_C@_1M@CNJOFAK@?$AAt?$AAe?$AA?9?$AAi?$AAn@ 1002fd4c     libucrt:lcidtoname_downlevel.obj
 0002:00006d58       ??_C@_1M@GNAECACD@?$AAt?$AAh?$AA?9?$AAt?$AAh@ 1002fd58     libucrt:lcidtoname_downlevel.obj
 0002:00006d64       ??_C@_1M@CHBIHOJO@?$AAt?$AAn?$AA?9?$AAz?$AAa@ 1002fd64     libucrt:lcidtoname_downlevel.obj
 0002:00006d70       ??_C@_1M@GCCMIGPJ@?$AAt?$AAr?$AA?9?$AAt?$AAr@ 1002fd70     libucrt:lcidtoname_downlevel.obj
 0002:00006d7c       ??_C@_1M@CELMCNBK@?$AAt?$AAt?$AA?9?$AAr?$AAu@ 1002fd7c     libucrt:lcidtoname_downlevel.obj
 0002:00006d88       ??_C@_1M@KLMCELGA@?$AAu?$AAk?$AA?9?$AAu?$AAa@ 1002fd88     libucrt:lcidtoname_downlevel.obj
 0002:00006d94       ??_C@_1M@EPAJJAJF@?$AAu?$AAr?$AA?9?$AAp?$AAk@ 1002fd94     libucrt:lcidtoname_downlevel.obj
 0002:00006da0       ??_C@_1BG@GEGPMCDJ@?$AAu?$AAz?$AA?9?$AAu?$AAz?$AA?9?$AAc?$AAy?$AAr?$AAl@ 1002fda0     libucrt:lcidtoname_downlevel.obj
 0002:00006db8       ??_C@_1BG@EGGKJILM@?$AAu?$AAz?$AA?9?$AAu?$AAz?$AA?9?$AAl?$AAa?$AAt?$AAn@ 1002fdb8     libucrt:lcidtoname_downlevel.obj
 0002:00006dd0       ??_C@_1M@GFOCLFF@?$AAv?$AAi?$AA?9?$AAv?$AAn@ 1002fdd0     libucrt:lcidtoname_downlevel.obj
 0002:00006ddc       ??_C@_1M@CPAMEDFI@?$AAx?$AAh?$AA?9?$AAz?$AAa@ 1002fddc     libucrt:lcidtoname_downlevel.obj
 0002:00006de8       ??_C@_1O@EBKIFIGN@?$AAz?$AAh?$AA?9?$AAc?$AAh?$AAs@ 1002fde8     libucrt:lcidtoname_downlevel.obj
 0002:00006df8       ??_C@_1O@NMHPGANE@?$AAz?$AAh?$AA?9?$AAc?$AAh?$AAt@ 1002fdf8     libucrt:lcidtoname_downlevel.obj
 0002:00006e08       ??_C@_1M@LPINJOMC@?$AAz?$AAh?$AA?9?$AAc?$AAn@ 1002fe08     libucrt:lcidtoname_downlevel.obj
 0002:00006e14       ??_C@_1M@OCJEJODD@?$AAz?$AAh?$AA?9?$AAh?$AAk@ 1002fe14     libucrt:lcidtoname_downlevel.obj
 0002:00006e20       ??_C@_1M@DNDLJINH@?$AAz?$AAh?$AA?9?$AAm?$AAo@ 1002fe20     libucrt:lcidtoname_downlevel.obj
 0002:00006e2c       ??_C@_1M@MBFDNDND@?$AAz?$AAh?$AA?9?$AAs?$AAg@ 1002fe2c     libucrt:lcidtoname_downlevel.obj
 0002:00006e38       ??_C@_1M@IMEPLEPE@?$AAz?$AAh?$AA?9?$AAt?$AAw@ 1002fe38     libucrt:lcidtoname_downlevel.obj
 0002:00006e44       ??_C@_1M@BBGHNHJP@?$AAz?$AAu?$AA?9?$AAz?$AAa@ 1002fe44     libucrt:lcidtoname_downlevel.obj
 0002:00006fc0       __infinity                 1002ffc0     libucrt:87tran.obj
 0002:00006fca       __minfinity                1002ffca     libucrt:87tran.obj
 0002:00006fd4       __logemax                  1002ffd4     libucrt:87tran.obj
 0002:00006ffa       __OP_EXPjmptab             1002fffa     libucrt:87tran.obj
 0002:00007020       __indefinite               10030020     libucrt:87disp.obj
 0002:0000702a       __piby2                    1003002a     libucrt:87disp.obj
 0002:00007034       __piby4                    10030034     libucrt:87disp.obj
 0002:00007068       __DEFAULT_CW_in_mem        10030068     libucrt:common.obj
 0002:0000706a       __pi_by_2_to_61            1003006a     libucrt:common.obj
 0002:000070a4       ??_C@_03MGHMBJCF@log@      100300a4     libucrt:libm_error.obj
 0002:000070a8       ??_C@_05HGHHAHAP@log10@    100300a8     libucrt:libm_error.obj
 0002:000070b0       ??_C@_03KHJOGHMM@exp@      100300b0     libucrt:libm_error.obj
 0002:000070b4       ??_C@_03JGHBODFD@pow@      100300b4     libucrt:libm_error.obj
 0002:000070b8       ??_C@_04FIHNOPOL@asin@     100300b8     libucrt:libm_error.obj
 0002:000070c0       ??_C@_04PDIFKINK@acos@     100300c0     libucrt:libm_error.obj
 0002:000070c8       ??_C@_04EIAKFFMI@sqrt@     100300c8     libucrt:libm_error.obj
 0002:000070d0       ??_C@_1BA@BALFACEM@?$AAC?$AAO?$AAN?$AAO?$AAU?$AAT?$AA$@ 100300d0     libucrt:initcon.obj
 0002:00007100       ___acrt_log10_table_t      10030100     libucrt:log10_tables.obj
 0002:00007510       ___acrt_log10_table_cb     10030510     libucrt:log10_tables.obj
 0002:00007920       __real@3fe0000000000000    10030920     libucrt:powhlp.obj
 0002:00007a10       ??_C@_04COOMCNPB@sinh@     10030a10     libucrt:fpexcept.obj
 0002:00007a18       ??_C@_04HPJJNFIM@cosh@     10030a18     libucrt:fpexcept.obj
 0002:00007a20       ??_C@_04FJHINJAO@tanh@     10030a20     libucrt:fpexcept.obj
 0002:00007a28       ??_C@_04MLLJIGOK@atan@     10030a28     libucrt:fpexcept.obj
 0002:00007a30       ??_C@_05KNGEOGJB@atan2@    10030a30     libucrt:fpexcept.obj
 0002:00007a38       ??_C@_03BLEJJJBH@sin@      10030a38     libucrt:fpexcept.obj
 0002:00007a3c       ??_C@_03LALBNOCG@cos@      10030a3c     libucrt:fpexcept.obj
 0002:00007a40       ??_C@_03IIINPABG@tan@      10030a40     libucrt:fpexcept.obj
 0002:00007a44       ??_C@_04GFPJNGEK@ceil@     10030a44     libucrt:fpexcept.obj
 0002:00007a4c       ??_C@_05PBJFFIGL@floor@    10030a4c     libucrt:fpexcept.obj
 0002:00007a54       ??_C@_04ODHECPBC@fabs@     10030a54     libucrt:fpexcept.obj
 0002:00007a5c       ??_C@_04EHEDPDJG@modf@     10030a5c     libucrt:fpexcept.obj
 0002:00007a64       ??_C@_05CEJMAHNP@ldexp@    10030a64     libucrt:fpexcept.obj
 0002:00007a6c       ??_C@_05KBKMEMPO@_cabs@    10030a6c     libucrt:fpexcept.obj
 0002:00007a74       ??_C@_06MEIMCGCF@_hypot@   10030a74     libucrt:fpexcept.obj
 0002:00007a7c       ??_C@_04KEPJIHGP@fmod@     10030a7c     libucrt:fpexcept.obj
 0002:00007a84       ??_C@_05GKKHEGJL@frexp@    10030a84     libucrt:fpexcept.obj
 0002:00007a8c       ??_C@_03MJLDFKDL@_y0@      10030a8c     libucrt:fpexcept.obj
 0002:00007a90       ??_C@_03NAKIGLHK@_y1@      10030a90     libucrt:fpexcept.obj
 0002:00007a94       ??_C@_03ONILCKOB@_yn@      10030a94     libucrt:fpexcept.obj
 0002:00007a98       ??_C@_05JGDBENOH@_logb@    10030a98     libucrt:fpexcept.obj
 0002:00007aa0       ??_C@_0L@KDOEJCKC@_nextafter@ 10030aa0     libucrt:fpexcept.obj
 0002:00007ab0       __d_inf                    10030ab0     libucrt:util.obj
 0002:00007ab8       __d_max                    10030ab8     libucrt:util.obj
 0002:00007ac0       __d_mzero                  10030ac0     libucrt:util.obj
 0002:00007ae0       __load_config_used         10030ae0     LIBCMT:loadcfg.obj
 0002:00007c40       ??_R4exception@std@@6B@    10030c40     dllmain.obj
 0002:00007c54       ??_R3exception@std@@8      10030c54     dllmain.obj
 0002:00007c64       ??_R2exception@std@@8      10030c64     dllmain.obj
 0002:00007c6c       ??_R1A@?0A@EA@exception@std@@8 10030c6c     dllmain.obj
 0002:00007c88       ??_R4type_info@@6B@        10030c88     LIBCMT:std_type_info_static.obj
 0002:00007c9c       ??_R3type_info@@8          10030c9c     LIBCMT:std_type_info_static.obj
 0002:00007cac       ??_R2type_info@@8          10030cac     LIBCMT:std_type_info_static.obj
 0002:00007cb4       ??_R1A@?0A@EA@type_info@@8 10030cb4     LIBCMT:std_type_info_static.obj
 0002:00007cd0       ??_R4bad_exception@std@@6B@ 10030cd0     libvcruntime:frame.obj
 0002:00007ce4       ??_R3bad_exception@std@@8  10030ce4     libvcruntime:frame.obj
 0002:00007cf4       ??_R2bad_exception@std@@8  10030cf4     libvcruntime:frame.obj
 0002:00007d00       ??_R1A@?0A@EA@bad_exception@std@@8 10030d00     libvcruntime:frame.obj
 0002:00007d1c       ___safe_se_handler_table   10030d1c     <linker-defined>
 0002:00007d44       ___volatile_metadata       10030d44     <linker-defined>
 0002:00008198       ___rtc_iaa                 10031198     LIBCMT:initsect.obj
 0002:0000819c       ___rtc_izz                 1003119c     LIBCMT:initsect.obj
 0002:000081a0       ___rtc_taa                 100311a0     LIBCMT:initsect.obj
 0002:000081a4       ___rtc_tzz                 100311a4     LIBCMT:initsect.obj
 0002:000081a8       __CT??_R0?AVexception@std@@@8??0exception@std@@QAE@ABV01@@Z12 100311a8     dllmain.obj
 0002:00008354       __TI2?AVbad_exception@std@@ 10031354     libvcruntime:frame.obj
 0002:00008364       __CTA2?AVbad_exception@std@@ 10031364     libvcruntime:frame.obj
 0002:00008370       __CT??_R0?AVbad_exception@std@@@8??0bad_exception@std@@QAE@ABV01@@Z12 10031370     libvcruntime:frame.obj
 0002:00008a30       __IMPORT_DESCRIPTOR_KERNEL32 10031a30     kernel32:KERNEL32.dll
 0002:00008a44       __IMPORT_DESCRIPTOR_USER32 10031a44     user32:USER32.dll
 0002:00008a58       __NULL_IMPORT_DESCRIPTOR   10031a58     kernel32:KERNEL32.dll
 0003:00000000       ?HasArtifact@@3P6EHPAXH@ZA 10033000     heroes.obj
 0003:00000004       ?HasArtifactInBackpack@@3P6EHPAXH@ZA 10033004     heroes.obj
 0003:00000008       ?HasCreature@@3P6EHPAXH@ZA 10033008     heroes.obj
 0003:0000000c       ?ShowGrailMap@@3P6EHPAX@ZA 1003300c     heroes.obj
 0003:00000010       ?ShowThiefGuild@@3P6EHPAXH@ZA 10033010     heroes.obj
 0003:00000014       ?RandArtGenerator@@3P6EHHH@ZA 10033014     heroes.obj
 0003:00000018       ?sub_5A43E0@@3P6EDPAXHHHHH@ZA 10033018     heroes.obj
 0003:0000001c       ?CastBattleSpell@@3P6EHPAXHHIHHH@ZA 1003301c     heroes.obj
 0003:00000020       ?SummonCreature@@3P6EHPAXHHHH@ZA 10033020     heroes.obj
 0003:00000024       ?ShowMSG@@3P6IHPBDHHHHHHHHHHH@ZA 10033024     heroes.obj
 0003:00000028       ?CallERM@@3P6AXH@ZA        10033028     heroes.obj
 0003:0000002c       ?hprintf@@3P6AXHPADZZA     1003302c     heroes.obj
 0003:00000030       ?_alldiv__nonpatched@@3P6GH_JIH@ZA 10033030     BugFix.obj
 0003:00000038       ?SearchFileFromLod@@3P6IEPAXHPAD@ZA 10033038     core.obj
 0003:0000003c       ?__dummy_ptr@@3HA          1003303c     core.obj
 0003:00000040       ?FindDefOrMskInAllLods@@3P6IPAXPBD@ZA 10033040     core.obj
 0003:00000044       ?experience_0x0085EB54_table@@3PADA 10033044     core.obj
 0003:00000048       ?experience_0x0085EB58_table@@3PADA 10033048     core.obj
 0003:0000004c       ?experience_0x0085EB5C_table@@3PADA 1003304c     core.obj
 0003:00000050       ?experience_0x0085EB60_table@@3PADA 10033050     core.obj
 0003:00000054       ?i_ExistingMonstr@@3HA     10033054     core.obj
 0003:00000058       ?p_AddressOfPatchStrMonstr@@3PAHA 10033058     core.obj
 0003:000000ac       ?p_AddressOfPatchCrAnim@@3PAHA 100330ac     core.obj
 0003:000000b4       ?p_AddressOfPatchAtack@@3PAHA 100330b4     core.obj
 0003:000000b8       ?p_AddressOfPatchDefend@@3PAHA 100330b8     core.obj
 0003:000000bc       ?p_AddressOfPatchOption@@3PAHA 100330bc     core.obj
 0003:000000c0       ?p_AddressOfERMLimit@@3PAHA 100330c0     core.obj
 0003:000003e0       ?p_AddressOfERMLimit2@@3PAHA 100333e0     core.obj
 0003:000003f0       ?p_AddressOfERM@@3PAHA     100333f0     core.obj
 0003:00000658       ?i_OffERM@@3PAHA           10033658     core.obj
 0003:000008c0       ?p_AddressOfNames@@3PAHA   100338c0     core.obj
 0003:000008e4       ?p_AddressOfPlNames@@3PAHA 100338e4     core.obj
 0003:00000910       ?p_AddressOfDesc@@3PAHA    10033910     core.obj
 0003:00000934       ?p_Experience_0x00847f08_Table@@3PAHA 10033934     core.obj
 0003:00000954       ?dummydef@@3PBDB           10033954     core.obj
 0003:00000958       ?p_CURMON_table@@3PAHA     10033958     core.obj
 0003:000009b4       ?p_experience_0x0085EB50_table@@3PAHA 100339b4     core.obj
 0003:000009cc       ?p_experience_0x0085EB54_table@@3PAHA 100339cc     core.obj
 0003:000009d4       ?p_experience_0x0085EB58_table@@3PAHA 100339d4     core.obj
 0003:000009e0       ?p_experience_0x0085EB5C_table@@3PAHA 100339e0     core.obj
 0003:000009e8       ?p_experience_0x0085EB60_table@@3PAHA 100339e8     core.obj
 0003:000009f0       ?dummysnd@@3PBDB           100339f0     core.obj
 0003:000009f4       ?LoadCrTraitsRow_lastmon@@3HA 100339f4     core.obj
 0003:000009f8       ?LoadDef@@3P6IHPAD@ZA      100339f8     core.obj
 0003:00000a00       ?replace_CrState@@3PAUreplace_dword@@A 10033a00     core.obj
 0003:00000b2c       ?v@Era@@3PAHA              10033b2c     dllmain.obj
 0003:00000b30       ?z@Era@@3PAY0CAA@DA        10033b30     dllmain.obj
 0003:00000b34       ?y@Era@@3PAHA              10033b34     dllmain.obj
 0003:00000b38       ?x@Era@@3PAHA              10033b38     dllmain.obj
 0003:00000b3c       ?f@Era@@3PA_NA             10033b3c     dllmain.obj
 0003:00000b40       ?e@Era@@3PAMA              10033b40     dllmain.obj
 0003:00000b44       ?CurrentPlayer@@3PBKB      10033b44     dllmain.obj
 0003:00000b48       ?Hook_0x00705450_error_message@@3PADA 10033b48     dllmain.obj
 0003:00000b4c       ?Hook_0x00705450_BUMP_message@@3PADA 10033b4c     dllmain.obj
 0003:00000b50       ?CRExpBon__BFBody@@3HA     10033b50     majaczek.obj
 0003:00000b54       ?CRExpBon__Cur@@3HA        10033b54     majaczek.obj
 0003:00000b58       ?CRExpBon__Body@@3HA       10033b58     majaczek.obj
 0003:00000b5c       ?CRExpBon__Dummy@@3HA      10033b5c     majaczek.obj
 0003:00000b60       ?CrExpMod__BFBody@@3HA     10033b60     majaczek.obj
 0003:00000b64       ?CrExpMod__Body@@3HA       10033b64     majaczek.obj
 0003:00000b68       ?CrExpMod__Cur@@3HA        10033b68     majaczek.obj
 0003:00000b6c       ?CrExpMod__Dummy@@3HA      10033b6c     majaczek.obj
 0003:00000b70       ?CrExpoSet__Body@@3HA      10033b70     majaczek.obj
 0003:00000b74       ?LoadExpTXT__ptr@@3HA      10033b74     majaczek.obj
 0003:00000b78       ?CrExpoSet__Clear__ptr@@3HA 10033b78     majaczek.obj
 0003:00000b7c       ?CrExpMod__Clear__ptr@@3HA 10033b7c     majaczek.obj
 0003:00000b80       ?CrExpBon__Clear__ptr@@3HA 10033b80     majaczek.obj
 0003:00000b84       ?H3ERA__Base__ptr@@3HA     10033b84     majaczek.obj
 0003:00000b88       ?H3ERA__Entry__ptr@@3HA    10033b88     majaczek.obj
 0003:00000b8c       ?CrExpBonFileLoaded__ptr@@3HA 10033b8c     majaczek.obj
 0003:00000b90       ?UnloadTxtFun__ptr@@3HA    10033b90     majaczek.obj
 0003:00000b94       ?LoadTxtFun__ptr@@3HA      10033b94     majaczek.obj
 0003:00000b98       ?DalionType@@3HA           10033b98     Summon.obj
 0003:00000b9c       ?MakeSGGuards@@3P6GXPAE0H@ZA 10033b9c     Summon.obj
 0003:00000ba0       ?M2B_BFPos@@3PAY0BO@HA     10033ba0     Summon.obj
 0003:000010f8       ?WoG_CastSpell@@3P6AXHHHHH@ZA 100340f8     tables.obj
 0003:000010fc       ?BattleHex_GetMonAtBFPosition@@3JA 100340fc     tables.obj
 0003:00001100       ?only_infernals_can_be_gated@@3PADA 10034100     tables.obj
 0003:00001300       ?only_Machines_can_be_repaired@@3PADA 10034300     tables.obj
 0003:00001500       ?only_Undead_can_be_raised@@3PADA 10034500     tables.obj
 0003:00001700       ?BattleMgr_CreatureMagicResist@@3JA 10034700     tables.obj
 0003:00001704       ?BattleStack_GetSecondOccupedGexNum@@3JA 10034704     tables.obj
 0003:00001708       ?CanCastSpellAtCoord@@3JA  10034708     tables.obj
 0003:0000170c       ?BattleMgr_Play_MagicAnimation_onGEX@@3JA 1003470c     tables.obj
 0003:00001710       ?BattleMgr_CastSpell@@3JA  10034710     tables.obj
 0003:00001714       ?BattleMgr_ResurectArchangel@@3JA 10034714     tables.obj
 0003:00001718       ?Battle_Stack_Get_Resurrect_Count@@3JA 10034718     tables.obj
 0003:0000171c       ?BattleMgr_CanCast@@3JA    1003471c     tables.obj
 0003:00001720       ?zzz_0x27F996C@@3JA        10034720     tables.obj
 0003:00001724       ?zzz_0x887658@@3JA         10034724     tables.obj
 0003:00001728       ?zzz_F9964h@@3JA           10034728     tables.obj
 0003:0000172c       ?zzz_27F996Ch@@3JA         1003472c     tables.obj
 0003:00001730       ?zzz_27F9964h@@3JA         10034730     tables.obj
 0003:00001734       ?zzz_0x767f85@@3JA         10034734     tables.obj
 0003:00001738       ?h3era_Hero_HasArt@@3JA    10034738     tables.obj
 0003:0000173c       ?PlusLuckEngText@@3PADA    1003473c     tables.obj
 0003:00001740       ?lab_2846BC8@@3HA          10034740     tables.obj
 0003:00001744       ?ret_004482DC@@3HA         10034744     tables.obj
 0003:00001748       ?lab_5A0145@@3HA           10034748     tables.obj
 0003:0000174c       ?MakeSGGuards@@3HA         1003474c     tables.obj
 0003:00001750       ?PH_MonA@@3HA              10034750     tables.obj
 0003:00001754       ?PH_MonD@@3HA              10034754     tables.obj
 0003:00001758       ?_PersonalHate@@3HA        10034758     tables.obj
 0003:0000175c       ?default_elementals@@3PAJA 1003475c     tables.obj
 0003:0000176c       ?h3era_4E4950@@3JA         1003476c     tables.obj
 0003:00001770       ?spell_1_jumptable@@3PAKA  10034770     tables.obj
 0003:00001b70       ?spell_2_jumptable@@3PAKA  10034b70     tables.obj
 0003:00001f70       ?spell_3_jumptable@@3PAKA  10034f70     tables.obj
 0003:00002370       ?resistance_jumptable@@3PAKA 10035370     tables.obj
 0003:00002770       ?vulnerability_jumptable@@3PAKA 10035770     tables.obj
 0003:00002b70       ?missing_string@@3PADA     10035b70     tables.obj
 0003:00002d70       ?ImposedSpells_ptr@@3PADA  10035d70     tables.obj
 0003:00002d74       ?spell_1_table_ptr@@3HA    10035d74     tables.obj
 0003:00002d78       ?spell_2_table_ptr@@3HA    10035d78     tables.obj
 0003:00002d7c       ?spell_3_table_ptr@@3HA    10035d7c     tables.obj
 0003:00002d88       ?asm_patched@@3PAUreplace_byte@@A 10035d88     __assembly__.obj
 0003:00003080       ___security_cookie         10036080     LIBCMT:gs_cookie.obj
 0003:000030c0       ___security_cookie_complement 100360c0     LIBCMT:gs_cookie.obj
 0003:000030c4       __fltused                  100360c4     LIBCMT:fltused.obj
 0003:000030c8       ___scrt_native_dllmain_reason 100360c8     LIBCMT:utility.obj
 0003:000030d0       ___isa_enabled             100360d0     LIBCMT:cpu_disp.obj
 0003:000030f0       __NLG_Destination          100360f0     libvcruntime:exsup.obj
 0003:00003100       ___abort_behavior          10036100     libucrt:abort.obj
 0003:00003118       __iob                      10036118     libucrt:_file.obj
 0003:000031c8       ___acrt_initial_locale_data 100361c8     libucrt:nlsdata.obj
 0003:00003280       ___acrt_initial_locale_pointers 10036280     libucrt:nlsdata.obj
 0003:00003288       ___acrt_wide_c_locale_string 10036288     libucrt:nlsdata.obj
 0003:00003290       ___badioinfo               10036290     libucrt:ioinit.obj
 0003:000032c8       __lookuptrailbytes         100362c8     libucrt:read.obj
 0003:000033c8       ___acrt_initial_multibyte_data 100363c8     libucrt:mbctype.obj
 0003:000038e8       ___globallocalestatus      100368e8     libucrt:glstatus.obj
 0003:000038f0       ___acrt_lconv_c            100368f0     libucrt:localeconv.obj
 0003:00003940       ___acrt_lconv_static_decimal 10036940     libucrt:localeconv.obj
 0003:00003944       ___acrt_lconv_static_W_decimal 10036944     libucrt:localeconv.obj
 0003:00003960       ??_R0?AVexception@std@@@8  10036960     dllmain.obj
 0003:0000397c       ??_R0?AVbad_exception@std@@@8 1003697c     libvcruntime:frame.obj
 0003:0000399c       ??_R0?AVtype_info@@@8      1003699c     LIBCMT:std_type_info_static.obj
 0003:000039b8       ?CrState@@3PAU_CrState_@@A 100369b8     core.obj
 0003:0001c9b8       ?__dummy_int@@3HA          1004f9b8     core.obj
 0003:0001c9bc       ?tmp_missle_ret@@3HA       1004f9bc     core.obj
 0003:0001c9c0       ?new_monsters_back@@3PAUMONSTER_PROP@@A 1004f9c0     core.obj
 0003:000399c0       ?new_monsters@@3PAUMONSTER_PROP@@A 1006c9c0     core.obj
 0003:000569c0       ?new_cranim@@3PAUCRANIM@@A 100899c0     core.obj
 0003:0006b9c0       ?names@@3PAY0EA@DA         1009e9c0     core.obj
 0003:0007b9c0       ?names_pl@@3PAY0EA@DA      100ae9c0     core.obj
 0003:0008b9c0       ?descripts@@3PAY0BAA@DA    100be9c0     core.obj
 0003:000cb9c0       ?ptr_names@@3PAPADA        100fe9c0     core.obj
 0003:000cc9c0       ?ptr_names_pl@@3PAPADA     100ff9c0     core.obj
 0003:000cd9c0       ?ptr_descripts@@3PAPADA    101009c0     core.obj
 0003:000ce9c0       ?ptr_names_back@@3PAPADA   101019c0     core.obj
 0003:000cf9c0       ?ptr_names_pl_back@@3PAPADA 101029c0     core.obj
 0003:000d09c0       ?ptr_descripts_back@@3PAPADA 101039c0     core.obj
 0003:000d19c0       ?experience_0x00847f08_table@@3PADA 101049c0     core.obj
 0003:0012bec0       ?experience_0x0085EB50_table@@3PADA 1015eec0     core.obj
 0003:001313c0       ?fake_new_buffer@@3PAY0CAA@DA 101643c0     core.obj
 0003:001319c0       ?MonNames_Var@@3PAU_MonNames_@@A 101649c0     core.obj
 0003:001349c0       ?tmp_missile@@3PADA        101679c0     core.obj
 0003:001349d0       ?_OptionsStorage@?1??__local_stdio_printf_options@@9@4_KA 101679d0     core.obj
 0003:001349d8       ?EventParams@Era@@3PAY0BA@HA 101679d8     dllmain.obj
 0003:001349dc       ?ApiHook@Era@@3P6GPAXPAXH0@ZA 101679dc     dllmain.obj
 0003:001349e0       ?ClearAllIniCache@Era@@3P6GXXZA 101679e0     dllmain.obj
 0003:001349e4       ?ClearIniCache@Era@@3P6GXPBD@ZA 101679e4     dllmain.obj
 0003:001349e8       ?ExecErmCmd@Era@@3P6GXPBD@ZA 101679e8     dllmain.obj
 0003:001349ec       ?ExtractErm@Era@@3P6GXXZA  101679ec     dllmain.obj
 0003:001349f0       ?FatalError@Era@@3P6GXPBD@ZA 101679f0     dllmain.obj
 0003:001349f4       ?FireErmEvent@Era@@3P6GXH@ZA 101679f4     dllmain.obj
 0003:001349f8       ?FireEvent@Era@@3P6GXPBDPAXH@ZA 101679f8     dllmain.obj
 0003:001349fc       ?GetButtonID@Era@@3P6GHPBD@ZA 101679fc     dllmain.obj
 0003:00134a00       ?GetEraVersion@Era@@3P6GPBDXZA 10167a00     dllmain.obj
 0003:00134a04       ?GetGameState@Era@@3P6GXPAUTGameState@1@@ZA 10167a04     dllmain.obj
 0003:00134a08       ?GetRealAddr@Era@@3P6GPAXPAX@ZA 10167a08     dllmain.obj
 0003:00134a0c       ?GlobalRedirectFile@Era@@3P6GXXZA 10167a0c     dllmain.obj
 0003:00134a10       ?Hook@Era@@3P6GPAXPAXHH0@ZA 10167a10     dllmain.obj
 0003:00134a14       ?HookCode@Era@@3P6GPAXPAXP6GHPAUTHookContext@1@@ZPAPAX@ZA 10167a14     dllmain.obj
 0003:00134a18       ?LoadImageAsPcx16@Era@@3P6GPAXPBD0HHHHH@ZA 10167a18     dllmain.obj
 0003:00134a1c       ?LoadTxt@Era@@3P6GPAXPBD@ZA 10167a1c     dllmain.obj
 0003:00134a20       ?MemFree@Era@@3P6GXPBX@ZA  10167a20     dllmain.obj
 0003:00134a24       ?NameColor@Era@@3P6GXHPBD@ZA 10167a24     dllmain.obj
 0003:00134a28       ?NotifyError@Era@@3P6GXPBD@ZA 10167a28     dllmain.obj
 0003:00134a2c       ?PatchExists@Era@@3P6G_NPBD@ZA 10167a2c     dllmain.obj
 0003:00134a30       ?PluginExists@Era@@3P6G_NPBD@ZA 10167a30     dllmain.obj
 0003:00134a34       ?ReadSavegameSection@Era@@3P6GHHPAXPBD@ZA 10167a34     dllmain.obj
 0003:00134a38       ?ReadStrFromIni@Era@@3P6G_NPBD00PAD@ZA 10167a38     dllmain.obj
 0003:00134a3c       ?RecallAPI@Era@@3P6GHPAUTHookContext@1@H@ZA 10167a3c     dllmain.obj
 0003:00134a40       ?RedirectFile@Era@@3P6GXXZA 10167a40     dllmain.obj
 0003:00134a44       ?RedirectMemoryBlock@Era@@3P6GXPAXH0@ZA 10167a44     dllmain.obj
 0003:00134a48       ?RegisterHandler@Era@@3P6GXP6GXPAUTEvent@1@@ZPBD@ZA 10167a48     dllmain.obj
 0003:00134a4c       ?ReloadErm@Era@@3P6GXXZA   10167a4c     dllmain.obj
 0003:00134a50       ?ReportPluginVersion@Era@@3P6GXPBD@ZA 10167a50     dllmain.obj
 0003:00134a54       ?RestoreEventParams@Era@@3P6GXXZA 10167a54     dllmain.obj
 0003:00134a58       ?SaveEventParams@Era@@3P6GXXZA 10167a58     dllmain.obj
 0003:00134a5c       ?SaveIni@Era@@3P6G_NPBD@ZA 10167a5c     dllmain.obj
 0003:00134a60       ?Splice@Era@@3P6GPAXPAX0HHPAHPAPAX@ZA 10167a60     dllmain.obj
 0003:00134a64       ?_tr@Era@@3P6GPADPBDPAPBDH@ZA 10167a64     dllmain.obj
 0003:00134a68       ?WriteAtCode@Era@@3P6GXHPAX0@ZA 10167a68     dllmain.obj
 0003:00134a6c       ?WriteSavegameSection@Era@@3P6GXHPAXPBD@ZA 10167a6c     dllmain.obj
 0003:00134a70       ?WriteStrToIni@Era@@3P6G_NPBD000@ZA 10167a70     dllmain.obj
 0003:00134a74       ?hEra@Era@@3PAUHINSTANCE__@@A 10167a74     dllmain.obj
 0003:00134a78       ?hAngel@Era@@3PAUHINSTANCE__@@A 10167a78     dllmain.obj
 0003:00134a7c       ?all_creatures@@3HA        10167a7c     dllmain.obj
 0003:00134a80       ?conf_creatures@@3HA       10167a80     dllmain.obj
 0003:00134a84       ?save__new_monsters@@3_NA  10167a84     dllmain.obj
 0003:00134a85       ?DisableNecromancyFeatures@@3_NA 10167a85     dllmain.obj
 0003:00134a86       ?FilterNecromancyCreatures@@3_NA 10167a86     dllmain.obj
 0003:00134a88       ?globalPatcher@@3PAVPatcher@@A 10167a88     dllmain.obj
 0003:00134a8c       ?Z_Amethyst@@3PAVPatcherInstance@@A 10167a8c     dllmain.obj
 0003:00134a90       ?calls_count@?1??GetPatcher@@YAPAVPatcher@@XZ@4HA 10167a90     dllmain.obj
 0003:00134a98       ?default_names@@3PAY0EA@DA 10167a98     MiscCreatureHooks.obj
 0003:00144a98       ?default_names_pl@@3PAY0EA@DA 10177a98     MiscCreatureHooks.obj
 0003:00154a98       ?default_descripts@@3PAY0BAA@DA 10187a98     MiscCreatureHooks.obj
 0003:00194a98       ?SG_GuardsSet@@3HA         101c7a98     Summon.obj
 0003:00194a9c       ?Dalion_Stack@@3HA         101c7a9c     Summon.obj
 0003:00194aa0       ?SG_GuardsSetUp@@3PAU_SG_GuardsSetUp_@@A 101c7aa0     Summon.obj
 0003:00194d40       ?z_type@MakeMonGuards_proxy@@3HA 101c7d40     Summon.obj
 0003:00194d44       ?man@MakeMonGuards_proxy@@3PAEA 101c7d44     Summon.obj
 0003:00194d48       ?mon@MakeMonGuards_proxy@@3PAEA 101c7d48     Summon.obj
 0003:00194d4c       ?SG_stack@MakeMonGuards_proxy@@3HA 101c7d4c     Summon.obj
 0003:00194d50       ?Z_ESP@MakeMonGuards_proxy@@3HA 101c7d50     Summon.obj
 0003:00194d54       ?Z_EAX@MakeMonGuards_proxy@@3HA 101c7d54     Summon.obj
 0003:00194d78       ?Alternate_parameter_address_for_alternate_construction_dialog@@3JA 101c7d78     tables.obj
 0003:00194d7c       ?Stack_Stack_structure_Address@@3JA 101c7d7c     tables.obj
 0003:00194d80       ?Action_type_in_fight@@3JA 101c7d80     tables.obj
 0003:00194d84       ?Address_of_stack_structure_to_which_action@@3JA 101c7d84     tables.obj
 0003:00194d88       ?Stack_structure_address_to_which_action_directed@@3JA 101c7d88     tables.obj
 0003:00194d8c       ?fix_hp_overflow_tmp@@3JA  101c7d8c     tables.obj
 0003:00194d90       ?last_action@@3JA          101c7d90     tables.obj
 0003:00194d94       ?last_target@@3JA          101c7d94     tables.obj
 0003:00194d98       ?last_current_mon@@3JA     101c7d98     tables.obj
 0003:00194d9c       ?last_source_type@@3JA     101c7d9c     tables.obj
 0003:00194da0       ?before_mon@@3JA           101c7da0     tables.obj
 0003:00194da4       ?before_action@@3JA        101c7da4     tables.obj
 0003:00194da8       ?last_target_pos@@3JA      101c7da8     tables.obj
 0003:00194dac       ?before_target_pos@@3JA    101c7dac     tables.obj
 0003:00194db0       ?rebirth_temp@@3KA         101c7db0     tables.obj
 0003:00194db4       ?RTD2_Temp1@@3FA           101c7db4     tables.obj
 0003:00194db6       ?ShootingAdjacent_return@@3DA 101c7db6     tables.obj
 0003:00194db8       ?RTD2_Temp2@@3JA           101c7db8     tables.obj
 0003:00194dbc       ?ShootingAdjacent_temp@@3HA 101c7dbc     tables.obj
 0003:00194dc0       ?StrikeAndReturn_temp@@3JA 101c7dc0     tables.obj
 0003:00194dc4       ?StrikeAndReturn3_temp@@3JA 101c7dc4     tables.obj
 0003:00194dc8       ?CounterStrike_temp@@3JA   101c7dc8     tables.obj
 0003:00194dcc       ?f_75D2BB_temp@@3KA        101c7dcc     tables.obj
 0003:00194dd0       ?last_ghost@@3JA           101c7dd0     tables.obj
 0003:00194dd4       ?amtype@@3HA               101c7dd4     tables.obj
 0003:00194dd8       ?amflags@@3HA              101c7dd8     tables.obj
 0003:00194ddc       ?dmtype@@3HA               101c7ddc     tables.obj
 0003:00194de0       ?dmflags@@3HA              101c7de0     tables.obj
 0003:00194de4       ?dmpos@@3HA                101c7de4     tables.obj
 0003:00194de8       ?hate_percent@@3HA         101c7de8     tables.obj
 0003:00194dec       ?Spell_1_mode_exact_expert_ebx@@3JA 101c7dec     tables.obj
 0003:00194df0       ?Spell_1_mode_exact_ebx@@3JA 101c7df0     tables.obj
 0003:00194df4       ?Spell_1_mode_exact_twice_ebx@@3JA 101c7df4     tables.obj
 0003:00194df8       ?Spell_1_mode_elemental_ebx@@3JA 101c7df8     tables.obj
 0003:00194dfc       ?Spell_1_mode_rush_ebx@@3JA 101c7dfc     tables.obj
 0003:00194e00       ?Spell_1_mode_rush_ecx@@3JA 101c7e00     tables.obj
 0003:00194e04       ?Spell_1_mode_rush_edx@@3JA 101c7e04     tables.obj
 0003:00194e08       ?Spell_1_mode_Dragon_Will_ebx@@3JA 101c7e08     tables.obj
 0003:00194e0c       ?Spell_1_mode_Dragon_Will_ecx@@3JA 101c7e0c     tables.obj
 0003:00194e10       ?Spell_1_mode_Dragon_Will_edx@@3JA 101c7e10     tables.obj
 0003:00194e14       ?demonolgy_Temp1@@3KA      101c7e14     tables.obj
 0003:00194e18       ?GhostMultiplyer_028460f8@@3PAKA 101c7e18     tables.obj
 0003:00195f18       ?CreatureSpellPowerMultiplier@@3PAKA 101c8f18     tables.obj
 0003:00197018       ?CreatureSpellPowerDivider@@3PAKA 101ca018     tables.obj
 0003:00198118       ?CreatureSpellPowerAdder@@3PAKA 101cb118     tables.obj
 0003:00199218       ?CreatureSpellPowerScaled@@3PADA 101cc218     tables.obj
 0003:00199658       ?CreatureMimicArtifact@@3PAKA 101cc658     tables.obj
 0003:0019a758       ?CreatureMimicArtifact2@@3PAKA 101cd758     tables.obj
 0003:0019b858       ?addditional_moves@@3PAEA  101ce858     tables.obj
 0003:0019b884       ?addditional_shots@@3PAEA  101ce884     tables.obj
 0003:0019b8b0       ?addditional_melees@@3PAEA 101ce8b0     tables.obj
 0003:0019b8e0       ?Spell_Immunities@@3PAY0BA@DA 101ce8e0     tables.obj
 0003:0019fce0       ?RegenerationHitPoints_Table@@3PAKA 101d2ce0     tables.obj
 0003:001a0de0       ?RegenerationChance_Table@@3PADA 101d3de0     tables.obj
 0003:001a1220       ?ManaDrain_Table@@3PAGA    101d4220     tables.obj
 0003:001a1aa0       ?SpellsCostDump_Table@@3PADA 101d4aa0     tables.obj
 0003:001a1ee0       ?SpellsCostLess_Table@@3PADA 101d4ee0     tables.obj
 0003:001a2320       ?Counterstrike_Table@@3PADA 101d5320     tables.obj
 0003:001a2760       ?AlwaysPositiveMorale_Table@@3PADA 101d5760     tables.obj
 0003:001a2ba0       ?AlwaysPositiveLuck_Table@@3PADA 101d5ba0     tables.obj
 0003:001a2fe0       ?ThreeHeadedAttack_Table@@3PADA 101d5fe0     tables.obj
 0003:001a3420       ?DeathBlow_Table@@3PADA    101d6420     tables.obj
 0003:001a3860       ?Fear_Table@@3PADA         101d6860     tables.obj
 0003:001a3ca0       ?Fearless_Table@@3PADA     101d6ca0     tables.obj
 0003:001a40e0       ?NoWallPenalty_Table@@3PADA 101d70e0     tables.obj
 0003:001a4520       ?MagicAura_Table@@3PADA    101d7520     tables.obj
 0003:001a4960       ?StrikeAndReturn_Table@@3PADA 101d7960     tables.obj
 0003:001a4da0       ?Spells_Table@@3PADA       101d7da0     tables.obj
 0003:001a51e0       ?Hate_Table@@3PADA         101d81e0     tables.obj
 0003:001a5620       ?JoustingBonus_Table@@3PADA 101d8620     tables.obj
 0003:001a5a60       ?ImmunToJoustingBonus_Table@@3PADA 101d8a60     tables.obj
 0003:001a5ea0       ?MagicChannel_Table@@3PADA 101d8ea0     tables.obj
 0003:001a62e0       ?MagicMirror_Table@@3PADA  101d92e0     tables.obj
 0003:001a6720       ?Sharpshooters_Table@@3PADA 101d9720     tables.obj
 0003:001a6b60       ?ShootingAdjacent_Table@@3PADA 101d9b60     tables.obj
 0003:001a6fa0       ?ReduceTargetDefense_Table@@3PADA 101d9fa0     tables.obj
 0003:001a73e0       ?Demonology_Table@@3PAGA   101da3e0     tables.obj
 0003:001a7c60       ?ImposedSpells_Table@@3PAY05DA 101dac60     tables.obj
 0003:001a95e0       ?PreventiveCounterstrikeTable@@3PADA 101dc5e0     tables.obj
 0003:001a9a20       ?RangeRetaliation_Table@@3PADA 101dca20     tables.obj
 0003:001a9e60       ?PersonalHate@@3PAY0EAA@KA 101dce60     tables.obj
 0003:005e9e60       ?isDragonSlayer_Table@@3PADA 1061ce60     tables.obj
 0003:005ea2a0       ?isFaerieDragon_Table@@3PADA 1061d2a0     tables.obj
 0003:005ea6e0       ?isAimedCaster_Table@@3PADA 1061d6e0     tables.obj
 0003:005eab20       ?isAmmoCart_Table@@3PADA   1061db20     tables.obj
 0003:005eaf60       ?isPassive_Table@@3PADA    1061df60     tables.obj
 0003:005eb3a0       ?isTeleporter@@3PADA       1061e3a0     tables.obj
 0003:005eb7e0       ?Necromancy_without_artifacts@@3PAKA 1061e7e0     tables.obj
 0003:005eb820       ?Necromancy_with_artifacts@@3PAKA 1061e820     tables.obj
 0003:005eb860       ?hasSantaGuards@@3PADA     1061e860     tables.obj
 0003:005ebca0       ?DalionsGuards@@3PAKA      1061eca0     tables.obj
 0003:005ecda0       ?ghost_fraction@@3PAMA     1061fda0     tables.obj
 0003:005edea0       ?isGhost@@3PADA            10620ea0     tables.obj
 0003:005ee2e0       ?isRogue@@3PADA            106212e0     tables.obj
 0003:005ee720       ?isEnchanter@@3PADA        10621720     tables.obj
 0003:005eeb60       ?isSorceress@@3PADA        10621b60     tables.obj
 0003:005eefa0       ?FireWall_Table@@3PADA     10621fa0     tables.obj
 0003:005ef3e0       ?isHellSteed@@3PADA        106223e0     tables.obj
 0003:005ef820       ?isHellSteed2@@3PADA       10622820     tables.obj
 0003:005efc60       ?isHellSteed3@@3PADA       10622c60     tables.obj
 0003:005f00a0       ?NoGolemOverflow@@3PADA    106230a0     tables.obj
 0003:005f04e0       ?isDragonResistant@@3PADA  106234e0     tables.obj
 0003:005f0920       ?isHellHydra@@3PADA        10623920     tables.obj
 0003:005f0d60       ?MovesTwice_Table@@3PADA   10623d60     tables.obj
 0003:005f11a0       ?Receptive_Table@@3PADA    106241a0     tables.obj
 0003:005f15e0       ?isLord_Table@@3PADA       106245e0     tables.obj
 0003:005f1a20       ?isHeroic_Table@@3PADA     10624a20     tables.obj
 0003:005f1e60       ?SharedStats@@3PAPADA      10624e60     tables.obj
 0003:005f2f60       ?aftercast_abilities_table@@3PADA 10625f60     tables.obj
 0003:005f33a0       ?poison_table@@3PAJA       106263a0     tables.obj
 0003:005f44a0       ?aging_table@@3PAJA        106274a0     tables.obj
 0003:005f55a0       ?paralyze_table@@3PAJA     106285a0     tables.obj
 0003:005f66a0       ?paralyze_chance@@3PAJA    106296a0     tables.obj
 0003:005f77a0       ?attack_abilities_table@@3PADA 1062a7a0     tables.obj
 0003:005f7be0       ?magic_resistance_table@@3PADA 1062abe0     tables.obj
 0003:005f8020       ?magic_vulnerability_table@@3PADA 1062b020     tables.obj
 0003:005f8460       ?missiles_table@@3PADA     1062b460     tables.obj
 0003:005f88a0       ?spell_1_table@@3PADA      1062b8a0     tables.obj
 0003:005f8ca0       ?spell_2_table@@3PADA      1062bca0     tables.obj
 0003:005f90a0       ?spell_3_table@@3PADA      1062c0a0     tables.obj
 0003:005f94a0       ?skeltrans@@3PAHA          1062c4a0     tables.obj
 0003:005fa4a0       ?upgtable@@3PAHA           1062d4a0     tables.obj
 0003:005fb4a0       ?special_missiles_table@@3PADA 1062e4a0     tables.obj
 0003:005fb8e0       ?fire_shield_table@@3PAMA  1062e8e0     tables.obj
 0003:005fc9e0       ?respawn_table_chance@@3PAMA 1062f9e0     tables.obj
 0003:005fdae0       ?respawn_table_fraction@@3PAMA 10630ae0     tables.obj
 0003:005febe0       ?respawn_table_sure@@3PAMA 10631be0     tables.obj
 0003:005ffce0       ?resource_type_table@@3PADA 10632ce0     tables.obj
 0003:006000e0       ?resource_amount_table@@3PAKA 106330e0     tables.obj
 0003:006010e0       ?resource_tax_table@@3PAKA 106340e0     tables.obj
 0003:006020e0       ?isConstruct_Table@@3PADA  106350e0     tables.obj
 0003:00602520       ?Monster_Ban_Table@@3PADA  10635520     tables.obj
 0003:00602920       ?after_wound__spell@@3PAHA 10635920     tables.obj
 0003:00603a20       ?after_melee__spell@@3PAHA 10636a20     tables.obj
 0003:00604b20       ?after_shoot__spell@@3PAHA 10637b20     tables.obj
 0003:00605c20       ?after_defend_spell@@3PAHA 10638c20     tables.obj
 0003:00606d20       ?after_action_spell_mastery@@3PADA 10639d20     tables.obj
 0003:00607160       ?after_wound__spell2@@3PAHA 1063a160     tables.obj
 0003:00608260       ?after_melee__spell2@@3PAHA 1063b260     tables.obj
 0003:00609360       ?after_shoot__spell2@@3PAHA 1063c360     tables.obj
 0003:0060a460       ?after_defend_spell2@@3PAHA 1063d460     tables.obj
 0003:0060b560       ?shooting_resistance@@3PAMA 1063e560     tables.obj
 0003:0060c660       ?melee_resistance@@3PAMA   1063f660     tables.obj
 0003:0060d760       ?mana_regen_table@@3PAMA   10640760     tables.obj
 0003:0060e870       ?_OptionsStorage@?1??__local_stdio_scanf_options@@9@4_KA 10641870     tables.obj
 0003:0060e878       ?asm_not_patched@@3PAUreplace_byte@@A 10641878     __assembly__.obj
 0003:0060ef90       ?__type_info_root_node@@3U__type_info_node@@A 10641f90     LIBCMT:tncleanup.obj
 0003:0060ef98       ___scrt_current_native_startup_state 10641f98     LIBCMT:utility.obj
 0003:0060ef9c       ___scrt_native_startup_lock 10641f9c     LIBCMT:utility.obj
 0003:0060efbc       ___scrt_debugger_hook_flag 10641fbc     LIBCMT:utility_desktop.obj
 0003:0060efc0       ___isa_available           10641fc0     LIBCMT:cpu_disp.obj
 0003:0060efc4       ___favor                   10641fc4     LIBCMT:cpu_disp.obj
 0003:0060efc8       ?__WinRTOutOfMemoryExceptionCallback@@3P6GPAXXZA 10641fc8     libvcruntime:ehhelpers.obj
 0003:0060eff4       ?pArgList@UnDecorator@@0PAVReplicator@@A 10641ff4     libvcruntime:undname.obj
 0003:0060eff8       ?pZNameList@UnDecorator@@0PAVReplicator@@A 10641ff8     libvcruntime:undname.obj
 0003:0060effc       ?pTemplateArgList@UnDecorator@@0PAVReplicator@@A 10641ffc     libvcruntime:undname.obj
 0003:0060f000       ?gName@UnDecorator@@0PBDB  10642000     libvcruntime:undname.obj
 0003:0060f004       ?name@UnDecorator@@0PBDB   10642004     libvcruntime:undname.obj
 0003:0060f008       ?disableFlags@UnDecorator@@0KA 10642008     libvcruntime:undname.obj
 0003:0060f00c       ?fExplicitTemplateParams@UnDecorator@@0_NA 1064200c     libvcruntime:undname.obj
 0003:0060f00d       ?fGetTemplateArgumentList@UnDecorator@@0_NA 1064200d     libvcruntime:undname.obj
 0003:0060f010       ?m_pGetParameter@UnDecorator@@0P6APADJ@ZA 10642010     libvcruntime:undname.obj
 0003:0060f014       ?m_CHPENameOffset@UnDecorator@@0KA 10642014     libvcruntime:undname.obj
 0003:0060f018       ?m_recursionLevel@UnDecorator@@0KA 10642018     libvcruntime:undname.obj
 0003:0060f06c       ___pPurecall               1064206c     libvcruntime:purevirt_data.obj
 0003:0060f080       ?c_exit_complete@?1???R<lambda_6e4b09c48022b2350581041d5f6b0c4c>@@QBE@XZ@4_NA 10642080     libucrt:exit.obj
 0003:0060f190       __environ_table            10642190     libucrt:environment_initialization.obj
 0003:0060f194       __wenviron_table           10642194     libucrt:environment_initialization.obj
 0003:0060f198       ___dcrt_initial_wide_environment 10642198     libucrt:environment_initialization.obj
 0003:0060f19c       ___dcrt_initial_narrow_environment 1064219c     libucrt:environment_initialization.obj
 0003:0060f1a0       ___acrt_atexit_table       106421a0     libucrt:onexit.obj
 0003:0060f1ac       ___acrt_at_quick_exit_table 106421ac     libucrt:onexit.obj
 0003:0060f1c0       __nstream                  106421c0     libucrt:_file.obj
 0003:0060f1c4       ___piob                    106421c4     libucrt:_file.obj
 0003:0060f1c8       __cflush                   106421c8     libucrt:_file.obj
 0003:0060f1d0       ___acrt_stdout_buffer      106421d0     libucrt:_sftbuf.obj
 0003:0060f1d4       ___acrt_stderr_buffer      106421d4     libucrt:_sftbuf.obj
 0003:0060f1d8       ___acrt_locale_changed_data 106421d8     libucrt:wsetlocale.obj
 0003:0060f1dc       ___acrt_current_locale_data 106421dc     libucrt:nlsdata.obj
 0003:0060f1e0       ___pioinfo                 106421e0     libucrt:ioinit.obj
 0003:0060f3e0       __nhandle                  106423e0     libucrt:ioinit.obj
 0003:0060f614       __mbctype                  10642614     libucrt:mbctype.obj
 0003:0060f618       __mbcasemap                10642618     libucrt:mbctype.obj
 0003:0060f61c       ___acrt_current_multibyte_data 1064261c     libucrt:mbctype.obj
 0003:0060f628       __pgmptr                   10642628     libucrt:argv_data.obj
 0003:0060f62c       ___argc                    1064262c     libucrt:argv_data.obj
 0003:0060f630       ___argv                    10642630     libucrt:argv_data.obj
 0003:0060f634       ___wargv                   10642634     libucrt:argv_data.obj
 0003:0060f638       __acmdln                   10642638     libucrt:argv_data.obj
 0003:0060f63c       __wcmdln                   1064263c     libucrt:argv_data.obj
 0003:0060f640       ___acrt_heap               10642640     libucrt:heap_handle.obj
 0003:0060f65c       ___acrt_lconv_static_null  1064265c     libucrt:localeconv.obj
 0003:0060f660       ___acrt_lconv_static_W_null 10642660     libucrt:localeconv.obj
 0003:0060f664       __commode                  10642664     libucrt:ncommode.obj
 0003:0060f674       __umaskval                 10642674     libucrt:umask.obj
 0003:0060f678       ___fastflag                10642678     libucrt:fp_flags.obj
 0003:0060f680       __fmode                    10642680     libucrt:txtmode.obj
 0003:0060f684       ___scrt_ucrt_dll_is_in_use 10642684     <common>
 0003:0060f688       ___dyn_tls_init_callback   10642688     <common>
 0003:0060f68c       __pmatherr                 1064268c     <common>
 0003:0060f690       ___use_sse2_mathfcns       10642690     <common>

 entry point at        0001:0000cd0b

 Static symbols

 0000:ff9b6000       .debug$S                   10000000     amethyst2_4.exp
 0000:ff9b6000       .debug$S                   10000000     kernel32:KERNEL32.dll
 0000:ff9b6000       .debug$S                   10000000     kernel32:KERNEL32.dll
 0000:ff9b6000       .debug$S                   10000000     kernel32:KERNEL32.dll
 0000:ff9b6000       .debug$S                   10000000     kernel32:KERNEL32.dll
 0000:ff9b6000       .debug$S                   10000000     kernel32:KERNEL32.dll
 0000:ff9b6000       .debug$S                   10000000     kernel32:KERNEL32.dll
 0000:ff9b6000       .debug$S                   10000000     kernel32:KERNEL32.dll
 0000:ff9b6000       .debug$S                   10000000     kernel32:KERNEL32.dll
 0000:ff9b6000       .debug$S                   10000000     kernel32:KERNEL32.dll
 0000:ff9b6000       .debug$S                   10000000     kernel32:KERNEL32.dll
 0000:ff9b6000       .debug$S                   10000000     kernel32:KERNEL32.dll
 0000:ff9b6000       .debug$S                   10000000     kernel32:KERNEL32.dll
 0000:ff9b6000       .debug$S                   10000000     kernel32:KERNEL32.dll
 0000:ff9b6000       .debug$S                   10000000     kernel32:KERNEL32.dll
 0000:ff9b6000       .debug$S                   10000000     kernel32:KERNEL32.dll
 0000:ff9b6000       .debug$S                   10000000     kernel32:KERNEL32.dll
 0000:ff9b6000       .debug$S                   10000000     kernel32:KERNEL32.dll
 0000:ff9b6000       .debug$S                   10000000     kernel32:KERNEL32.dll
 0000:ff9b6000       .debug$S                   10000000     kernel32:KERNEL32.dll
 0000:ff9b6000       .debug$S                   10000000     kernel32:KERNEL32.dll
 0000:ff9b6000       .debug$S                   10000000     kernel32:KERNEL32.dll
 0000:ff9b6000       .debug$S                   10000000     kernel32:KERNEL32.dll
 0000:ff9b6000       .debug$S                   10000000     kernel32:KERNEL32.dll
 0000:ff9b6000       .debug$S                   10000000     kernel32:KERNEL32.dll
 0000:ff9b6000       .debug$S                   10000000     kernel32:KERNEL32.dll
 0000:ff9b6000       .debug$S                   10000000     kernel32:KERNEL32.dll
 0000:ff9b6000       .debug$S                   10000000     kernel32:KERNEL32.dll
 0000:ff9b6000       .debug$S                   10000000     kernel32:KERNEL32.dll
 0000:ff9b6000       .debug$S                   10000000     kernel32:KERNEL32.dll
 0000:ff9b6000       .debug$S                   10000000     kernel32:KERNEL32.dll
 0000:ff9b6000       .debug$S                   10000000     kernel32:KERNEL32.dll
 0000:ff9b6000       .debug$S                   10000000     kernel32:KERNEL32.dll
 0000:ff9b6000       .debug$S                   10000000     kernel32:KERNEL32.dll
 0000:ff9b6000       .debug$S                   10000000     kernel32:KERNEL32.dll
 0000:ff9b6000       .debug$S                   10000000     kernel32:KERNEL32.dll
 0000:ff9b6000       .debug$S                   10000000     kernel32:KERNEL32.dll
 0000:ff9b6000       .debug$S                   10000000     kernel32:KERNEL32.dll
 0000:ff9b6000       .debug$S                   10000000     kernel32:KERNEL32.dll
 0000:ff9b6000       .debug$S                   10000000     kernel32:KERNEL32.dll
 0000:ff9b6000       .debug$S                   10000000     kernel32:KERNEL32.dll
 0000:ff9b6000       .debug$S                   10000000     kernel32:KERNEL32.dll
 0000:ff9b6000       .debug$S                   10000000     kernel32:KERNEL32.dll
 0000:ff9b6000       .debug$S                   10000000     kernel32:KERNEL32.dll
 0000:ff9b6000       .debug$S                   10000000     kernel32:KERNEL32.dll
 0000:ff9b6000       .debug$S                   10000000     kernel32:KERNEL32.dll
 0000:ff9b6000       .debug$S                   10000000     kernel32:KERNEL32.dll
 0000:ff9b6000       .debug$S                   10000000     kernel32:KERNEL32.dll
 0000:ff9b6000       .debug$S                   10000000     kernel32:KERNEL32.dll
 0000:ff9b6000       .debug$S                   10000000     kernel32:KERNEL32.dll
 0000:ff9b6000       .debug$S                   10000000     kernel32:KERNEL32.dll
 0000:ff9b6000       .debug$S                   10000000     kernel32:KERNEL32.dll
 0000:ff9b6000       .debug$S                   10000000     kernel32:KERNEL32.dll
 0000:ff9b6000       .debug$S                   10000000     kernel32:KERNEL32.dll
 0000:ff9b6000       .debug$S                   10000000     kernel32:KERNEL32.dll
 0000:ff9b6000       .debug$S                   10000000     kernel32:KERNEL32.dll
 0000:ff9b6000       .debug$S                   10000000     kernel32:KERNEL32.dll
 0000:ff9b6000       .debug$S                   10000000     kernel32:KERNEL32.dll
 0000:ff9b6000       .debug$S                   10000000     kernel32:KERNEL32.dll
 0000:ff9b6000       .debug$S                   10000000     kernel32:KERNEL32.dll
 0000:ff9b6000       .debug$S                   10000000     kernel32:KERNEL32.dll
 0000:ff9b6000       .debug$S                   10000000     kernel32:KERNEL32.dll
 0000:ff9b6000       .debug$S                   10000000     kernel32:KERNEL32.dll
 0000:ff9b6000       .debug$S                   10000000     kernel32:KERNEL32.dll
 0000:ff9b6000       .debug$S                   10000000     kernel32:KERNEL32.dll
 0000:ff9b6000       .debug$S                   10000000     kernel32:KERNEL32.dll
 0000:ff9b6000       .debug$S                   10000000     kernel32:KERNEL32.dll
 0000:ff9b6000       .debug$S                   10000000     kernel32:KERNEL32.dll
 0000:ff9b6000       .debug$S                   10000000     kernel32:KERNEL32.dll
 0000:ff9b6000       .debug$S                   10000000     kernel32:KERNEL32.dll
 0000:ff9b6000       .debug$S                   10000000     kernel32:KERNEL32.dll
 0000:ff9b6000       .debug$S                   10000000     kernel32:KERNEL32.dll
 0000:ff9b6000       .debug$S                   10000000     kernel32:KERNEL32.dll
 0000:ff9b6000       .debug$S                   10000000     kernel32:KERNEL32.dll
 0000:ff9b6000       .debug$S                   10000000     kernel32:KERNEL32.dll
 0000:ff9b6000       .debug$S                   10000000     kernel32:KERNEL32.dll
 0000:ff9b6000       .debug$S                   10000000     kernel32:KERNEL32.dll
 0000:ff9b6000       .debug$S                   10000000     kernel32:KERNEL32.dll
 0000:ff9b6000       .debug$S                   10000000     kernel32:KERNEL32.dll
 0000:ff9b6000       .debug$S                   10000000     kernel32:KERNEL32.dll
 0000:ff9b6000       .debug$S                   10000000     kernel32:KERNEL32.dll
 0000:ff9b6000       .debug$S                   10000000     kernel32:KERNEL32.dll
 0000:ff9b6000       .debug$S                   10000000     kernel32:KERNEL32.dll
 0000:ff9b6000       .debug$S                   10000000     kernel32:KERNEL32.dll
 0000:ff9b6000       .debug$S                   10000000     kernel32:KERNEL32.dll
 0000:ff9b6000       .debug$S                   10000000     kernel32:KERNEL32.dll
 0000:ff9b6000       .debug$S                   10000000     kernel32:KERNEL32.dll
 0000:ff9b6000       .debug$S                   10000000     kernel32:KERNEL32.dll
 0000:ff9b6000       .debug$S                   10000000     kernel32:KERNEL32.dll
 0000:ff9b6000       .debug$S                   10000000     user32:USER32.dll
 0001:00000000       ??__Ereplace_CrState@@YAXXZ 10001000 f   core.obj
 0001:00004ab4       $LN44                      10005ab4     tables.obj
 0001:00004ac8       $LN43                      10005ac8     tables.obj
 0001:00008c4c       $LN67                      10009c4c     tables.obj
 0001:00008ca0       $LN66                      10009ca0     tables.obj
 0001:0000c9cb       ?dllmain_crt_dispatch@@YGHQAUHINSTANCE__@@KQAX@Z 1000d9cb f   LIBCMT:dll_dllmain.obj
 0001:0000ca1e       ?dllmain_crt_process_attach@@YAHQAUHINSTANCE__@@QAX@Z 1000da1e f   LIBCMT:dll_dllmain.obj
 0001:0000cb25       ?dllmain_crt_process_detach@@YAH_N@Z 1000db25 f   LIBCMT:dll_dllmain.obj
 0001:0000cbd5       ?dllmain_dispatch@@YAHQAUHINSTANCE__@@KQAX@Z 1000dbd5 f   LIBCMT:dll_dllmain.obj
 0001:0000cce0       ?dllmain_raw@@YGHQAUHINSTANCE__@@KQAX@Z 1000dce0 f   LIBCMT:dll_dllmain.obj
 0001:0000cd33       ___get_entropy             1000dd33 f   LIBCMT:gs_support.obj
 0001:0000ce00       ?find_pe_section@@YAPAU_IMAGE_SECTION_HEADER@@QAEI@Z 1000de00 f   LIBCMT:utility.obj
 0001:0000d260       $$000000                   1000e260     LIBCMT:sehprolg4.obj
 0001:0000d490       $$000000                   1000e490     libvcruntime:memcpy.obj
 0001:0000d490       $$000000                   1000e490     libvcruntime:memmove.obj
 0001:0000d4b0       CopyUp                     1000e4b0     libvcruntime:memcpy.obj
 0001:0000d4b0       CopyUp                     1000e4b0     libvcruntime:memmove.obj
 0001:0000d4d4       CopyUpLargeMov             1000e4d4     libvcruntime:memcpy.obj
 0001:0000d4d4       CopyUpLargeMov             1000e4d4     libvcruntime:memmove.obj
 0001:0000d4e7       CopyUpSSE2Check            1000e4e7     libvcruntime:memcpy.obj
 0001:0000d4e7       CopyUpSSE2Check            1000e4e7     libvcruntime:memmove.obj
 0001:0000d500       AtomChk                    1000e500     libvcruntime:memcpy.obj
 0001:0000d500       AtomChk                    1000e500     libvcruntime:memmove.obj
 0001:0000d526       PalignHead4                1000e526     libvcruntime:memcpy.obj
 0001:0000d526       PalignHead4                1000e526     libvcruntime:memmove.obj
 0001:0000d539       PalignHead8                1000e539     libvcruntime:memcpy.obj
 0001:0000d539       PalignHead8                1000e539     libvcruntime:memmove.obj
 0001:0000d550       PalignLoop                 1000e550     libvcruntime:memcpy.obj
 0001:0000d550       PalignLoop                 1000e550     libvcruntime:memmove.obj
 0001:0000d562       MovPalign12                1000e562     libvcruntime:memcpy.obj
 0001:0000d562       MovPalign12                1000e562     libvcruntime:memmove.obj
 0001:0000d56c       PalignLoop12               1000e56c     libvcruntime:memcpy.obj
 0001:0000d56c       PalignLoop12               1000e56c     libvcruntime:memmove.obj
 0001:0000d5bd       MovPalign8                 1000e5bd     libvcruntime:memcpy.obj
 0001:0000d5bd       MovPalign8                 1000e5bd     libvcruntime:memmove.obj
 0001:0000d5c8       PalignLoop8                1000e5c8     libvcruntime:memcpy.obj
 0001:0000d5c8       PalignLoop8                1000e5c8     libvcruntime:memmove.obj
 0001:0000d616       MovPalign4                 1000e616     libvcruntime:memcpy.obj
 0001:0000d616       MovPalign4                 1000e616     libvcruntime:memmove.obj
 0001:0000d620       PalignLoop4                1000e620     libvcruntime:memcpy.obj
 0001:0000d620       PalignLoop4                1000e620     libvcruntime:memmove.obj
 0001:0000d66c       PalignTail                 1000e66c     libvcruntime:memcpy.obj
 0001:0000d66c       PalignTail                 1000e66c     libvcruntime:memmove.obj
 0001:0000d684       PalignTail4                1000e684     libvcruntime:memcpy.obj
 0001:0000d684       PalignTail4                1000e684     libvcruntime:memmove.obj
 0001:0000d697       PalignTail8                1000e697     libvcruntime:memcpy.obj
 0001:0000d697       PalignTail8                1000e697     libvcruntime:memmove.obj
 0001:0000d6ae       PalignTailLE3              1000e6ae     libvcruntime:memcpy.obj
 0001:0000d6ae       PalignTailLE3              1000e6ae     libvcruntime:memmove.obj
 0001:0000d6b7       Dword_align                1000e6b7     libvcruntime:memcpy.obj
 0001:0000d6b7       Dword_align                1000e6b7     libvcruntime:memmove.obj
 0001:0000d6bf       Dword_up_align_loop        1000e6bf     libvcruntime:memcpy.obj
 0001:0000d6bf       Dword_up_align_loop        1000e6bf     libvcruntime:memmove.obj
 0001:0000d6d2       Dword_align_Ok             1000e6d2     libvcruntime:memcpy.obj
 0001:0000d6d2       Dword_align_Ok             1000e6d2     libvcruntime:memmove.obj
 0001:0000d6ec       ByteCopyUp                 1000e6ec     libvcruntime:memcpy.obj
 0001:0000d6ec       ByteCopyUp                 1000e6ec     libvcruntime:memmove.obj
 0001:0000d6f4       TrailingUpVec              1000e6f4     libvcruntime:memcpy.obj
 0001:0000d6f4       TrailingUpVec              1000e6f4     libvcruntime:memmove.obj
 0001:0000d704       TrailingUp0                1000e704     libvcruntime:memcpy.obj
 0001:0000d704       TrailingUp0                1000e704     libvcruntime:memmove.obj
 0001:0000d70c       TrailingUp1                1000e70c     libvcruntime:memcpy.obj
 0001:0000d70c       TrailingUp1                1000e70c     libvcruntime:memmove.obj
 0001:0000d718       TrailingUp2                1000e718     libvcruntime:memcpy.obj
 0001:0000d718       TrailingUp2                1000e718     libvcruntime:memmove.obj
 0001:0000d72c       TrailingUp3                1000e72c     libvcruntime:memcpy.obj
 0001:0000d72c       TrailingUp3                1000e72c     libvcruntime:memmove.obj
 0001:0000d744       CopyDown                   1000e744     libvcruntime:memcpy.obj
 0001:0000d744       CopyDown                   1000e744     libvcruntime:memmove.obj
 0001:0000d769       CopyDownNotAligned         1000e769     libvcruntime:memcpy.obj
 0001:0000d769       CopyDownNotAligned         1000e769     libvcruntime:memmove.obj
 0001:0000d770       CopyDownAlignLoop          1000e770     libvcruntime:memcpy.obj
 0001:0000d770       CopyDownAlignLoop          1000e770     libvcruntime:memmove.obj
 0001:0000d77d       CopyDownAligned            1000e77d     libvcruntime:memcpy.obj
 0001:0000d77d       CopyDownAligned            1000e77d     libvcruntime:memmove.obj
 0001:0000d7a0       TrailingDownVec            1000e7a0     libvcruntime:memcpy.obj
 0001:0000d7a0       TrailingDownVec            1000e7a0     libvcruntime:memmove.obj
 0001:0000d7b0       TrailingDown0              1000e7b0     libvcruntime:memcpy.obj
 0001:0000d7b0       TrailingDown0              1000e7b0     libvcruntime:memmove.obj
 0001:0000d7b8       TrailingDown1              1000e7b8     libvcruntime:memcpy.obj
 0001:0000d7b8       TrailingDown1              1000e7b8     libvcruntime:memmove.obj
 0001:0000d7c8       TrailingDown2              1000e7c8     libvcruntime:memcpy.obj
 0001:0000d7c8       TrailingDown2              1000e7c8     libvcruntime:memmove.obj
 0001:0000d7dc       TrailingDown3              1000e7dc     libvcruntime:memcpy.obj
 0001:0000d7dc       TrailingDown3              1000e7dc     libvcruntime:memmove.obj
 0001:0000d7f5       XmmMovLargeAlignTest       1000e7f5     libvcruntime:memcpy.obj
 0001:0000d7f5       XmmMovLargeAlignTest       1000e7f5     libvcruntime:memmove.obj
 0001:0000d7fd       XmmMovAlignLoop            1000e7fd     libvcruntime:memcpy.obj
 0001:0000d7fd       XmmMovAlignLoop            1000e7fd     libvcruntime:memmove.obj
 0001:0000d80c       XmmMovLargeLoop            1000e80c     libvcruntime:memcpy.obj
 0001:0000d80c       XmmMovLargeLoop            1000e80c     libvcruntime:memmove.obj
 0001:0000d87c       XmmMovSmallTest            1000e87c     libvcruntime:memcpy.obj
 0001:0000d87c       XmmMovSmallTest            1000e87c     libvcruntime:memmove.obj
 0001:0000d881       XmmMovSmallLoop            1000e881     libvcruntime:memcpy.obj
 0001:0000d881       XmmMovSmallLoop            1000e881     libvcruntime:memmove.obj
 0001:0000d8a4       CopyDownSmall              1000e8a4     libvcruntime:memcpy.obj
 0001:0000d8a4       CopyDownSmall              1000e8a4     libvcruntime:memmove.obj
 0001:0000d8ac       CopyDownDwordLoop          1000e8ac     libvcruntime:memcpy.obj
 0001:0000d8ac       CopyDownDwordLoop          1000e8ac     libvcruntime:memmove.obj
 0001:0000d8c1       CopyDownByteTest           1000e8c1     libvcruntime:memcpy.obj
 0001:0000d8c1       CopyDownByteTest           1000e8c1     libvcruntime:memmove.obj
 0001:0000d8c5       CopyDownByteLoop           1000e8c5     libvcruntime:memcpy.obj
 0001:0000d8c5       CopyDownByteLoop           1000e8c5     libvcruntime:memmove.obj
 0001:0000d8d4       CopyDownReturn             1000e8d4     libvcruntime:memcpy.obj
 0001:0000d8d4       CopyDownReturn             1000e8d4     libvcruntime:memmove.obj
 0001:0000d8e0       XmmCopy                    1000e8e0     libvcruntime:memcpy.obj
 0001:0000d8e0       XmmCopy                    1000e8e0     libvcruntime:memmove.obj
 0001:0000d8ed       XmmCopyAligned             1000e8ed     libvcruntime:memcpy.obj
 0001:0000d8ed       XmmCopyAligned             1000e8ed     libvcruntime:memmove.obj
 0001:0000d900       XmmCopyLargeLoop           1000e900     libvcruntime:memcpy.obj
 0001:0000d900       XmmCopyLargeLoop           1000e900     libvcruntime:memmove.obj
 0001:0000d95d       XmmCopySmallTest           1000e95d     libvcruntime:memcpy.obj
 0001:0000d95d       XmmCopySmallTest           1000e95d     libvcruntime:memmove.obj
 0001:0000d970       XmmCopySmallLoop           1000e970     libvcruntime:memcpy.obj
 0001:0000d970       XmmCopySmallLoop           1000e970     libvcruntime:memmove.obj
 0001:0000d98b       CopyUpDwordMov             1000e98b     libvcruntime:memcpy.obj
 0001:0000d98b       CopyUpDwordMov             1000e98b     libvcruntime:memmove.obj
 0001:0000d990       CopyUpDwordTest            1000e990     libvcruntime:memcpy.obj
 0001:0000d990       CopyUpDwordTest            1000e990     libvcruntime:memmove.obj
 0001:0000d997       CopyUpDwordLoop            1000e997     libvcruntime:memcpy.obj
 0001:0000d997       CopyUpDwordLoop            1000e997     libvcruntime:memmove.obj
 0001:0000d9a6       CopyUpByteTest             1000e9a6     libvcruntime:memcpy.obj
 0001:0000d9a6       CopyUpByteTest             1000e9a6     libvcruntime:memmove.obj
 0001:0000d9ad       CopyUpByteLoop             1000e9ad     libvcruntime:memcpy.obj
 0001:0000d9ad       CopyUpByteLoop             1000e9ad     libvcruntime:memmove.obj
 0001:0000d9c0       CopyUpReturn               1000e9c0     libvcruntime:memcpy.obj
 0001:0000d9c0       CopyUpReturn               1000e9c0     libvcruntime:memmove.obj
 0001:0000d9d0       XmmCopyUnaligned           1000e9d0     libvcruntime:memcpy.obj
 0001:0000d9d0       XmmCopyUnaligned           1000e9d0     libvcruntime:memmove.obj
 0001:0000d9e3       XmmAlignByte               1000e9e3     libvcruntime:memcpy.obj
 0001:0000d9e3       XmmAlignByte               1000e9e3     libvcruntime:memmove.obj
 0001:0000d9ec       XmmAlignDwordTest          1000e9ec     libvcruntime:memcpy.obj
 0001:0000d9ec       XmmAlignDwordTest          1000e9ec     libvcruntime:memmove.obj
 0001:0000d9f1       XmmAlignDwordLoop          1000e9f1     libvcruntime:memcpy.obj
 0001:0000d9f1       XmmAlignDwordLoop          1000e9f1     libvcruntime:memmove.obj
 0001:0000d9fe       XmmAlignAdjustCnt          1000e9fe     libvcruntime:memcpy.obj
 0001:0000d9fe       XmmAlignAdjustCnt          1000e9fe     libvcruntime:memmove.obj
 0001:0000da10       $$000000                   1000ea10     libvcruntime:strstr.obj
 0001:0000da53       strstr_sse_safeloop        1000ea53     libvcruntime:strstr.obj
 0001:0000da7a       strstr_sse_search          1000ea7a     libvcruntime:strstr.obj
 0001:0000da7a       strstr_sse_unsafe          1000ea7a     libvcruntime:strstr.obj
 0001:0000da7e       strstr_sse_srchloop        1000ea7e     libvcruntime:strstr.obj
 0001:0000dab4       strstr_sse_srchchar        1000eab4     libvcruntime:strstr.obj
 0001:0000dacb       strstr_sse_cmploop         1000eacb     libvcruntime:strstr.obj
 0001:0000db06       strstr_sse_cmpchars        1000eb06     libvcruntime:strstr.obj
 0001:0000db0d       strstr_sse_cmpunsafe       1000eb0d     libvcruntime:strstr.obj
 0001:0000db24       strstr_sse_match           1000eb24     libvcruntime:strstr.obj
 0001:0000db29       strstr_sse_not_found       1000eb29     libvcruntime:strstr.obj
 0001:0000db2b       strstr_sse_exit            1000eb2b     libvcruntime:strstr.obj
 0001:0000db2f       strstr_sttni               1000eb2f     libvcruntime:strstr.obj
 0001:0000db4b       strstr_sttni_setchars      1000eb4b     libvcruntime:strstr.obj
 0001:0000db50       strstr_sttni_setloopchar   1000eb50     libvcruntime:strstr.obj
 0001:0000db56       strstr_sttni_setloopnochar 1000eb56     libvcruntime:strstr.obj
 0001:0000db6a       strstr_sttni_srchnext      1000eb6a     libvcruntime:strstr.obj
 0001:0000db6d       strstr_sttni_srch          1000eb6d     libvcruntime:strstr.obj
 0001:0000db71       strstr_sttni_srchloop      1000eb71     libvcruntime:strstr.obj
 0001:0000db90       strstr_sttni_srchxmm       1000eb90     libvcruntime:strstr.obj
 0001:0000dba3       strstr_sttni_srchcheck     1000eba3     libvcruntime:strstr.obj
 0001:0000dba7       strstr_sttni_cmploop       1000eba7     libvcruntime:strstr.obj
 0001:0000dbdf       strstr_sttni_cmpchar       1000ebdf     libvcruntime:strstr.obj
 0001:0000dbfa       strstr_no_sse              1000ebfa     libvcruntime:strstr.obj
 0001:0000dc0d       findnext                   1000ec0d     libvcruntime:strstr.obj
 0001:0000dc20       loop_start                 1000ec20     libvcruntime:strstr.obj
 0001:0000dc25       in_loop                    1000ec25     libvcruntime:strstr.obj
 0001:0000dc2d       not_found                  1000ec2d     libvcruntime:strstr.obj
 0001:0000dc33       first_char_found           1000ec33     libvcruntime:strstr.obj
 0001:0000dc3c       two_first_chars_equal      1000ec3c     libvcruntime:strstr.obj
 0001:0000dc3f       compare_loop               1000ec3f     libvcruntime:strstr.obj
 0001:0000dc62       strchr_call                1000ec62     libvcruntime:strstr.obj
 0001:0000dc6e       match                      1000ec6e     libvcruntime:strstr.obj
 0001:0000dc75       empty_str2                 1000ec75     libvcruntime:strstr.obj
 0001:0000e120       $$000000                   1000f120     libvcruntime:memset.obj
 0001:0000e165       XMMMov                     1000f165     libvcruntime:memset.obj
 0001:0000e1a0       LargeRangeBytes            1000f1a0     libvcruntime:memset.obj
 0001:0000e1dd       XmmMovSmall                1000f1dd     libvcruntime:memset.obj
 0001:0000e1f0       XmmSmallLoop               1000f1f0     libvcruntime:memset.obj
 0001:0000e1f5       MidRangeBytes              1000f1f5     libvcruntime:memset.obj
 0001:0000e211       XMMTrailingBytes           1000f211     libvcruntime:memset.obj
 0001:0000e225       SmallMov                   1000f225     libvcruntime:memset.obj
 0001:0000e22d       ByteLoop                   1000f22d     libvcruntime:memset.obj
 0001:0000e23b       DwordTest                  1000f23b     libvcruntime:memset.obj
 0001:0000e24b       QwordTest                  1000f24b     libvcruntime:memset.obj
 0001:0000e260       QwordLoop                  1000f260     libvcruntime:memset.obj
 0001:0000e273       toend                      1000f273     libvcruntime:memset.obj
 0001:0000e280       _ValidateLocalCookies      1000f280 f   libvcruntime:chandler4.obj
 0001:0000e57c       ?_FilterSetCurrentException@@YAKPAU_EXCEPTION_POINTERS@@E@Z 1000f57c f   libvcruntime:ehhelpers.obj
 0001:0000e680       $$000000                   1000f680     libvcruntime:strchr.obj
 0001:0000e6b3       strchr_sse_loop            1000f6b3     libvcruntime:strchr.obj
 0001:0000e6d7       strchr_sse_break           1000f6d7     libvcruntime:strchr.obj
 0001:0000e6e8       strchr_no_sse2             1000f6e8     libvcruntime:strchr.obj
 0001:0000e700       str_misaligned             1000f700     libvcruntime:strchr.obj
 0001:0000e715       main_loop_start            1000f715     libvcruntime:strchr.obj
 0001:0000e720       main_loop                  1000f720     libvcruntime:strchr.obj
 0001:0000e75c       retnull                    1000f75c     libvcruntime:strchr.obj
 0001:0000e75e       retnull_bx                 1000f75e     libvcruntime:strchr.obj
 0001:0000e762       found_bx                   1000f762     libvcruntime:strchr.obj
 0001:0000e767       chr_is_found               1000f767     libvcruntime:strchr.obj
 0001:0000e78f       byte_3                     1000f78f     libvcruntime:strchr.obj
 0001:0000e796       byte_2                     1000f796     libvcruntime:strchr.obj
 0001:0000e79d       byte_1                     1000f79d     libvcruntime:strchr.obj
 0001:0000e7a4       byte_0                     1000f7a4     libvcruntime:strchr.obj
 0001:0000e8e0       ??$BuildCatchObjectHelperInternal@V__FrameHandler3@@@@YAHPAUEHExceptionRecord@@PAXPBU_s_HandlerType@@PBU_s_CatchableType@@@Z 1000f8e0 f   libvcruntime:frame.obj
 0001:0000ea1e       ??$BuildCatchObjectInternal@V__FrameHandler3@@@@YAXPAUEHExceptionRecord@@PAXPBU_s_HandlerType@@PBU_s_CatchableType@@@Z 1000fa1e f   libvcruntime:frame.obj
 0001:0000eab7       ??$CatchIt@V__FrameHandler3@@@@YAXPAUEHExceptionRecord@@PAUEHRegistrationNode@@PAU_CONTEXT@@PAXPBU_s_FuncInfo@@PBU_s_HandlerType@@PBU_s_CatchableType@@PBU_s_TryBlockMapEntry@@H1EE@Z 1000fab7 f   libvcruntime:frame.obj
 0001:0000eb37       ??$FindHandler@V__FrameHandler3@@@@YAXPAUEHExceptionRecord@@PAUEHRegistrationNode@@PAU_CONTEXT@@PAXPBU_s_FuncInfo@@EH1@Z 1000fb37 f   libvcruntime:frame.obj
 0001:0000eedc       ??$FindHandlerForForeignException@V__FrameHandler3@@@@YAXPAUEHExceptionRecord@@PAUEHRegistrationNode@@PAU_CONTEXT@@PAXPBU_s_FuncInfo@@HH1@Z 1000fedc f   libvcruntime:frame.obj
 0001:0000f23b       ?CallCatchBlock@@YAPAXPAUEHExceptionRecord@@PAUEHRegistrationNode@@PAU_CONTEXT@@PBU_s_FuncInfo@@PAXHK@Z 1001023b f   libvcruntime:frame.obj
 0001:0000f40a       ?CallUnexpected@@YAXPBU_s_ESTypeList@@@Z 1001040a f   libvcruntime:frame.obj
 0001:0000f42a       __catch$?CallUnexpected@@YAXPBU_s_ESTypeList@@@Z$0 1001042a f   libvcruntime:frame.obj
 0001:0000f449       ?ExFilterRethrow@@YAHPAU_EXCEPTION_POINTERS@@@Z 10010449 f   libvcruntime:frame.obj
 0001:0000f593       ?IsInExceptionSpec@@YAEPAUEHExceptionRecord@@PBU_s_ESTypeList@@@Z 10010593 f   libvcruntime:frame.obj
 0001:0000f660       $$000000                   10010660     libvcruntime:lowhelpr.obj
 0001:0000f69f       _NLG_Continue              1001069f     libvcruntime:lowhelpr.obj
 0001:0000f6e0       $$000000                   100106e0     libvcruntime:exsup4.obj
 0001:0000f712       _lu_top                    10010712     libvcruntime:exsup4.obj
 0001:0000f771       _lu_done                   10010771     libvcruntime:exsup4.obj
 0001:0000f780       $$000000                   10010780     libvcruntime:exsup4.obj
 0001:0000f780       __unwind_handler4          10010780 f   libvcruntime:exsup4.obj
 0001:0000f7d0       $$000000                   100107d0     libvcruntime:exsup4.obj
 0001:0000f7f0       $$000000                   100107f0     libvcruntime:exsup4.obj
 0001:0000f810       $$000000                   10010810     libvcruntime:exsup4.obj
 0001:0000f825       ReturnPoint                10010825     libvcruntime:exsup4.obj
 0001:0000f830       $$000000                   10010830     libvcruntime:exsup4.obj
 0001:0000f8b2       ?try_get_function@@YAPAXW4function_id@?A0x14174aea@@QBDQBW4module_id@2@2@Z 100108b2 f   libvcruntime:winapi_downlevel.obj
 0001:0000f952       ?try_load_library_from_system_directory@@YAPAUHINSTANCE__@@QB_W@Z 10010952 f   libvcruntime:winapi_downlevel.obj
 0001:0000fb20       $$000000                   10010b20     libvcruntime:exsup.obj
 0001:0000fb30       $$000000                   10010b30     libvcruntime:exsup.obj
 0001:0000fb3b       __NLG_Go                   10010b3b     libvcruntime:exsup.obj
 0001:0000fb50       $$000000                   10010b50     libvcruntime:exsup.obj
 0001:0000fbad       ??$?RV<lambda_62491a2101a2aba6cc4a769149c84f1f>@@AAV<lambda_826c27fce7726908515bbc79a5266961>@@V<lambda_4e64bbd54b50a7b070e3ea8d795375b6>@@@?$__crt_seh_guarded_call@H@@QAEH$$QAV<lambda_62491a2101a2aba6cc4a769149c84f1f>@@AAV<lambda_826c27fce7726908515bbc79a5266961>@@$$QAV<lambda_4e64bbd54b50a7b070e3ea8d795375b6>@@@Z 10010bad f   libucrt:output.obj
 0001:0000fc08       ??$common_vsprintf@Vstandard_base@__crt_stdio_output@@D@@YAH_KQADIQBDAAV__crt_cached_ptd_host@@1@Z 10010c08 f   libucrt:output.obj
 0001:0001098a       ??R<lambda_826c27fce7726908515bbc79a5266961>@@QBEHXZ 1001198a f   libucrt:output.obj
 0001:00010ed0       $LN120                     10011ed0     libucrt:output.obj
 0001:000111a4       $LN129                     100121a4     libucrt:output.obj
 0001:00011b8a       $LN18                      10012b8a     libucrt:output.obj
 0001:00011b9e       $LN17                      10012b9e     libucrt:output.obj
 0001:000125cf       ?_fclose_internal@@YAHQAU_iobuf@@AAV__crt_cached_ptd_host@@@Z 100135cf f   libucrt:fclose.obj
 0001:00012666       ?_fclose_nolock_internal@@YAHQAU_iobuf@@AAV__crt_cached_ptd_host@@@Z 10013666 f   libucrt:fclose.obj
 0001:00012724       ??$common_fsopen@D@@YAPAU_iobuf@@QBD0H@Z 10013724 f   libucrt:fopen.obj
 0001:00012a92       _memcpy_s                  10013a92 f   libucrt:cfout.obj
 0001:00012a92       _memcpy_s                  10013a92 f   libucrt:mbctype.obj
 0001:00012a92       _memcpy_s                  10013a92 f   libucrt:fread.obj
 0001:00012a92       _memcpy_s                  10013a92 f   libucrt:input.obj
 0001:00012b8d       ?common_fseek@@YAHV__crt_stdio_stream@@_JHAAV__crt_cached_ptd_host@@@Z 10013b8d f   libucrt:fseek.obj
 0001:00012c29       ?common_fseek_binary_mode_read_only_fast_track_nolock@@YA_NV__crt_stdio_stream@@_JH@Z 10013c29 f   libucrt:fseek.obj
 0001:00012d02       ?common_fseek_nolock@@YAHV__crt_stdio_stream@@_JHAAV__crt_cached_ptd_host@@@Z 10013d02 f   libucrt:fseek.obj
 0001:00012e28       ??$common_ftell@J@@YAJV__crt_stdio_stream@@AAV__crt_cached_ptd_host@@@Z 10013e28 f   libucrt:ftell.obj
 0001:00012ea8       ??$common_ftell_nolock@J@@YAJV__crt_stdio_stream@@AAV__crt_cached_ptd_host@@@Z 10013ea8 f   libucrt:ftell.obj
 0001:00012eda       ??$common_ftell_nolock@_J@@YA_JV__crt_stdio_stream@@AAV__crt_cached_ptd_host@@@Z 10013eda f   libucrt:ftell.obj
 0001:0001307b       ?common_ftell_read_mode_nolock@@YA_JV__crt_stdio_stream@@_J1AAV__crt_cached_ptd_host@@@Z 1001407b f   libucrt:ftell.obj
 0001:0001323a       ?common_ftell_translated_utf8_nolock@@YA_JV__crt_stdio_stream@@_JAAV__crt_cached_ptd_host@@@Z 1001423a f   libucrt:ftell.obj
 0001:000133e5       ?count_newline_bytes@@YA_JQBD0W4__crt_lowio_text_mode@@@Z 100143e5 f   libucrt:ftell.obj
 0001:00013471       ?_rewind_internal@@YAXQAU_iobuf@@AAV__crt_cached_ptd_host@@@Z 10014471 f   libucrt:rewind.obj
 0001:00013b82       ??$?RV<lambda_274ecf0a8038e561263518ab346655e8>@@AAV<lambda_21448eb78dd3c4a522ed7c65a98d88e6>@@V<lambda_0ca1de2171e49cefb1e8dc85c06db622>@@@?$__crt_seh_guarded_call@H@@QAEH$$QAV<lambda_274ecf0a8038e561263518ab346655e8>@@AAV<lambda_21448eb78dd3c4a522ed7c65a98d88e6>@@$$QAV<lambda_0ca1de2171e49cefb1e8dc85c06db622>@@@Z 10014b82 f   libucrt:input.obj
 0001:000145f0       $LN32                      100155f0     libucrt:input.obj
 0001:00014714       $LN30                      10015714     libucrt:input.obj
 0001:000150ba       ??R<lambda_21448eb78dd3c4a522ed7c65a98d88e6>@@QBEHXZ 100160ba f   libucrt:input.obj
 0001:00017c3a       $LN15                      10018c3a     libucrt:input.obj
 0001:0001838b       $LN17                      1001938b     libucrt:input.obj
 0001:0001839f       $LN16                      1001939f     libucrt:input.obj
 0001:000185d6       ??$common_atof_l@D@@YANQBDQAU__crt_locale_pointers@@@Z 100195d6 f   libucrt:atof.obj
 0001:00019181       ??$?RV<lambda_03b1d95aef87969028cfba75ccab2455>@@AAV<lambda_6e4b09c48022b2350581041d5f6b0c4c>@@V<lambda_22bdf7517842c4b3e53723af5aa32b9e>@@@?$__crt_seh_guarded_call@X@@QAEX$$QAV<lambda_03b1d95aef87969028cfba75ccab2455>@@AAV<lambda_6e4b09c48022b2350581041d5f6b0c4c>@@$$QAV<lambda_22bdf7517842c4b3e53723af5aa32b9e>@@@Z 1001a181 f   libucrt:exit.obj
 0001:000191ce       ??R<lambda_6e4b09c48022b2350581041d5f6b0c4c>@@QBE@XZ 1001a1ce f   libucrt:exit.obj
 0001:000192b9       ?common_exit@@YAXHW4_crt_exit_cleanup_mode@@W4_crt_exit_return_mode@@@Z 1001a2b9 f   libucrt:exit.obj
 0001:00019350       ?exit_or_terminate_process@@YAXI@Z 1001a350 f   libucrt:exit.obj
 0001:00019381       ?is_managed_app@@YA_NXZ    1001a381 f   libucrt:exit.obj
 0001:000193c4       ?should_call_terminate_process@@YA_NXZ 1001a3c4 f   libucrt:exit.obj
 0001:000193e6       ?try_cor_exit_process@@YAXI@Z 1001a3e6 f   libucrt:exit.obj
 0001:000194a3       ??$common_configure_argv@D@@YAHW4_crt_argv_mode@@@Z 1001a4a3 f   libucrt:argv_parsing.obj
 0001:000195e0       ??$parse_command_line@D@@YAXPADPAPAD0PAI2@Z 1001a5e0 f   libucrt:argv_parsing.obj
 0001:000197ae       ??$common_initialize_environment_nolock@D@@YAHXZ 1001a7ae f   libucrt:environment_initialization.obj
 0001:00019808       ??$create_environment@D@@YAQAPADQAD@Z 1001a808 f   libucrt:environment_initialization.obj
 0001:000198ea       ??$free_environment@D@@YAXQAPAD@Z 1001a8ea f   libucrt:environment_initialization.obj
 0001:000198ea       ??$free_environment@_W@@YAXQAPA_W@Z 1001a8ea f   libucrt:environment_initialization.obj
 0001:00019919       ??$uninitialize_environment_internal@D@@YAXAAPAPAD@Z 1001a919 f   libucrt:environment_initialization.obj
 0001:00019934       ??$uninitialize_environment_internal@_W@@YAXAAPAPA_W@Z 1001a934 f   libucrt:environment_initialization.obj
 0001:000199a5       ??$?RV<lambda_69a2805e680e0e292e8ba93315fe43a8>@@AAV<lambda_f03950bc5685219e0bcd2087efbe011e>@@V<lambda_03fcd07e894ec930e3f35da366ca99d6>@@@?$__crt_seh_guarded_call@H@@QAEH$$QAV<lambda_69a2805e680e0e292e8ba93315fe43a8>@@AAV<lambda_f03950bc5685219e0bcd2087efbe011e>@@$$QAV<lambda_03fcd07e894ec930e3f35da366ca99d6>@@@Z 1001a9a5 f   libucrt:onexit.obj
 0001:00019a00       ??R<lambda_f03950bc5685219e0bcd2087efbe011e>@@QBEHXZ 1001aa00 f   libucrt:onexit.obj
 0001:00019b41       _uninitialize_allocated_io_buffers 1001ab41 f   libucrt:initialization.obj
 0001:00019b91       _initialize_environment    1001ab91 f   libucrt:initialization.obj
 0001:00019b91       _initialize_global_state_isolation 1001ab91 f   libucrt:initialization.obj
 0001:00019b91       _report_memory_leaks       1001ab91 f   libucrt:initialization.obj
 0001:00019b91       _uninitialize_c            1001ab91 f   libucrt:initialization.obj
 0001:00019b91       _uninitialize_global_state_isolation 1001ab91 f   libucrt:initialization.obj
 0001:00019b94       _initialize_global_variables 1001ab94 f   libucrt:initialization.obj
 0001:00019ba1       _initialize_c              1001aba1 f   libucrt:initialization.obj
 0001:00019bbb       _uninitialize_environment  1001abbb f   libucrt:initialization.obj
 0001:00019bc3       _initialize_pointers       1001abc3 f   libucrt:initialization.obj
 0001:00019bf1       _uninitialize_vcruntime    1001abf1 f   libucrt:initialization.obj
 0001:00019bfa       _uninitialize_allocated_memory 1001abfa f   libucrt:initialization.obj
 0001:00019c30       ??R<lambda_af42a3ee9806e9a7305d451646e05244>@@QBEXAAPAU__crt_multibyte_data@@@Z 1001ac30 f   libucrt:initialization.obj
 0001:00019d50       $$000000                   1001ad50     libucrt:strncmp.obj
 0001:0001a32a       ?fe_to_nearest@@YA_NQBN_KF@Z 1001b32a f   libucrt:cvt.obj
 0001:0001a3cd       ?fp_format_a@@YAHQBNPADIQADIH_NIW4__acrt_rounding_mode@@AAV__crt_cached_ptd_host@@@Z 1001b3cd f   libucrt:cvt.obj
 0001:0001a6f9       ?fp_format_e@@YAHQBNQADI1IH_NIW4__acrt_rounding_mode@@AAV__crt_cached_ptd_host@@@Z 1001b6f9 f   libucrt:cvt.obj
 0001:0001a79d       ?fp_format_e_internal@@YAHQADIH_NIQAU_strflt@@1AAV__crt_cached_ptd_host@@@Z 1001b79d f   libucrt:cvt.obj
 0001:0001a8e2       ?fp_format_f@@YAHQBNQADI1IHW4__acrt_rounding_mode@@AAV__crt_cached_ptd_host@@@Z 1001b8e2 f   libucrt:cvt.obj
 0001:0001a978       ?fp_format_f_internal@@YAHQADIHQAU_strflt@@_NAAV__crt_cached_ptd_host@@@Z 1001b978 f   libucrt:cvt.obj
 0001:0001aa66       ?fp_format_g@@YAHQBNQADI1IH_NIW4__acrt_rounding_mode@@AAV__crt_cached_ptd_host@@@Z 1001ba66 f   libucrt:cvt.obj
 0001:0001ab35       ?fp_format_nan_or_infinity@@YAHW4__acrt_fp_class@@_NPADI1@Z 1001bb35 f   libucrt:cvt.obj
 0001:0001abca       ?shift_bytes@@YAXQADI0H@Z  1001bbca f   libucrt:cvt.obj
 0001:0001abfe       ?should_round_up@@YA_NQBN_KFW4__acrt_rounding_mode@@@Z 1001bbfe f   libucrt:cvt.obj
 0001:0001b3c1       ??$?RV<lambda_15ade71b0218206bbe3333a0c9b79046>@@AAV<lambda_da44e0f8b0f19ba52fefafb335991732>@@V<lambda_207f2d024fc103971653565357d6cd41>@@@?$__crt_seh_guarded_call@X@@QAEX$$QAV<lambda_15ade71b0218206bbe3333a0c9b79046>@@AAV<lambda_da44e0f8b0f19ba52fefafb335991732>@@$$QAV<lambda_207f2d024fc103971653565357d6cd41>@@@Z 1001c3c1 f   libucrt:per_thread_data.obj
 0001:0001b413       ??$?RV<lambda_38edbb1296d33220d7e4dd0ed76b244a>@@AAV<lambda_5ce1d447e08cb34b2473517608e21441>@@V<lambda_fb385d3da700c9147fc39e65dd577a8c>@@@?$__crt_seh_guarded_call@X@@QAEX$$QAV<lambda_38edbb1296d33220d7e4dd0ed76b244a>@@AAV<lambda_5ce1d447e08cb34b2473517608e21441>@@$$QAV<lambda_fb385d3da700c9147fc39e65dd577a8c>@@@Z 1001c413 f   libucrt:per_thread_data.obj
 0001:0001b47e       ??$?RV<lambda_6affb1475c98b40b75cdec977db92e3c>@@AAV<lambda_b8d4b9c228a6ecc3f80208dbb4b4a104>@@V<lambda_608742c3c92a14382c1684fc64f96c88>@@@?$__crt_seh_guarded_call@X@@QAEX$$QAV<lambda_6affb1475c98b40b75cdec977db92e3c>@@AAV<lambda_b8d4b9c228a6ecc3f80208dbb4b4a104>@@$$QAV<lambda_608742c3c92a14382c1684fc64f96c88>@@@Z 1001c47e f   libucrt:per_thread_data.obj
 0001:0001b4d3       ??$?RV<lambda_a7e850c220f1c8d1e6efeecdedd162c6>@@AAV<lambda_46720907175c18b6c9d2717bc0d2d362>@@V<lambda_9048902d66e8d99359bc9897bbb930a8>@@@?$__crt_seh_guarded_call@X@@QAEX$$QAV<lambda_a7e850c220f1c8d1e6efeecdedd162c6>@@AAV<lambda_46720907175c18b6c9d2717bc0d2d362>@@$$QAV<lambda_9048902d66e8d99359bc9897bbb930a8>@@@Z 1001c4d3 f   libucrt:per_thread_data.obj
 0001:0001b52d       ?construct_ptd@@YAXQAU__acrt_ptd@@QAPAU__crt_locale_data@@@Z 1001c52d f   libucrt:per_thread_data.obj
 0001:0001b5c6       ?destroy_fls@@YGXPAX@Z     1001c5c6 f   libucrt:per_thread_data.obj
 0001:0001b5e7       ?destroy_ptd@@YAXQAU__acrt_ptd@@@Z 1001c5e7 f   libucrt:per_thread_data.obj
 0001:0001b6b4       ?replace_current_thread_locale_nolock@@YAXQAU__acrt_ptd@@QAU__crt_locale_data@@@Z 1001c6b4 f   libucrt:per_thread_data.obj
 0001:0001ba16       ??$?RV<lambda_e5124f882df8998aaf41531e079ba474>@@AAV<lambda_3e16ef9562a7dcce91392c22ab16ea36>@@V<lambda_e25ca0880e6ef98be67edffd8c599615>@@@?$__crt_seh_guarded_call@X@@QAEX$$QAV<lambda_e5124f882df8998aaf41531e079ba474>@@AAV<lambda_3e16ef9562a7dcce91392c22ab16ea36>@@$$QAV<lambda_e25ca0880e6ef98be67edffd8c599615>@@@Z 1001ca16 f   libucrt:wsetlocale.obj
 0001:0001bab6       ?initialize_inherited_file_handles_nolock@@YAXXZ 1001cab6 f   libucrt:ioinit.obj
 0001:0001bb6c       ?initialize_stdio_handles_nolock@@YAXXZ 1001cb6c f   libucrt:ioinit.obj
 0001:0001bca8       ??$?RV<lambda_d422a76eb4c3bf3ad751449ab71a6ea4>@@AAV<lambda_c9ba49e555ba839a7b07aa3fbecb7617>@@V<lambda_9476263c8ee91a25d21c55370bdb50de>@@@?$__crt_seh_guarded_call@H@@QAEH$$QAV<lambda_d422a76eb4c3bf3ad751449ab71a6ea4>@@AAV<lambda_c9ba49e555ba839a7b07aa3fbecb7617>@@$$QAV<lambda_9476263c8ee91a25d21c55370bdb50de>@@@Z 1001cca8 f   libucrt:close.obj
 0001:0001bf50       ?find_or_allocate_unused_stream_nolock@@YA?AV__crt_stdio_stream@@XZ 1001cf50 f   libucrt:stream.obj
 0001:0001c052       ??$?RV<lambda_2866be3712abc81a800a822484c830d8>@@AAV<lambda_39ca0ed439415581b5b15c265174cece>@@V<lambda_2b24c74d71094a6cd0cb82e44167d71b>@@@?$__crt_seh_guarded_call@X@@QAEX$$QAV<lambda_2866be3712abc81a800a822484c830d8>@@AAV<lambda_39ca0ed439415581b5b15c265174cece>@@$$QAV<lambda_2b24c74d71094a6cd0cb82e44167d71b>@@@Z 1001d052 f   libucrt:fflush.obj
 0001:0001c0de       ??$?RV<lambda_2cc53f568c5a2bb6f192f930a45d44ea>@@AAV<lambda_ab61a845afdef5b7c387490eaf3616ee>@@V<lambda_c2ffc0b7726aa6be21d5f0026187e748>@@@?$__crt_seh_guarded_call@X@@QAEX$$QAV<lambda_2cc53f568c5a2bb6f192f930a45d44ea>@@AAV<lambda_ab61a845afdef5b7c387490eaf3616ee>@@$$QAV<lambda_c2ffc0b7726aa6be21d5f0026187e748>@@@Z 1001d0de f   libucrt:fflush.obj
 0001:0001c18a       ?common_flush_all@@YAH_N@Z 1001d18a f   libucrt:fflush.obj
 0001:0001c1d7       ?common_flush_all_should_try_to_flush_stream@@YA_NV__crt_stdio_stream@@QAH@Z 1001d1d7 f   libucrt:fflush.obj
 0001:0001c20a       ?is_stream_flushable_or_commitable@@YA_NJ@Z 1001d20a f   libucrt:fflush.obj
 0001:0001c530       ??$common_openfile@D@@YAPAU_iobuf@@QBD0HV__crt_stdio_stream@@@Z 1001d530 f   libucrt:openfile.obj
 0001:0001c6d2       ??$translate_text_mode_nolock@D@@YAHHQADI@Z 1001d6d2 f   libucrt:read.obj
 0001:0001c81e       ??$translate_text_mode_nolock@_W@@YAHHQA_WI@Z 1001d81e f   libucrt:read.obj
 0001:0001c9c6       ?translate_ansi_or_utf8_nolock@@YAHHQADIQA_WI@Z 1001d9c6 f   libucrt:read.obj
 0001:0001cb1d       ?translate_utf16_from_console_nolock@@YAHHQA_WI@Z 1001db1d f   libucrt:read.obj
 0001:0001d04b       ??$common_refill_and_read_nolock@D@@YAHV__crt_stdio_stream@@@Z 1001e04b f   libucrt:_filbuf.obj
 0001:0001d1e5       ??$common_lseek@J@@YAJHJHAAV__crt_cached_ptd_host@@@Z 1001e1e5 f   libucrt:lseek.obj
 0001:0001d2ed       ??$common_lseek@_J@@YA_JH_JHAAV__crt_cached_ptd_host@@@Z 1001e2ed f   libucrt:lseek.obj
 0001:0001d413       ??$common_lseek_nolock@J@@YAJHJHAAV__crt_cached_ptd_host@@@Z 1001e413 f   libucrt:lseek.obj
 0001:0001d470       ??$common_lseek_nolock@_J@@YA_JH_JHAAV__crt_cached_ptd_host@@@Z 1001e470 f   libucrt:lseek.obj
 0001:0001d4f3       ?common_lseek_do_seek_nolock@@YAJQAXJHAAV__crt_cached_ptd_host@@@Z 1001e4f3 f   libucrt:lseek.obj
 0001:0001da36       ?try_get_AreFileApisANSI@@YAP6GHXZXZ 1001ea36 f   libucrt:winapi_thunks.obj
 0001:0001da50       ?try_get_LCMapStringEx@@YAP6GHPB_WK0HPA_WHPAU_nlsversioninfo@@PAXJ@ZXZ 1001ea50 f   libucrt:winapi_thunks.obj
 0001:0001da6a       ?try_get_LocaleNameToLCID@@YAP6GKPB_WK@ZXZ 1001ea6a f   libucrt:winapi_thunks.obj
 0001:0001da84       ?try_get_first_available_module@@YAPAUHINSTANCE__@@QBW4module_id@?A0x391cf84c@@0@Z 1001ea84 f   libucrt:winapi_thunks.obj
 0001:0001db4f       ?try_get_function@@YAPAXW4function_id@?A0x391cf84c@@QBDQBW4module_id@2@2@Z 1001eb4f f   libucrt:winapi_thunks.obj
 0001:0001dfe2       ?<lambda_invoker_cdecl>@<lambda_838c7f62c73c983481e27c09e84b0b5d>@@CAHPBX0@Z 1001efe2 f   libucrt:argv_wildcards.obj
 0001:0001e0c0       ??$common_expand_argv_wildcards@D@@YAHQAPADQAPAPAD@Z 1001f0c0 f   libucrt:argv_wildcards.obj
 0001:0001e23d       ??$copy_and_add_argument_to_buffer@D@@YAHQBD0IAAV?$argument_list@D@?A0x5f5c8891@@@Z 1001f23d f   libucrt:argv_wildcards.obj
 0001:0001e2ee       ??$expand_argument_wildcards@D@@YAHQAD0AAV?$argument_list@D@?A0x5f5c8891@@@Z 1001f2ee f   libucrt:argv_wildcards.obj
 0001:0001e573       ??1?$argument_list@D@?A0x5f5c8891@@QAE@XZ 1001f573 f   libucrt:argv_wildcards.obj
 0001:0001e5fc       ?expand_if_necessary@?$argument_list@D@?A0x5f5c8891@@AAEHXZ 1001f5fc f   libucrt:argv_wildcards.obj
 0001:0001e82c       ??$?RV<lambda_ceb1ee4838e85a9d631eb091e2fbe199>@@AAV<lambda_ae742caa10f662c28703da3d2ea5e57e>@@V<lambda_cd08b5d6af4937fe54fc07d0c9bf6b37>@@@?$__crt_seh_guarded_call@X@@QAEX$$QAV<lambda_ceb1ee4838e85a9d631eb091e2fbe199>@@AAV<lambda_ae742caa10f662c28703da3d2ea5e57e>@@$$QAV<lambda_cd08b5d6af4937fe54fc07d0c9bf6b37>@@@Z 1001f82c f   libucrt:mbctype.obj
 0001:0001e879       ??R<lambda_ae742caa10f662c28703da3d2ea5e57e>@@QBEXXZ 1001f879 f   libucrt:mbctype.obj
 0001:0001e8fc       ?CPtoLocaleName@@YAPB_WH@Z 1001f8fc f   libucrt:mbctype.obj
 0001:0001e93a       ?getSystemCP@@YAHH@Z       1001f93a f   libucrt:mbctype.obj
 0001:0001e9ab       ?setSBCS@@YAXPAU__crt_multibyte_data@@@Z 1001f9ab f   libucrt:mbctype.obj
 0001:0001ea0e       ?setSBUpLow@@YAXPAU__crt_multibyte_data@@@Z 1001fa0e f   libucrt:mbctype.obj
 0001:0001ebba       ?setmbcp_internal@@YAHH_NQAU__acrt_ptd@@QAPAU__crt_multibyte_data@@@Z 1001fbba f   libucrt:mbctype.obj
 0001:0001ed0f       ?update_thread_multibyte_data_internal@@YAPAU__crt_multibyte_data@@QAU__acrt_ptd@@QAPAU1@@Z 1001fd0f f   libucrt:mbctype.obj
 0001:0001f012       ?x_ismbbtype_l@@YAHPAU__crt_locale_pointers@@IHH@Z 10020012 f   libucrt:ismbbyte.obj
 0001:0001f14a       ?find_end_of_double_null_terminated_sequence@@YAPB_WQB_W@Z 1002014a f   libucrt:get_environment_from_os.obj
 0001:0001f342       ??$?RV<lambda_cbab9ec6f41b0180b23cc171c22676b0>@@AAV<lambda_44731a7d0e6d81c3e6aa82d741081786>@@V<lambda_4b292cb8dd18144e164572427af410ab>@@@?$__crt_seh_guarded_call@P6AXH@Z@@QAEP6AXH@Z$$QAV<lambda_cbab9ec6f41b0180b23cc171c22676b0>@@AAV<lambda_44731a7d0e6d81c3e6aa82d741081786>@@$$QAV<lambda_4b292cb8dd18144e164572427af410ab>@@@Z 10020342 f   libucrt:signal.obj
 0001:0001f3a6       ?get_global_action_nolock@@YAPAP6AXH@ZH@Z 100203a6 f   libucrt:signal.obj
 0001:0001f3e8       ?siglookup@@YAPAU__crt_signal_action_t@@HQAU1@@Z 100203e8 f   libucrt:signal.obj
 0001:0001fa42       ?should_round_up@@YA_NQBD0HW4__acrt_has_trailing_digits@@W4__acrt_rounding_mode@@@Z 10020a42 f   libucrt:_fptostr.obj
 0001:000211a3       ??R<lambda_e96123212306c92459f955e8e4eac55d>@@QBEIPBD@Z 100221a3 f   libucrt:mbrtowc.obj
 0001:000213c5       ??$common_flush_and_write_nolock@D@@YAHHV__crt_stdio_stream@@AAV__crt_cached_ptd_host@@@Z 100223c5 f   libucrt:_flsbuf.obj
 0001:000214bb       ??$write_buffer_nolock@D@@YA_NDV__crt_stdio_stream@@AAV__crt_cached_ptd_host@@@Z 100224bb f   libucrt:_flsbuf.obj
 0001:0002158d       ?stream_is_at_end_of_file_nolock@@YA_NV__crt_stdio_stream@@@Z 1002258d f   libucrt:_flsbuf.obj
 0001:000217da       ?free_crt_array_internal@@YAXQAPBXI@Z 100227da f   libucrt:inittime.obj
 0001:00021e40       ??$?RV<lambda_9e9de3de5fa147e2223d7db92bc10aa6>@@AAV<lambda_38ce7e780aa69e748d6df282ebc68efe>@@V<lambda_8ca6da459f0f6780f1cff60fdc3d00e5>@@@?$__crt_seh_guarded_call@H@@QAEH$$QAV<lambda_9e9de3de5fa147e2223d7db92bc10aa6>@@AAV<lambda_38ce7e780aa69e748d6df282ebc68efe>@@$$QAV<lambda_8ca6da459f0f6780f1cff60fdc3d00e5>@@@Z 10022e40 f   libucrt:commit.obj
 0001:00021f5f       ?write_double_translated_ansi_nolock@@YA?AUwrite_result@?A0x17268360@@HQBDIAAV__crt_cached_ptd_host@@@Z 10022f5f f   libucrt:write.obj
 0001:00022331       ?write_double_translated_unicode_nolock@@YA?AUwrite_result@?A0x17268360@@QBDI@Z 10023331 f   libucrt:write.obj
 0001:00022399       ?write_requires_double_translation_nolock@@YA_NHAAV__crt_cached_ptd_host@@@Z 10023399 f   libucrt:write.obj
 0001:00022417       ?write_text_ansi_nolock@@YA?AUwrite_result@?A0x17268360@@HQBDI@Z 10023417 f   libucrt:write.obj
 0001:000224f2       ?write_text_utf16le_nolock@@YA?AUwrite_result@?A0x17268360@@HQBDI@Z 100234f2 f   libucrt:write.obj
 0001:000225db       ?write_text_utf8_nolock@@YA?AUwrite_result@?A0x17268360@@HQBDI@Z 100235db f   libucrt:write.obj
 0001:00022bd3       ??$common_sopen_dispatch@D@@YAHQBDHHHQAHH@Z 10023bd3 f   libucrt:open.obj
 0001:00022c94       ?configure_text_mode@@YAHHUfile_options@?A0xa9d50aae@@HAAW4__crt_lowio_text_mode@@@Z 10023c94 f   libucrt:open.obj
 0001:00022ee2       ?create_file@@YAPAXQB_WQAU_SECURITY_ATTRIBUTES@@Ufile_options@?A0xa9d50aae@@@Z 10023ee2 f   libucrt:open.obj
 0001:00022f07       ?decode_open_create_flags@@YAKH@Z 10023f07 f   libucrt:open.obj
 0001:00022f77       ?decode_options@@YA?AUfile_options@?A0xa9d50aae@@HHH@Z 10023f77 f   libucrt:open.obj
 0001:000230f1       ?truncate_ctrl_z_if_present@@YAHH@Z 100240f1 f   libucrt:open.obj
 0001:000235af       ?to_abstract_control@@YA?AW4__acrt_fenv_abstract_control@@W4__acrt_fenv_machine_sse_control@@@Z 100245af f   libucrt:_fenvutils.obj
 0001:0002365f       ?to_abstract_control@@YA?AW4__acrt_fenv_abstract_control@@W4__acrt_fenv_machine_x87_control@@@Z 1002465f f   libucrt:_fenvutils.obj
 0001:0002370c       ?to_machine_sse_control@@YA?AW4__acrt_fenv_machine_sse_control@@W4__acrt_fenv_abstract_control@@@Z 1002470c f   libucrt:_fenvutils.obj
 0001:000237c2       ?to_machine_x87_control@@YA?AW4__acrt_fenv_machine_x87_control@@W4__acrt_fenv_abstract_control@@@Z 100247c2 f   libucrt:_fenvutils.obj
 0001:00023b39       ?GetTableIndexFromLocaleName@@YAHPB_W@Z 10024b39 f   libucrt:lcidtoname_downlevel.obj
 0001:000240ae       ??$common_tcsncpy_s@D@@YAHQADIQBDI@Z 100250ae f   libucrt:strncpy_s.obj
 0001:00024170       $$000000                   10025170     libucrt:strpbrk.obj
 0001:00024254       ?__acrt_LCMapStringA_stat@@YAHPAU__crt_locale_pointers@@PB_WKPBDHPADHHH@Z 10025254 f   libucrt:lcmapstringa.obj
 0001:0002448b       ?initialize_multibyte@@YAHXZ 1002548b f   libucrt:multibyte_initializer.obj
 0001:00024650       $$000000                   10025650     libucrt:log10_impl.obj
 0001:00024760       $$000000                   10025760     libucrt:ceil_pentium4.obj
 0001:00024ab0       $$000000                   10025ab0     libucrt:_strnicm.obj
 0001:00024e50       ___hw_cw_sse2              10025e50 f   libucrt:ieee87.obj
 0001:000252d6       __hw_cw                    100262d6 f   libucrt:ieee87.obj
 0001:00025390       $$000000                   10026390     libucrt:log10_pentium4.obj
 0001:00025620       $$000000                   10026620     libucrt:87tran.obj
 0001:00025830       $$000000                   10026830     libucrt:87disp.obj
 0001:00025a90       $$000000                   10026a90     libucrt:common.obj
 0001:00025c20       $$000000                   10026c20     libucrt:genexcep.obj
 0001:00025f1c       ?__dcrt_lowio_initialize_console_output@@YAXXZ 10026f1c f   libucrt:initcon.obj
 0001:00026ee0       $$000000                   10027ee0     LIBCMT:ulldvrm.obj
 0001:00026f11       L1                         10027f11     LIBCMT:ulldvrm.obj
 0001:00026f1f       L3                         10027f1f     LIBCMT:ulldvrm.obj
 0001:00026f4d       L4                         10027f4d     LIBCMT:ulldvrm.obj
 0001:00026f56       L5                         10027f56     LIBCMT:ulldvrm.obj
 0001:00026f58       L2                         10027f58     LIBCMT:ulldvrm.obj
 0001:00026f80       $$000000                   10027f80     LIBCMT:lldiv.obj
 0001:00026fa1       L1                         10027fa1     LIBCMT:lldiv.obj
 0001:00026fbd       L2                         10027fbd     LIBCMT:lldiv.obj
 0001:00026fd9       L3                         10027fd9     LIBCMT:lldiv.obj
 0001:00026fe7       L5                         10027fe7     LIBCMT:lldiv.obj
 0001:00027015       L6                         10028015     LIBCMT:lldiv.obj
 0001:00027016       L7                         10028016     LIBCMT:lldiv.obj
 0001:0002701a       L4                         1002801a     LIBCMT:lldiv.obj
 0001:00027024       L8                         10028024     LIBCMT:lldiv.obj
 0001:00027030       $$000000                   10028030     LIBCMT:chkstk.obj
 0001:00027044       cs10                       10028044     LIBCMT:chkstk.obj
 0001:00027052       cs20                       10028052     LIBCMT:chkstk.obj
 0001:00027060       $$000000                   10028060     LIBCMT:llmul.obj
 0001:00027079       hard                       10028079     LIBCMT:llmul.obj
 0001:000270a0       $$000000                   100280a0     LIBCMT:ulldiv.obj
 0001:000270c2       L1                         100280c2     LIBCMT:ulldiv.obj
 0001:000270d0       L3                         100280d0     LIBCMT:ulldiv.obj
 0001:000270fe       L4                         100280fe     LIBCMT:ulldiv.obj
 0001:000270ff       L5                         100280ff     LIBCMT:ulldiv.obj
 0001:00027103       L2                         10028103     LIBCMT:ulldiv.obj
 0001:00027110       $$000000                   10028110     LIBCMT:llshl.obj
 0001:00027120       MORE32                     10028120     LIBCMT:llshl.obj
 0001:0002712a       RETZERO                    1002812a     LIBCMT:llshl.obj
 0001:00027130       $$000000                   10028130     LIBCMT:ullshr.obj
 0001:00027140       MORE32                     10028140     LIBCMT:ullshr.obj
 0001:0002714a       RETZERO                    1002814a     LIBCMT:ullshr.obj
 0001:00027150       $$000000                   10028150     LIBCMT:lldvrm.obj
 0001:00027174       L1                         10028174     LIBCMT:lldvrm.obj
 0001:00027190       L2                         10028190     LIBCMT:lldvrm.obj
 0001:000271bc       L3                         100281bc     LIBCMT:lldvrm.obj
 0001:000271ca       L5                         100281ca     LIBCMT:lldvrm.obj
 0001:000271f8       L6                         100281f8     LIBCMT:lldvrm.obj
 0001:00027201       L7                         10028201     LIBCMT:lldvrm.obj
 0001:00027203       L4                         10028203     LIBCMT:lldvrm.obj
 0001:00027215       L9                         10028215     LIBCMT:lldvrm.obj
 0001:00027229       L8                         10028229     LIBCMT:lldvrm.obj
 0001:00027230       $$000000                   10028230     LIBCMT:ftol2.obj
 0001:00027240       $$000000                   10028240     LIBCMT:ftol2.obj
 0001:00027251       L3B                        10028251     LIBCMT:ftol2.obj
 0001:00027294       L3F                        10028294     LIBCMT:ftol2.obj
 0001:0002729c       L40                        1002829c     LIBCMT:ftol2.obj
 0001:000272af       L41                        100282af     LIBCMT:ftol2.obj
 0001:000272c0       $$000000                   100282c0     LIBCMT:alloca16.obj
 0001:000272d6       alloca_8                   100282d6     LIBCMT:alloca16.obj
 0001:000272f0       $$000000                   100282f0     libvcruntime:strrchr.obj
 0001:0002732d       strrchr_sse_loop           1002832d     libvcruntime:strrchr.obj
 0001:0002735d       strrchr_sse_break          1002835d     libvcruntime:strrchr.obj
 0001:0002737d       strrchr_sttni              1002837d     libvcruntime:strrchr.obj
 0001:0002738f       strrchr_sttni_chars        1002838f     libvcruntime:strrchr.obj
 0001:000273a4       strrchr_sttni_aligned      100283a4     libvcruntime:strrchr.obj
 0001:000273a8       strrchr_sttni_xmm          100283a8     libvcruntime:strrchr.obj
 0001:000273bb       exit                       100283bb     libvcruntime:strrchr.obj
 0001:000273be       strrchr_zero               100283be     libvcruntime:strrchr.obj
 0001:000273e3       strchr_zero_loop           100283e3     libvcruntime:strrchr.obj
 0001:000273f7       strchr_zero_result         100283f7     libvcruntime:strrchr.obj
 0001:000273fe       strrchr_no_sse             100283fe     libvcruntime:strrchr.obj
 0001:00027421       returndi                   10028421     libvcruntime:strrchr.obj
 0001:00027423       toend                      10028423     libvcruntime:strrchr.obj
 0001:000274a0       __ehhandler$?CallUnexpected@@YAXPBU_s_ESTypeList@@@Z 100284a0 f   libvcruntime:frame.obj
 0001:000274bd       __ehhandler$?common_exit@@YAXHW4_crt_exit_cleanup_mode@@W4_crt_exit_return_mode@@@Z 100284bd f   libucrt:exit.obj
 0001:000274da       __ehhandler$?try_cor_exit_process@@YAXI@Z 100284da f   libucrt:exit.obj
 0001:000274f7       __ehhandler$___dcrt_uninitialize_environments_nolock 100284f7 f   libucrt:environment_initialization.obj
 0001:00027514       __ehhandler$__execute_onexit_table 10028514 f   libucrt:onexit.obj
 0001:00027531       __ehhandler$?write_double_translated_ansi_nolock@@YA?AUwrite_result@?A0x17268360@@HQBDIAAV__crt_cached_ptd_host@@@Z 10028531 f   libucrt:write.obj
 0002:00000140       ?replace_CrState$initializer$@@3P6AXXZA 10029140     core.obj
 0002:00000180       $SG63469                   10029180     heroes.obj
 0002:0000018c       ?DLGBLUEBOX@HDassets@NH3Dlg@h3@@3QBDB 1002918c     heroes.obj
 0002:00000190       $SG63478                   10029190     heroes.obj
 0002:000001a0       ?DLGBLUEBACK@HDassets@NH3Dlg@h3@@3QBDB 100291a0     heroes.obj
 0002:000001a4       $SG63480                   100291a4     heroes.obj
 0002:000001b4       ?LINE_SEPARATOR@HDassets@NH3Dlg@h3@@3QBDB 100291b4     heroes.obj
 0002:000001b8       $SG63482                   100291b8     heroes.obj
 0002:000001c8       ?HD_STATUSBAR_PCX@HDassets@NH3Dlg@h3@@3QBDB 100291c8     heroes.obj
 0002:000001cc       $SG63484                   100291cc     heroes.obj
 0002:000001dc       $SG63486                   100291dc     heroes.obj
 0002:000001ec       $SG63488                   100291ec     heroes.obj
 0002:000001f8       $SG63490                   100291f8     heroes.obj
 0002:00000204       $SG63492                   10029204     heroes.obj
 0002:00000214       ?FRAME_LU@HDassets@NH3Dlg@h3@@3QBDB 10029214     heroes.obj
 0002:00000218       $SG63494                   10029218     heroes.obj
 0002:00000228       ?FRAME_LD@HDassets@NH3Dlg@h3@@3QBDB 10029228     heroes.obj
 0002:0000022c       $SG63496                   1002922c     heroes.obj
 0002:0000023c       ?FRAME_RU@HDassets@NH3Dlg@h3@@3QBDB 1002923c     heroes.obj
 0002:00000240       $SG63498                   10029240     heroes.obj
 0002:00000250       ?FRAME_RD@HDassets@NH3Dlg@h3@@3QBDB 10029250     heroes.obj
 0002:00000254       $SG63500                   10029254     heroes.obj
 0002:00000264       ?FRAME_U@HDassets@NH3Dlg@h3@@3QBDB 10029264     heroes.obj
 0002:00000268       $SG63502                   10029268     heroes.obj
 0002:00000274       ?FRAME_D@HDassets@NH3Dlg@h3@@3QBDB 10029274     heroes.obj
 0002:00000278       $SG63504                   10029278     heroes.obj
 0002:00000284       ?FRAME_L@HDassets@NH3Dlg@h3@@3QBDB 10029284     heroes.obj
 0002:00000288       $SG63506                   10029288     heroes.obj
 0002:00000294       ?FRAME_R@HDassets@NH3Dlg@h3@@3QBDB 10029294     heroes.obj
 0002:00000298       $SG63508                   10029298     heroes.obj
 0002:000002a4       ?NEW_LINE@h3@@3QBDB        100292a4     heroes.obj
 0002:000002a8       ?KEY_EQUALS@h3@@3QBDB      100292a8     heroes.obj
 0002:000002ac       ?BOM_HEADER@h3@@3QBDB      100292ac     heroes.obj
 0002:000002b0       ?_Fake_alloc@std@@3U_Fake_allocator@1@B 100292b0     amethyst.obj
 0002:000002b4       $SG76403                   100292b4     amethyst.obj
 0002:000002c0       ?DLGBLUEBOX@HDassets@NH3Dlg@h3@@3QBDB 100292c0     amethyst.obj
 0002:000002c4       $SG76412                   100292c4     amethyst.obj
 0002:000002d4       ?DLGBLUEBACK@HDassets@NH3Dlg@h3@@3QBDB 100292d4     amethyst.obj
 0002:000002d8       $SG76414                   100292d8     amethyst.obj
 0002:000002e8       ?LINE_SEPARATOR@HDassets@NH3Dlg@h3@@3QBDB 100292e8     amethyst.obj
 0002:000002ec       $SG76416                   100292ec     amethyst.obj
 0002:000002fc       ?HD_STATUSBAR_PCX@HDassets@NH3Dlg@h3@@3QBDB 100292fc     amethyst.obj
 0002:00000300       $SG76418                   10029300     amethyst.obj
 0002:00000310       $SG76420                   10029310     amethyst.obj
 0002:00000320       $SG76422                   10029320     amethyst.obj
 0002:0000032c       $SG76424                   1002932c     amethyst.obj
 0002:00000338       $SG76426                   10029338     amethyst.obj
 0002:00000348       ?FRAME_LU@HDassets@NH3Dlg@h3@@3QBDB 10029348     amethyst.obj
 0002:0000034c       $SG76428                   1002934c     amethyst.obj
 0002:0000035c       ?FRAME_LD@HDassets@NH3Dlg@h3@@3QBDB 1002935c     amethyst.obj
 0002:00000360       $SG76430                   10029360     amethyst.obj
 0002:00000370       ?FRAME_RU@HDassets@NH3Dlg@h3@@3QBDB 10029370     amethyst.obj
 0002:00000374       $SG76432                   10029374     amethyst.obj
 0002:00000384       ?FRAME_RD@HDassets@NH3Dlg@h3@@3QBDB 10029384     amethyst.obj
 0002:00000388       $SG76434                   10029388     amethyst.obj
 0002:00000398       ?FRAME_U@HDassets@NH3Dlg@h3@@3QBDB 10029398     amethyst.obj
 0002:0000039c       $SG76436                   1002939c     amethyst.obj
 0002:000003a8       ?FRAME_D@HDassets@NH3Dlg@h3@@3QBDB 100293a8     amethyst.obj
 0002:000003ac       $SG76438                   100293ac     amethyst.obj
 0002:000003b8       ?FRAME_L@HDassets@NH3Dlg@h3@@3QBDB 100293b8     amethyst.obj
 0002:000003bc       $SG76440                   100293bc     amethyst.obj
 0002:000003c8       ?FRAME_R@HDassets@NH3Dlg@h3@@3QBDB 100293c8     amethyst.obj
 0002:000003cc       $SG76442                   100293cc     amethyst.obj
 0002:000003d8       ?NEW_LINE@h3@@3QBDB        100293d8     amethyst.obj
 0002:000003dc       ?KEY_EQUALS@h3@@3QBDB      100293dc     amethyst.obj
 0002:000003e0       ?BOM_HEADER@h3@@3QBDB      100293e0     amethyst.obj
 0002:000003e4       ?_Fake_alloc@std@@3U_Fake_allocator@1@B 100293e4     BugFix.obj
 0002:000003e8       $SG76403                   100293e8     BugFix.obj
 0002:000003f4       ?DLGBLUEBOX@HDassets@NH3Dlg@h3@@3QBDB 100293f4     BugFix.obj
 0002:000003f8       $SG76412                   100293f8     BugFix.obj
 0002:00000408       ?DLGBLUEBACK@HDassets@NH3Dlg@h3@@3QBDB 10029408     BugFix.obj
 0002:0000040c       $SG76414                   1002940c     BugFix.obj
 0002:0000041c       ?LINE_SEPARATOR@HDassets@NH3Dlg@h3@@3QBDB 1002941c     BugFix.obj
 0002:00000420       $SG76416                   10029420     BugFix.obj
 0002:00000430       ?HD_STATUSBAR_PCX@HDassets@NH3Dlg@h3@@3QBDB 10029430     BugFix.obj
 0002:00000434       $SG76418                   10029434     BugFix.obj
 0002:00000444       $SG76420                   10029444     BugFix.obj
 0002:00000454       $SG76422                   10029454     BugFix.obj
 0002:00000460       $SG76424                   10029460     BugFix.obj
 0002:0000046c       $SG76426                   1002946c     BugFix.obj
 0002:0000047c       ?FRAME_LU@HDassets@NH3Dlg@h3@@3QBDB 1002947c     BugFix.obj
 0002:00000480       $SG76428                   10029480     BugFix.obj
 0002:00000490       ?FRAME_LD@HDassets@NH3Dlg@h3@@3QBDB 10029490     BugFix.obj
 0002:00000494       $SG76430                   10029494     BugFix.obj
 0002:000004a4       ?FRAME_RU@HDassets@NH3Dlg@h3@@3QBDB 100294a4     BugFix.obj
 0002:000004a8       $SG76432                   100294a8     BugFix.obj
 0002:000004b8       ?FRAME_RD@HDassets@NH3Dlg@h3@@3QBDB 100294b8     BugFix.obj
 0002:000004bc       $SG76434                   100294bc     BugFix.obj
 0002:000004cc       ?FRAME_U@HDassets@NH3Dlg@h3@@3QBDB 100294cc     BugFix.obj
 0002:000004d0       $SG76436                   100294d0     BugFix.obj
 0002:000004dc       ?FRAME_D@HDassets@NH3Dlg@h3@@3QBDB 100294dc     BugFix.obj
 0002:000004e0       $SG76438                   100294e0     BugFix.obj
 0002:000004ec       ?FRAME_L@HDassets@NH3Dlg@h3@@3QBDB 100294ec     BugFix.obj
 0002:000004f0       $SG76440                   100294f0     BugFix.obj
 0002:000004fc       ?FRAME_R@HDassets@NH3Dlg@h3@@3QBDB 100294fc     BugFix.obj
 0002:00000500       $SG76442                   10029500     BugFix.obj
 0002:0000050c       ?NEW_LINE@h3@@3QBDB        1002950c     BugFix.obj
 0002:00000510       ?KEY_EQUALS@h3@@3QBDB      10029510     BugFix.obj
 0002:00000514       ?BOM_HEADER@h3@@3QBDB      10029514     BugFix.obj
 0002:00000518       $SG114713                  10029518     core.obj
 0002:00000523       ?_Fake_alloc@std@@3U_Fake_allocator@1@B 10029523     core.obj
 0002:00000524       $SG114714                  10029524     core.obj
 0002:00000530       $SG114717                  10029530     core.obj
 0002:0000053c       $SG114718                  1002953c     core.obj
 0002:00000548       $SG114722                  10029548     core.obj
 0002:00000558       $SG76403                   10029558     core.obj
 0002:00000564       ?DLGBLUEBOX@HDassets@NH3Dlg@h3@@3QBDB 10029564     core.obj
 0002:00000568       $SG76412                   10029568     core.obj
 0002:00000578       ?DLGBLUEBACK@HDassets@NH3Dlg@h3@@3QBDB 10029578     core.obj
 0002:0000057c       $SG76414                   1002957c     core.obj
 0002:0000058c       ?LINE_SEPARATOR@HDassets@NH3Dlg@h3@@3QBDB 1002958c     core.obj
 0002:00000590       $SG76416                   10029590     core.obj
 0002:000005a0       ?HD_STATUSBAR_PCX@HDassets@NH3Dlg@h3@@3QBDB 100295a0     core.obj
 0002:000005a4       $SG76418                   100295a4     core.obj
 0002:000005b4       $SG76420                   100295b4     core.obj
 0002:000005c4       $SG76422                   100295c4     core.obj
 0002:000005d0       $SG76424                   100295d0     core.obj
 0002:000005dc       $SG76426                   100295dc     core.obj
 0002:000005ec       ?FRAME_LU@HDassets@NH3Dlg@h3@@3QBDB 100295ec     core.obj
 0002:000005f0       $SG76428                   100295f0     core.obj
 0002:00000600       ?FRAME_LD@HDassets@NH3Dlg@h3@@3QBDB 10029600     core.obj
 0002:00000604       $SG76430                   10029604     core.obj
 0002:00000614       ?FRAME_RU@HDassets@NH3Dlg@h3@@3QBDB 10029614     core.obj
 0002:00000618       $SG76432                   10029618     core.obj
 0002:00000628       ?FRAME_RD@HDassets@NH3Dlg@h3@@3QBDB 10029628     core.obj
 0002:0000062c       $SG76434                   1002962c     core.obj
 0002:0000063c       ?FRAME_U@HDassets@NH3Dlg@h3@@3QBDB 1002963c     core.obj
 0002:00000640       $SG76436                   10029640     core.obj
 0002:0000064c       ?FRAME_D@HDassets@NH3Dlg@h3@@3QBDB 1002964c     core.obj
 0002:00000650       $SG76438                   10029650     core.obj
 0002:0000065c       ?FRAME_L@HDassets@NH3Dlg@h3@@3QBDB 1002965c     core.obj
 0002:00000660       $SG76440                   10029660     core.obj
 0002:0000066c       ?FRAME_R@HDassets@NH3Dlg@h3@@3QBDB 1002966c     core.obj
 0002:00000670       $SG76442                   10029670     core.obj
 0002:0000067c       ?NEW_LINE@h3@@3QBDB        1002967c     core.obj
 0002:00000680       ?KEY_EQUALS@h3@@3QBDB      10029680     core.obj
 0002:00000684       ?BOM_HEADER@h3@@3QBDB      10029684     core.obj
 0002:00000688       ?p_CrState@@3KB            10029688     core.obj
 0002:0000068c       $SG114477                  1002968c     core.obj
 0002:00000698       $SG114479                  10029698     core.obj
 0002:000006a0       $SG114627                  100296a0     core.obj
 0002:000006ac       $SG114628                  100296ac     core.obj
 0002:000006b4       ?_Fake_alloc@std@@3U_Fake_allocator@1@B 100296b4     creexpo1024.obj
 0002:000006b8       $SG76403                   100296b8     creexpo1024.obj
 0002:000006c4       ?DLGBLUEBOX@HDassets@NH3Dlg@h3@@3QBDB 100296c4     creexpo1024.obj
 0002:000006c8       $SG76412                   100296c8     creexpo1024.obj
 0002:000006d8       ?DLGBLUEBACK@HDassets@NH3Dlg@h3@@3QBDB 100296d8     creexpo1024.obj
 0002:000006dc       $SG76414                   100296dc     creexpo1024.obj
 0002:000006ec       ?LINE_SEPARATOR@HDassets@NH3Dlg@h3@@3QBDB 100296ec     creexpo1024.obj
 0002:000006f0       $SG76416                   100296f0     creexpo1024.obj
 0002:00000700       ?HD_STATUSBAR_PCX@HDassets@NH3Dlg@h3@@3QBDB 10029700     creexpo1024.obj
 0002:00000704       $SG76418                   10029704     creexpo1024.obj
 0002:00000714       $SG76420                   10029714     creexpo1024.obj
 0002:00000724       $SG76422                   10029724     creexpo1024.obj
 0002:00000730       $SG76424                   10029730     creexpo1024.obj
 0002:0000073c       $SG76426                   1002973c     creexpo1024.obj
 0002:0000074c       ?FRAME_LU@HDassets@NH3Dlg@h3@@3QBDB 1002974c     creexpo1024.obj
 0002:00000750       $SG76428                   10029750     creexpo1024.obj
 0002:00000760       ?FRAME_LD@HDassets@NH3Dlg@h3@@3QBDB 10029760     creexpo1024.obj
 0002:00000764       $SG76430                   10029764     creexpo1024.obj
 0002:00000774       ?FRAME_RU@HDassets@NH3Dlg@h3@@3QBDB 10029774     creexpo1024.obj
 0002:00000778       $SG76432                   10029778     creexpo1024.obj
 0002:00000788       ?FRAME_RD@HDassets@NH3Dlg@h3@@3QBDB 10029788     creexpo1024.obj
 0002:0000078c       $SG76434                   1002978c     creexpo1024.obj
 0002:0000079c       ?FRAME_U@HDassets@NH3Dlg@h3@@3QBDB 1002979c     creexpo1024.obj
 0002:000007a0       $SG76436                   100297a0     creexpo1024.obj
 0002:000007ac       ?FRAME_D@HDassets@NH3Dlg@h3@@3QBDB 100297ac     creexpo1024.obj
 0002:000007b0       $SG76438                   100297b0     creexpo1024.obj
 0002:000007bc       ?FRAME_L@HDassets@NH3Dlg@h3@@3QBDB 100297bc     creexpo1024.obj
 0002:000007c0       $SG76440                   100297c0     creexpo1024.obj
 0002:000007cc       ?FRAME_R@HDassets@NH3Dlg@h3@@3QBDB 100297cc     creexpo1024.obj
 0002:000007d0       $SG76442                   100297d0     creexpo1024.obj
 0002:000007dc       ?NEW_LINE@h3@@3QBDB        100297dc     creexpo1024.obj
 0002:000007e0       ?KEY_EQUALS@h3@@3QBDB      100297e0     creexpo1024.obj
 0002:000007e4       ?BOM_HEADER@h3@@3QBDB      100297e4     creexpo1024.obj
 0002:000007e8       $SG116482                  100297e8     dllmain.obj
 0002:000007eb       ?_Fake_alloc@std@@3U_Fake_allocator@1@B 100297eb     dllmain.obj
 0002:000007ec       $SG116535                  100297ec     dllmain.obj
 0002:000007f6       $SG117190                  100297f6     dllmain.obj
 0002:000007f8       $SG116536                  100297f8     dllmain.obj
 0002:00000804       $SG116537                  10029804     dllmain.obj
 0002:00000818       $SG116538                  10029818     dllmain.obj
 0002:00000828       $SG116539                  10029828     dllmain.obj
 0002:00000830       $SG116540                  10029830     dllmain.obj
 0002:00000834       $SG116541                  10029834     dllmain.obj
 0002:0000083c       $SG116542                  1002983c     dllmain.obj
 0002:00000850       $SG116543                  10029850     dllmain.obj
 0002:00000860       $SG116544                  10029860     dllmain.obj
 0002:0000086c       $SG116545                  1002986c     dllmain.obj
 0002:00000878       $SG116546                  10029878     dllmain.obj
 0002:00000884       $SG116547                  10029884     dllmain.obj
 0002:00000894       $SG116548                  10029894     dllmain.obj
 0002:000008a0       $SG116549                  100298a0     dllmain.obj
 0002:000008ac       $SG116550                  100298ac     dllmain.obj
 0002:000008b8       $SG116551                  100298b8     dllmain.obj
 0002:000008c8       $SG116552                  100298c8     dllmain.obj
 0002:000008d4       $SG116553                  100298d4     dllmain.obj
 0002:000008e8       $SG116554                  100298e8     dllmain.obj
 0002:000008f0       $SG116555                  100298f0     dllmain.obj
 0002:000008fc       $SG116556                  100298fc     dllmain.obj
 0002:00000910       $SG116557                  10029910     dllmain.obj
 0002:00000918       $SG116558                  10029918     dllmain.obj
 0002:00000920       $SG116559                  10029920     dllmain.obj
 0002:0000092c       $SG116560                  1002992c     dllmain.obj
 0002:00000938       $SG116561                  10029938     dllmain.obj
 0002:00000944       $SG116562                  10029944     dllmain.obj
 0002:00000954       $SG116563                  10029954     dllmain.obj
 0002:00000968       $SG116564                  10029968     dllmain.obj
 0002:00000978       $SG116565                  10029978     dllmain.obj
 0002:00000984       $SG116566                  10029984     dllmain.obj
 0002:00000994       $SG116567                  10029994     dllmain.obj
 0002:000009a8       $SG116568                  100299a8     dllmain.obj
 0002:000009b8       $SG116569                  100299b8     dllmain.obj
 0002:000009c4       $SG116570                  100299c4     dllmain.obj
 0002:000009d8       $SG116571                  100299d8     dllmain.obj
 0002:000009e0       $SG116572                  100299e0     dllmain.obj
 0002:000009e8       $SG116573                  100299e8     dllmain.obj
 0002:000009f4       $SG116574                  100299f4     dllmain.obj
 0002:00000a0c       $SG116575                  10029a0c     dllmain.obj
 0002:00000a1c       $SG116664                  10029a1c     dllmain.obj
 0002:00000a3c       $SG117021                  10029a3c     dllmain.obj
 0002:00000a48       $SG117022                  10029a48     dllmain.obj
 0002:00000a50       $SG117024                  10029a50     dllmain.obj
 0002:00000a5c       $SG117025                  10029a5c     dllmain.obj
 0002:00000a64       $SG117076                  10029a64     dllmain.obj
 0002:00000a74       $SG117079                  10029a74     dllmain.obj
 0002:00000a84       $SG117095                  10029a84     dllmain.obj
 0002:00000a88       $SG117096                  10029a88     dllmain.obj
 0002:00000a98       $SG117098                  10029a98     dllmain.obj
 0002:00000aa4       $SG117101                  10029aa4     dllmain.obj
 0002:00000ac0       $SG117103                  10029ac0     dllmain.obj
 0002:00000adc       $SG117105                  10029adc     dllmain.obj
 0002:00000aec       $SG117107                  10029aec     dllmain.obj
 0002:00000af0       $SG117108                  10029af0     dllmain.obj
 0002:00000b00       $SG117152                  10029b00     dllmain.obj
 0002:00000b3c       $SG117154                  10029b3c     dllmain.obj
 0002:00000b4c       $SG117179                  10029b4c     dllmain.obj
 0002:00000b60       $SG117181                  10029b60     dllmain.obj
 0002:00000b7c       $SG117183                  10029b7c     dllmain.obj
 0002:00000b84       $SG117184                  10029b84     dllmain.obj
 0002:00000ba8       $SG117185                  10029ba8     dllmain.obj
 0002:00000bb8       $SG117187                  10029bb8     dllmain.obj
 0002:00000bc0       $SG117188                  10029bc0     dllmain.obj
 0002:00000bd8       $SG117189                  10029bd8     dllmain.obj
 0002:00000be0       $SG117206                  10029be0     dllmain.obj
 0002:00000bf4       $SG117208                  10029bf4     dllmain.obj
 0002:00000c10       $SG117210                  10029c10     dllmain.obj
 0002:00000c18       $SG117211                  10029c18     dllmain.obj
 0002:00000c3c       $SG117216                  10029c3c     dllmain.obj
 0002:00000c4c       $SG117217                  10029c4c     dllmain.obj
 0002:00000c60       $SG117218                  10029c60     dllmain.obj
 0002:00000c74       $SG117222                  10029c74     dllmain.obj
 0002:00000c84       $SG117223                  10029c84     dllmain.obj
 0002:00000c98       $SG117224                  10029c98     dllmain.obj
 0002:00000cac       $SG117233                  10029cac     dllmain.obj
 0002:00000cb8       $SG117234                  10029cb8     dllmain.obj
 0002:00000cc4       $SG117235                  10029cc4     dllmain.obj
 0002:00000cd0       $SG117236                  10029cd0     dllmain.obj
 0002:00000cdc       $SG117245                  10029cdc     dllmain.obj
 0002:00000ce8       $SG117246                  10029ce8     dllmain.obj
 0002:00000cf4       $SG117247                  10029cf4     dllmain.obj
 0002:00000d00       $SG117248                  10029d00     dllmain.obj
 0002:00000d0c       $SG117329                  10029d0c     dllmain.obj
 0002:00000d18       $SG117330                  10029d18     dllmain.obj
 0002:00000d2c       $SG117331                  10029d2c     dllmain.obj
 0002:00000d38       $SG117332                  10029d38     dllmain.obj
 0002:00000d4c       $SG117333                  10029d4c     dllmain.obj
 0002:00000d5c       $SG117334                  10029d5c     dllmain.obj
 0002:00000d6c       $SG117335                  10029d6c     dllmain.obj
 0002:00000d80       $SG117336                  10029d80     dllmain.obj
 0002:00000d94       $SG117337                  10029d94     dllmain.obj
 0002:00000da4       $SG117338                  10029da4     dllmain.obj
 0002:00000dbc       $SG117339                  10029dbc     dllmain.obj
 0002:00000dc8       $SG117340                  10029dc8     dllmain.obj
 0002:00000dd4       $SG117341                  10029dd4     dllmain.obj
 0002:00000de0       $SG117342                  10029de0     dllmain.obj
 0002:00000df8       $SG76403                   10029df8     dllmain.obj
 0002:00000e04       ?DLGBLUEBOX@HDassets@NH3Dlg@h3@@3QBDB 10029e04     dllmain.obj
 0002:00000e08       $SG76412                   10029e08     dllmain.obj
 0002:00000e18       ?DLGBLUEBACK@HDassets@NH3Dlg@h3@@3QBDB 10029e18     dllmain.obj
 0002:00000e1c       $SG76414                   10029e1c     dllmain.obj
 0002:00000e2c       ?LINE_SEPARATOR@HDassets@NH3Dlg@h3@@3QBDB 10029e2c     dllmain.obj
 0002:00000e30       $SG76416                   10029e30     dllmain.obj
 0002:00000e40       ?HD_STATUSBAR_PCX@HDassets@NH3Dlg@h3@@3QBDB 10029e40     dllmain.obj
 0002:00000e44       $SG76418                   10029e44     dllmain.obj
 0002:00000e54       $SG76420                   10029e54     dllmain.obj
 0002:00000e64       $SG76422                   10029e64     dllmain.obj
 0002:00000e70       $SG76424                   10029e70     dllmain.obj
 0002:00000e7c       $SG76426                   10029e7c     dllmain.obj
 0002:00000e8c       ?FRAME_LU@HDassets@NH3Dlg@h3@@3QBDB 10029e8c     dllmain.obj
 0002:00000e90       $SG76428                   10029e90     dllmain.obj
 0002:00000ea0       ?FRAME_LD@HDassets@NH3Dlg@h3@@3QBDB 10029ea0     dllmain.obj
 0002:00000ea4       $SG76430                   10029ea4     dllmain.obj
 0002:00000eb4       ?FRAME_RU@HDassets@NH3Dlg@h3@@3QBDB 10029eb4     dllmain.obj
 0002:00000eb8       $SG76432                   10029eb8     dllmain.obj
 0002:00000ec8       ?FRAME_RD@HDassets@NH3Dlg@h3@@3QBDB 10029ec8     dllmain.obj
 0002:00000ecc       $SG76434                   10029ecc     dllmain.obj
 0002:00000edc       ?FRAME_U@HDassets@NH3Dlg@h3@@3QBDB 10029edc     dllmain.obj
 0002:00000ee0       $SG76436                   10029ee0     dllmain.obj
 0002:00000eec       ?FRAME_D@HDassets@NH3Dlg@h3@@3QBDB 10029eec     dllmain.obj
 0002:00000ef0       $SG76438                   10029ef0     dllmain.obj
 0002:00000efc       ?FRAME_L@HDassets@NH3Dlg@h3@@3QBDB 10029efc     dllmain.obj
 0002:00000f00       $SG76440                   10029f00     dllmain.obj
 0002:00000f0c       ?FRAME_R@HDassets@NH3Dlg@h3@@3QBDB 10029f0c     dllmain.obj
 0002:00000f10       $SG76442                   10029f10     dllmain.obj
 0002:00000f1c       ?NEW_LINE@h3@@3QBDB        10029f1c     dllmain.obj
 0002:00000f20       ?KEY_EQUALS@h3@@3QBDB      10029f20     dllmain.obj
 0002:00000f24       ?BOM_HEADER@h3@@3QBDB      10029f24     dllmain.obj
 0002:00000f6c       ?_Fake_alloc@std@@3U_Fake_allocator@1@B 10029f6c     DropHtml.obj
 0002:00000f70       $SG76403                   10029f70     DropHtml.obj
 0002:00000f7c       ?DLGBLUEBOX@HDassets@NH3Dlg@h3@@3QBDB 10029f7c     DropHtml.obj
 0002:00000f80       $SG76412                   10029f80     DropHtml.obj
 0002:00000f90       ?DLGBLUEBACK@HDassets@NH3Dlg@h3@@3QBDB 10029f90     DropHtml.obj
 0002:00000f94       $SG76414                   10029f94     DropHtml.obj
 0002:00000fa4       ?LINE_SEPARATOR@HDassets@NH3Dlg@h3@@3QBDB 10029fa4     DropHtml.obj
 0002:00000fa8       $SG76416                   10029fa8     DropHtml.obj
 0002:00000fb8       ?HD_STATUSBAR_PCX@HDassets@NH3Dlg@h3@@3QBDB 10029fb8     DropHtml.obj
 0002:00000fbc       $SG76418                   10029fbc     DropHtml.obj
 0002:00000fcc       $SG76420                   10029fcc     DropHtml.obj
 0002:00000fdc       $SG76422                   10029fdc     DropHtml.obj
 0002:00000fe8       $SG76424                   10029fe8     DropHtml.obj
 0002:00000ff4       $SG76426                   10029ff4     DropHtml.obj
 0002:00001004       ?FRAME_LU@HDassets@NH3Dlg@h3@@3QBDB 1002a004     DropHtml.obj
 0002:00001008       $SG76428                   1002a008     DropHtml.obj
 0002:00001018       ?FRAME_LD@HDassets@NH3Dlg@h3@@3QBDB 1002a018     DropHtml.obj
 0002:0000101c       $SG76430                   1002a01c     DropHtml.obj
 0002:0000102c       ?FRAME_RU@HDassets@NH3Dlg@h3@@3QBDB 1002a02c     DropHtml.obj
 0002:00001030       $SG76432                   1002a030     DropHtml.obj
 0002:00001040       ?FRAME_RD@HDassets@NH3Dlg@h3@@3QBDB 1002a040     DropHtml.obj
 0002:00001044       $SG76434                   1002a044     DropHtml.obj
 0002:00001054       ?FRAME_U@HDassets@NH3Dlg@h3@@3QBDB 1002a054     DropHtml.obj
 0002:00001058       $SG76436                   1002a058     DropHtml.obj
 0002:00001064       ?FRAME_D@HDassets@NH3Dlg@h3@@3QBDB 1002a064     DropHtml.obj
 0002:00001068       $SG76438                   1002a068     DropHtml.obj
 0002:00001074       ?FRAME_L@HDassets@NH3Dlg@h3@@3QBDB 1002a074     DropHtml.obj
 0002:00001078       $SG76440                   1002a078     DropHtml.obj
 0002:00001084       ?FRAME_R@HDassets@NH3Dlg@h3@@3QBDB 1002a084     DropHtml.obj
 0002:00001088       $SG76442                   1002a088     DropHtml.obj
 0002:00001094       ?NEW_LINE@h3@@3QBDB        1002a094     DropHtml.obj
 0002:00001098       ?KEY_EQUALS@h3@@3QBDB      1002a098     DropHtml.obj
 0002:0000109c       ?BOM_HEADER@h3@@3QBDB      1002a09c     DropHtml.obj
 0002:000010a0       $SG114345                  1002a0a0     DropHtml.obj
 0002:000010a4       $SG114346                  1002a0a4     DropHtml.obj
 0002:000010c4       $SG114347                  1002a0c4     DropHtml.obj
 0002:000010cc       $SG114348                  1002a0cc     DropHtml.obj
 0002:000010e4       $SG114349                  1002a0e4     DropHtml.obj
 0002:000010f0       ?_Fake_alloc@std@@3U_Fake_allocator@1@B 1002a0f0     GameMgr_GetRandMonster_ByLevel.obj
 0002:000010f4       $SG76403                   1002a0f4     GameMgr_GetRandMonster_ByLevel.obj
 0002:00001100       ?DLGBLUEBOX@HDassets@NH3Dlg@h3@@3QBDB 1002a100     GameMgr_GetRandMonster_ByLevel.obj
 0002:00001104       $SG76412                   1002a104     GameMgr_GetRandMonster_ByLevel.obj
 0002:00001114       ?DLGBLUEBACK@HDassets@NH3Dlg@h3@@3QBDB 1002a114     GameMgr_GetRandMonster_ByLevel.obj
 0002:00001118       $SG76414                   1002a118     GameMgr_GetRandMonster_ByLevel.obj
 0002:00001128       ?LINE_SEPARATOR@HDassets@NH3Dlg@h3@@3QBDB 1002a128     GameMgr_GetRandMonster_ByLevel.obj
 0002:0000112c       $SG76416                   1002a12c     GameMgr_GetRandMonster_ByLevel.obj
 0002:0000113c       ?HD_STATUSBAR_PCX@HDassets@NH3Dlg@h3@@3QBDB 1002a13c     GameMgr_GetRandMonster_ByLevel.obj
 0002:00001140       $SG76418                   1002a140     GameMgr_GetRandMonster_ByLevel.obj
 0002:00001150       $SG76420                   1002a150     GameMgr_GetRandMonster_ByLevel.obj
 0002:00001160       $SG76422                   1002a160     GameMgr_GetRandMonster_ByLevel.obj
 0002:0000116c       $SG76424                   1002a16c     GameMgr_GetRandMonster_ByLevel.obj
 0002:00001178       $SG76426                   1002a178     GameMgr_GetRandMonster_ByLevel.obj
 0002:00001188       ?FRAME_LU@HDassets@NH3Dlg@h3@@3QBDB 1002a188     GameMgr_GetRandMonster_ByLevel.obj
 0002:0000118c       $SG76428                   1002a18c     GameMgr_GetRandMonster_ByLevel.obj
 0002:0000119c       ?FRAME_LD@HDassets@NH3Dlg@h3@@3QBDB 1002a19c     GameMgr_GetRandMonster_ByLevel.obj
 0002:000011a0       $SG76430                   1002a1a0     GameMgr_GetRandMonster_ByLevel.obj
 0002:000011b0       ?FRAME_RU@HDassets@NH3Dlg@h3@@3QBDB 1002a1b0     GameMgr_GetRandMonster_ByLevel.obj
 0002:000011b4       $SG76432                   1002a1b4     GameMgr_GetRandMonster_ByLevel.obj
 0002:000011c4       ?FRAME_RD@HDassets@NH3Dlg@h3@@3QBDB 1002a1c4     GameMgr_GetRandMonster_ByLevel.obj
 0002:000011c8       $SG76434                   1002a1c8     GameMgr_GetRandMonster_ByLevel.obj
 0002:000011d8       ?FRAME_U@HDassets@NH3Dlg@h3@@3QBDB 1002a1d8     GameMgr_GetRandMonster_ByLevel.obj
 0002:000011dc       $SG76436                   1002a1dc     GameMgr_GetRandMonster_ByLevel.obj
 0002:000011e8       ?FRAME_D@HDassets@NH3Dlg@h3@@3QBDB 1002a1e8     GameMgr_GetRandMonster_ByLevel.obj
 0002:000011ec       $SG76438                   1002a1ec     GameMgr_GetRandMonster_ByLevel.obj
 0002:000011f8       ?FRAME_L@HDassets@NH3Dlg@h3@@3QBDB 1002a1f8     GameMgr_GetRandMonster_ByLevel.obj
 0002:000011fc       $SG76440                   1002a1fc     GameMgr_GetRandMonster_ByLevel.obj
 0002:00001208       ?FRAME_R@HDassets@NH3Dlg@h3@@3QBDB 1002a208     GameMgr_GetRandMonster_ByLevel.obj
 0002:0000120c       $SG76442                   1002a20c     GameMgr_GetRandMonster_ByLevel.obj
 0002:00001218       ?NEW_LINE@h3@@3QBDB        1002a218     GameMgr_GetRandMonster_ByLevel.obj
 0002:0000121c       ?KEY_EQUALS@h3@@3QBDB      1002a21c     GameMgr_GetRandMonster_ByLevel.obj
 0002:00001220       ?BOM_HEADER@h3@@3QBDB      1002a220     GameMgr_GetRandMonster_ByLevel.obj
 0002:00001224       $SG114370                  1002a224     GameMgr_GetRandMonster_ByLevel.obj
 0002:00001248       $SG114373                  1002a248     GameMgr_GetRandMonster_ByLevel.obj
 0002:0000126c       $SG114375                  1002a26c     GameMgr_GetRandMonster_ByLevel.obj
 0002:00001280       ?_Fake_alloc@std@@3U_Fake_allocator@1@B 1002a280     MiscCreatureHooks.obj
 0002:00001284       $SG76403                   1002a284     MiscCreatureHooks.obj
 0002:00001290       ?DLGBLUEBOX@HDassets@NH3Dlg@h3@@3QBDB 1002a290     MiscCreatureHooks.obj
 0002:00001294       $SG76412                   1002a294     MiscCreatureHooks.obj
 0002:000012a4       ?DLGBLUEBACK@HDassets@NH3Dlg@h3@@3QBDB 1002a2a4     MiscCreatureHooks.obj
 0002:000012a8       $SG76414                   1002a2a8     MiscCreatureHooks.obj
 0002:000012b8       ?LINE_SEPARATOR@HDassets@NH3Dlg@h3@@3QBDB 1002a2b8     MiscCreatureHooks.obj
 0002:000012bc       $SG76416                   1002a2bc     MiscCreatureHooks.obj
 0002:000012cc       ?HD_STATUSBAR_PCX@HDassets@NH3Dlg@h3@@3QBDB 1002a2cc     MiscCreatureHooks.obj
 0002:000012d0       $SG76418                   1002a2d0     MiscCreatureHooks.obj
 0002:000012e0       $SG76420                   1002a2e0     MiscCreatureHooks.obj
 0002:000012f0       $SG76422                   1002a2f0     MiscCreatureHooks.obj
 0002:000012fc       $SG76424                   1002a2fc     MiscCreatureHooks.obj
 0002:00001308       $SG76426                   1002a308     MiscCreatureHooks.obj
 0002:00001318       ?FRAME_LU@HDassets@NH3Dlg@h3@@3QBDB 1002a318     MiscCreatureHooks.obj
 0002:0000131c       $SG76428                   1002a31c     MiscCreatureHooks.obj
 0002:0000132c       ?FRAME_LD@HDassets@NH3Dlg@h3@@3QBDB 1002a32c     MiscCreatureHooks.obj
 0002:00001330       $SG76430                   1002a330     MiscCreatureHooks.obj
 0002:00001340       ?FRAME_RU@HDassets@NH3Dlg@h3@@3QBDB 1002a340     MiscCreatureHooks.obj
 0002:00001344       $SG76432                   1002a344     MiscCreatureHooks.obj
 0002:00001354       ?FRAME_RD@HDassets@NH3Dlg@h3@@3QBDB 1002a354     MiscCreatureHooks.obj
 0002:00001358       $SG76434                   1002a358     MiscCreatureHooks.obj
 0002:00001368       ?FRAME_U@HDassets@NH3Dlg@h3@@3QBDB 1002a368     MiscCreatureHooks.obj
 0002:0000136c       $SG76436                   1002a36c     MiscCreatureHooks.obj
 0002:00001378       ?FRAME_D@HDassets@NH3Dlg@h3@@3QBDB 1002a378     MiscCreatureHooks.obj
 0002:0000137c       $SG76438                   1002a37c     MiscCreatureHooks.obj
 0002:00001388       ?FRAME_L@HDassets@NH3Dlg@h3@@3QBDB 1002a388     MiscCreatureHooks.obj
 0002:0000138c       $SG76440                   1002a38c     MiscCreatureHooks.obj
 0002:00001398       ?FRAME_R@HDassets@NH3Dlg@h3@@3QBDB 1002a398     MiscCreatureHooks.obj
 0002:0000139c       $SG76442                   1002a39c     MiscCreatureHooks.obj
 0002:000013a8       ?NEW_LINE@h3@@3QBDB        1002a3a8     MiscCreatureHooks.obj
 0002:000013ac       ?KEY_EQUALS@h3@@3QBDB      1002a3ac     MiscCreatureHooks.obj
 0002:000013b0       ?BOM_HEADER@h3@@3QBDB      1002a3b0     MiscCreatureHooks.obj
 0002:000013b4       ?_Fake_alloc@std@@3U_Fake_allocator@1@B 1002a3b4     stdafx.obj
 0002:000013b8       $SG76403                   1002a3b8     stdafx.obj
 0002:000013c4       ?DLGBLUEBOX@HDassets@NH3Dlg@h3@@3QBDB 1002a3c4     stdafx.obj
 0002:000013c8       $SG76412                   1002a3c8     stdafx.obj
 0002:000013d8       ?DLGBLUEBACK@HDassets@NH3Dlg@h3@@3QBDB 1002a3d8     stdafx.obj
 0002:000013dc       $SG76414                   1002a3dc     stdafx.obj
 0002:000013ec       ?LINE_SEPARATOR@HDassets@NH3Dlg@h3@@3QBDB 1002a3ec     stdafx.obj
 0002:000013f0       $SG76416                   1002a3f0     stdafx.obj
 0002:00001400       ?HD_STATUSBAR_PCX@HDassets@NH3Dlg@h3@@3QBDB 1002a400     stdafx.obj
 0002:00001404       $SG76418                   1002a404     stdafx.obj
 0002:00001414       $SG76420                   1002a414     stdafx.obj
 0002:00001424       $SG76422                   1002a424     stdafx.obj
 0002:00001430       $SG76424                   1002a430     stdafx.obj
 0002:0000143c       $SG76426                   1002a43c     stdafx.obj
 0002:0000144c       ?FRAME_LU@HDassets@NH3Dlg@h3@@3QBDB 1002a44c     stdafx.obj
 0002:00001450       $SG76428                   1002a450     stdafx.obj
 0002:00001460       ?FRAME_LD@HDassets@NH3Dlg@h3@@3QBDB 1002a460     stdafx.obj
 0002:00001464       $SG76430                   1002a464     stdafx.obj
 0002:00001474       ?FRAME_RU@HDassets@NH3Dlg@h3@@3QBDB 1002a474     stdafx.obj
 0002:00001478       $SG76432                   1002a478     stdafx.obj
 0002:00001488       ?FRAME_RD@HDassets@NH3Dlg@h3@@3QBDB 1002a488     stdafx.obj
 0002:0000148c       $SG76434                   1002a48c     stdafx.obj
 0002:0000149c       ?FRAME_U@HDassets@NH3Dlg@h3@@3QBDB 1002a49c     stdafx.obj
 0002:000014a0       $SG76436                   1002a4a0     stdafx.obj
 0002:000014ac       ?FRAME_D@HDassets@NH3Dlg@h3@@3QBDB 1002a4ac     stdafx.obj
 0002:000014b0       $SG76438                   1002a4b0     stdafx.obj
 0002:000014bc       ?FRAME_L@HDassets@NH3Dlg@h3@@3QBDB 1002a4bc     stdafx.obj
 0002:000014c0       $SG76440                   1002a4c0     stdafx.obj
 0002:000014cc       ?FRAME_R@HDassets@NH3Dlg@h3@@3QBDB 1002a4cc     stdafx.obj
 0002:000014d0       $SG76442                   1002a4d0     stdafx.obj
 0002:000014dc       ?NEW_LINE@h3@@3QBDB        1002a4dc     stdafx.obj
 0002:000014e0       ?KEY_EQUALS@h3@@3QBDB      1002a4e0     stdafx.obj
 0002:000014e4       ?BOM_HEADER@h3@@3QBDB      1002a4e4     stdafx.obj
 0002:000014e8       ?_Fake_alloc@std@@3U_Fake_allocator@1@B 1002a4e8     Summon.obj
 0002:000014ec       $SG76403                   1002a4ec     Summon.obj
 0002:000014f8       ?DLGBLUEBOX@HDassets@NH3Dlg@h3@@3QBDB 1002a4f8     Summon.obj
 0002:000014fc       $SG76412                   1002a4fc     Summon.obj
 0002:0000150c       ?DLGBLUEBACK@HDassets@NH3Dlg@h3@@3QBDB 1002a50c     Summon.obj
 0002:00001510       $SG76414                   1002a510     Summon.obj
 0002:00001520       ?LINE_SEPARATOR@HDassets@NH3Dlg@h3@@3QBDB 1002a520     Summon.obj
 0002:00001524       $SG76416                   1002a524     Summon.obj
 0002:00001534       ?HD_STATUSBAR_PCX@HDassets@NH3Dlg@h3@@3QBDB 1002a534     Summon.obj
 0002:00001538       $SG76418                   1002a538     Summon.obj
 0002:00001548       $SG76420                   1002a548     Summon.obj
 0002:00001558       $SG76422                   1002a558     Summon.obj
 0002:00001564       $SG76424                   1002a564     Summon.obj
 0002:00001570       $SG76426                   1002a570     Summon.obj
 0002:00001580       ?FRAME_LU@HDassets@NH3Dlg@h3@@3QBDB 1002a580     Summon.obj
 0002:00001584       $SG76428                   1002a584     Summon.obj
 0002:00001594       ?FRAME_LD@HDassets@NH3Dlg@h3@@3QBDB 1002a594     Summon.obj
 0002:00001598       $SG76430                   1002a598     Summon.obj
 0002:000015a8       ?FRAME_RU@HDassets@NH3Dlg@h3@@3QBDB 1002a5a8     Summon.obj
 0002:000015ac       $SG76432                   1002a5ac     Summon.obj
 0002:000015bc       ?FRAME_RD@HDassets@NH3Dlg@h3@@3QBDB 1002a5bc     Summon.obj
 0002:000015c0       $SG76434                   1002a5c0     Summon.obj
 0002:000015d0       ?FRAME_U@HDassets@NH3Dlg@h3@@3QBDB 1002a5d0     Summon.obj
 0002:000015d4       $SG76436                   1002a5d4     Summon.obj
 0002:000015e0       ?FRAME_D@HDassets@NH3Dlg@h3@@3QBDB 1002a5e0     Summon.obj
 0002:000015e4       $SG76438                   1002a5e4     Summon.obj
 0002:000015f0       ?FRAME_L@HDassets@NH3Dlg@h3@@3QBDB 1002a5f0     Summon.obj
 0002:000015f4       $SG76440                   1002a5f4     Summon.obj
 0002:00001600       ?FRAME_R@HDassets@NH3Dlg@h3@@3QBDB 1002a600     Summon.obj
 0002:00001604       $SG76442                   1002a604     Summon.obj
 0002:00001610       ?NEW_LINE@h3@@3QBDB        1002a610     Summon.obj
 0002:00001614       ?KEY_EQUALS@h3@@3QBDB      1002a614     Summon.obj
 0002:00001618       ?BOM_HEADER@h3@@3QBDB      1002a618     Summon.obj
 0002:0000161c       $SG114769                  1002a61c     tables.obj
 0002:00001646       ?_Fake_alloc@std@@3U_Fake_allocator@1@B 1002a646     tables.obj
 0002:00001647       $SG116942                  1002a647     tables.obj
 0002:00001648       $SG114801                  1002a648     tables.obj
 0002:00001652       $SG116963                  1002a652     tables.obj
 0002:00001654       $SG114803                  1002a654     tables.obj
 0002:0000166c       $SG114811                  1002a66c     tables.obj
 0002:00001680       $SG114813                  1002a680     tables.obj
 0002:00001694       $SG114815                  1002a694     tables.obj
 0002:000016a0       $SG114817                  1002a6a0     tables.obj
 0002:000016a8       $SG114819                  1002a6a8     tables.obj
 0002:000016b8       $SG114821                  1002a6b8     tables.obj
 0002:000016c0       $SG114823                  1002a6c0     tables.obj
 0002:000016c8       $SG114825                  1002a6c8     tables.obj
 0002:000016d4       $SG114827                  1002a6d4     tables.obj
 0002:000016e4       $SG114829                  1002a6e4     tables.obj
 0002:000016f4       $SG114831                  1002a6f4     tables.obj
 0002:00001704       $SG114833                  1002a704     tables.obj
 0002:00001718       $SG114835                  1002a718     tables.obj
 0002:0000172c       $SG114837                  1002a72c     tables.obj
 0002:00001740       $SG114839                  1002a740     tables.obj
 0002:00001754       $SG114841                  1002a754     tables.obj
 0002:0000176c       $SG114843                  1002a76c     tables.obj
 0002:00001780       $SG114845                  1002a780     tables.obj
 0002:00001794       $SG114847                  1002a794     tables.obj
 0002:000017a8       $SG114849                  1002a7a8     tables.obj
 0002:000017bc       $SG114851                  1002a7bc     tables.obj
 0002:000017d8       $SG114853                  1002a7d8     tables.obj
 0002:000017ec       $SG114855                  1002a7ec     tables.obj
 0002:00001800       $SG114857                  1002a800     tables.obj
 0002:00001814       $SG114859                  1002a814     tables.obj
 0002:00001828       $SG114861                  1002a828     tables.obj
 0002:0000183c       $SG114863                  1002a83c     tables.obj
 0002:00001850       $SG114865                  1002a850     tables.obj
 0002:00001868       $SG114867                  1002a868     tables.obj
 0002:00001878       $SG114869                  1002a878     tables.obj
 0002:00001884       $SG114871                  1002a884     tables.obj
 0002:00001894       $SG114873                  1002a894     tables.obj
 0002:000018a4       $SG114875                  1002a8a4     tables.obj
 0002:000018b0       $SG114877                  1002a8b0     tables.obj
 0002:000018bc       $SG114879                  1002a8bc     tables.obj
 0002:000018c8       $SG114881                  1002a8c8     tables.obj
 0002:000018e8       $SG114883                  1002a8e8     tables.obj
 0002:00001904       $SG114885                  1002a904     tables.obj
 0002:00001920       $SG114887                  1002a920     tables.obj
 0002:0000193c       $SG114889                  1002a93c     tables.obj
 0002:00001954       $SG114891                  1002a954     tables.obj
 0002:0000196c       $SG114893                  1002a96c     tables.obj
 0002:00001978       $SG114895                  1002a978     tables.obj
 0002:00001988       $SG114897                  1002a988     tables.obj
 0002:00001994       $SG114899                  1002a994     tables.obj
 0002:000019a0       $SG114901                  1002a9a0     tables.obj
 0002:000019b8       $SG114903                  1002a9b8     tables.obj
 0002:000019cc       $SG114905                  1002a9cc     tables.obj
 0002:000019e4       $SG114907                  1002a9e4     tables.obj
 0002:000019f8       $SG114909                  1002a9f8     tables.obj
 0002:00001a10       $SG114911                  1002aa10     tables.obj
 0002:00001a24       $SG114913                  1002aa24     tables.obj
 0002:00001a30       $SG114915                  1002aa30     tables.obj
 0002:00001a3c       $SG114917                  1002aa3c     tables.obj
 0002:00001a44       $SG114919                  1002aa44     tables.obj
 0002:00001a50       $SG114921                  1002aa50     tables.obj
 0002:00001a60       $SG114923                  1002aa60     tables.obj
 0002:00001a70       $SG114925                  1002aa70     tables.obj
 0002:00001a84       $SG114927                  1002aa84     tables.obj
 0002:00001a90       $SG114929                  1002aa90     tables.obj
 0002:00001aa0       $SG114931                  1002aaa0     tables.obj
 0002:00001ab0       $SG114933                  1002aab0     tables.obj
 0002:00001ac4       $SG114935                  1002aac4     tables.obj
 0002:00001ad4       $SG114937                  1002aad4     tables.obj
 0002:00001ae4       $SG114939                  1002aae4     tables.obj
 0002:00001af8       $SG114941                  1002aaf8     tables.obj
 0002:00001b10       $SG114943                  1002ab10     tables.obj
 0002:00001b20       $SG114945                  1002ab20     tables.obj
 0002:00001b30       $SG114947                  1002ab30     tables.obj
 0002:00001b3c       $SG114949                  1002ab3c     tables.obj
 0002:00001b48       $SG114951                  1002ab48     tables.obj
 0002:00001b58       $SG114953                  1002ab58     tables.obj
 0002:00001b68       $SG114955                  1002ab68     tables.obj
 0002:00001b80       $SG114957                  1002ab80     tables.obj
 0002:00001b94       $SG114959                  1002ab94     tables.obj
 0002:00001ba4       $SG114961                  1002aba4     tables.obj
 0002:00001bb4       $SG114964                  1002abb4     tables.obj
 0002:00001bc0       $SG114966                  1002abc0     tables.obj
 0002:00001bcc       $SG114968                  1002abcc     tables.obj
 0002:00001bdc       $SG114970                  1002abdc     tables.obj
 0002:00001bec       $SG114972                  1002abec     tables.obj
 0002:00001bfc       $SG114974                  1002abfc     tables.obj
 0002:00001c0c       $SG114976                  1002ac0c     tables.obj
 0002:00001c14       $SG114978                  1002ac14     tables.obj
 0002:00001c1c       $SG114980                  1002ac1c     tables.obj
 0002:00001c24       $SG114982                  1002ac24     tables.obj
 0002:00001c2c       $SG114984                  1002ac2c     tables.obj
 0002:00001c34       $SG114986                  1002ac34     tables.obj
 0002:00001c40       $SG114988                  1002ac40     tables.obj
 0002:00001c4c       $SG114990                  1002ac4c     tables.obj
 0002:00001c58       $SG114992                  1002ac58     tables.obj
 0002:00001c60       $SG114994                  1002ac60     tables.obj
 0002:00001c70       $SG114996                  1002ac70     tables.obj
 0002:00001c7c       $SG114998                  1002ac7c     tables.obj
 0002:00001c88       $SG115000                  1002ac88     tables.obj
 0002:00001c98       $SG115002                  1002ac98     tables.obj
 0002:00001ca4       $SG115004                  1002aca4     tables.obj
 0002:00001cb0       $SG115006                  1002acb0     tables.obj
 0002:00001cbc       $SG115008                  1002acbc     tables.obj
 0002:00001cc8       $SG115010                  1002acc8     tables.obj
 0002:00001cd4       $SG115012                  1002acd4     tables.obj
 0002:00001ce0       $SG115014                  1002ace0     tables.obj
 0002:00001cec       $SG115016                  1002acec     tables.obj
 0002:00001cf4       $SG115018                  1002acf4     tables.obj
 0002:00001cf8       $SG115020                  1002acf8     tables.obj
 0002:00001d00       $SG115022                  1002ad00     tables.obj
 0002:00001d08       $SG115024                  1002ad08     tables.obj
 0002:00001d10       $SG115026                  1002ad10     tables.obj
 0002:00001d18       $SG115028                  1002ad18     tables.obj
 0002:00001d28       $SG115030                  1002ad28     tables.obj
 0002:00001d38       $SG115032                  1002ad38     tables.obj
 0002:00001d4c       $SG115034                  1002ad4c     tables.obj
 0002:00001d64       $SG115036                  1002ad64     tables.obj
 0002:00001d70       $SG115038                  1002ad70     tables.obj
 0002:00001d7c       $SG115040                  1002ad7c     tables.obj
 0002:00001d88       $SG115042                  1002ad88     tables.obj
 0002:00001d98       $SG115044                  1002ad98     tables.obj
 0002:00001da4       $SG115046                  1002ada4     tables.obj
 0002:00001db4       $SG115048                  1002adb4     tables.obj
 0002:00001dc4       $SG115050                  1002adc4     tables.obj
 0002:00001dd8       $SG115052                  1002add8     tables.obj
 0002:00001de8       $SG115054                  1002ade8     tables.obj
 0002:00001dfc       $SG115056                  1002adfc     tables.obj
 0002:00001e0c       $SG115058                  1002ae0c     tables.obj
 0002:00001e1c       $SG115060                  1002ae1c     tables.obj
 0002:00001e28       $SG115063                  1002ae28     tables.obj
 0002:00001e3c       $SG115065                  1002ae3c     tables.obj
 0002:00001e50       $SG115067                  1002ae50     tables.obj
 0002:00001e64       $SG115069                  1002ae64     tables.obj
 0002:00001e70       $SG115071                  1002ae70     tables.obj
 0002:00001e7c       $SG115087                  1002ae7c     tables.obj
 0002:00001e94       $SG115089                  1002ae94     tables.obj
 0002:00001e98       $SG115148                  1002ae98     tables.obj
 0002:00001eb0       ?sizeof_H3CombatMonster@@3JB 1002aeb0     tables.obj
 0002:00001eb4       $SG115331                  1002aeb4     tables.obj
 0002:00001ee8       $SG115449                  1002aee8     tables.obj
 0002:00001f1c       $SG115452                  1002af1c     tables.obj
 0002:00001f54       $SG115455                  1002af54     tables.obj
 0002:00001f8c       ?sizeof_Creature_@@3HB     1002af8c     tables.obj
 0002:00001f90       $SG115709                  1002af90     tables.obj
 0002:00001fa8       $SG116833                  1002afa8     tables.obj
 0002:00001fc0       $SG116834                  1002afc0     tables.obj
 0002:00001fc4       $SG116836                  1002afc4     tables.obj
 0002:00001fcc       $SG116841                  1002afcc     tables.obj
 0002:00001fdc       $SG116842                  1002afdc     tables.obj
 0002:00001ff0       $SG116856                  1002aff0     tables.obj
 0002:00002004       $SG116857                  1002b004     tables.obj
 0002:00002008       $SG116859                  1002b008     tables.obj
 0002:0000201c       $SG116862                  1002b01c     tables.obj
 0002:0000202c       $SG116863                  1002b02c     tables.obj
 0002:0000203c       $SG116864                  1002b03c     tables.obj
 0002:00002054       $SG116865                  1002b054     tables.obj
 0002:00002064       $SG117286                  1002b064     tables.obj
 0002:0000207c       $SG117288                  1002b07c     tables.obj
 0002:00002080       $SG76403                   1002b080     tables.obj
 0002:0000208c       ?DLGBLUEBOX@HDassets@NH3Dlg@h3@@3QBDB 1002b08c     tables.obj
 0002:00002090       $SG76412                   1002b090     tables.obj
 0002:000020a0       ?DLGBLUEBACK@HDassets@NH3Dlg@h3@@3QBDB 1002b0a0     tables.obj
 0002:000020a4       $SG76414                   1002b0a4     tables.obj
 0002:000020b4       ?LINE_SEPARATOR@HDassets@NH3Dlg@h3@@3QBDB 1002b0b4     tables.obj
 0002:000020b8       $SG76416                   1002b0b8     tables.obj
 0002:000020c8       ?HD_STATUSBAR_PCX@HDassets@NH3Dlg@h3@@3QBDB 1002b0c8     tables.obj
 0002:000020cc       $SG76418                   1002b0cc     tables.obj
 0002:000020dc       $SG76420                   1002b0dc     tables.obj
 0002:000020ec       $SG76422                   1002b0ec     tables.obj
 0002:000020f8       $SG76424                   1002b0f8     tables.obj
 0002:00002104       $SG76426                   1002b104     tables.obj
 0002:00002114       ?FRAME_LU@HDassets@NH3Dlg@h3@@3QBDB 1002b114     tables.obj
 0002:00002118       $SG76428                   1002b118     tables.obj
 0002:00002128       ?FRAME_LD@HDassets@NH3Dlg@h3@@3QBDB 1002b128     tables.obj
 0002:0000212c       $SG76430                   1002b12c     tables.obj
 0002:0000213c       ?FRAME_RU@HDassets@NH3Dlg@h3@@3QBDB 1002b13c     tables.obj
 0002:00002140       $SG76432                   1002b140     tables.obj
 0002:00002150       ?FRAME_RD@HDassets@NH3Dlg@h3@@3QBDB 1002b150     tables.obj
 0002:00002154       $SG76434                   1002b154     tables.obj
 0002:00002164       ?FRAME_U@HDassets@NH3Dlg@h3@@3QBDB 1002b164     tables.obj
 0002:00002168       $SG76436                   1002b168     tables.obj
 0002:00002174       ?FRAME_D@HDassets@NH3Dlg@h3@@3QBDB 1002b174     tables.obj
 0002:00002178       $SG76438                   1002b178     tables.obj
 0002:00002184       ?FRAME_L@HDassets@NH3Dlg@h3@@3QBDB 1002b184     tables.obj
 0002:00002188       $SG76440                   1002b188     tables.obj
 0002:00002194       ?FRAME_R@HDassets@NH3Dlg@h3@@3QBDB 1002b194     tables.obj
 0002:00002198       $SG76442                   1002b198     tables.obj
 0002:000021a4       ?NEW_LINE@h3@@3QBDB        1002b1a4     tables.obj
 0002:000021a8       ?KEY_EQUALS@h3@@3QBDB      1002b1a8     tables.obj
 0002:000021ac       ?BOM_HEADER@h3@@3QBDB      1002b1ac     tables.obj
 0002:000021b0       ?MON_Sizeof@@3HB           1002b1b0     tables.obj
 0002:000021b4       ?homm3_rand@@3JB           1002b1b4     tables.obj
 0002:000021b8       ?CombatMan_SummonMonster@@3JB 1002b1b8     tables.obj
 0002:000021e8       _GS_ExceptionPointers      1002b1e8     LIBCMT:gs_report.obj
 0002:00002218       ?tokenTable@@3QBUStringLiteral@@B 1002b218     libvcruntime:undname.obj
 0002:000022a0       ?nameTable@@3QBUStringLiteral@@B 1002b2a0     libvcruntime:undname.obj
 0002:00002538       ?rttiTable@@3QBUStringLiteral@@B 1002b538     libvcruntime:undname.obj
 0002:00002560       ?IndirectionName@@3QBUStringLiteral@@B 1002b560     libvcruntime:undname.obj
 0002:00002590       ?PrefixName@@3QBUStringLiteral@@B 1002b590     libvcruntime:undname.obj
 0002:00002bcc       ?module_names@?A0x14174aea@@3QBQB_WB 1002bbcc     libvcruntime:winapi_downlevel.obj
 0002:00002c74       ?candidate_modules@?1??try_get_FlsAlloc@@YAP6GKP6GXPAX@Z@ZXZ@4QBW4module_id@?A0x14174aea@@B 1002bc74     libvcruntime:winapi_downlevel.obj
 0002:00002c88       ?candidate_modules@?1??try_get_FlsFree@@YAP6GHK@ZXZ@4QBW4module_id@?A0x14174aea@@B 1002bc88     libvcruntime:winapi_downlevel.obj
 0002:00002c98       ?candidate_modules@?1??try_get_FlsGetValue@@YAP6GPAXK@ZXZ@4QBW4module_id@?A0x14174aea@@B 1002bc98     libvcruntime:winapi_downlevel.obj
 0002:00002cac       ?candidate_modules@?1??try_get_FlsSetValue@@YAP6GHKPAX@ZXZ@4QBW4module_id@?A0x14174aea@@B 1002bcac     libvcruntime:winapi_downlevel.obj
 0002:00002cc0       ?candidate_modules@?1??try_get_InitializeCriticalSectionEx@@YAP6GHPAU_RTL_CRITICAL_SECTION@@KK@ZXZ@4QBW4module_id@?A0x14174aea@@B 1002bcc0     libvcruntime:winapi_downlevel.obj
 0002:00003ad0       ___acrt_initializers       1002cad0     libucrt:initialization.obj
 0002:00003b50       ?errtable@@3QBUerrentry@?A0x31fdb9ec@@B 1002cb50     libucrt:errno.obj
 0002:00003cb8       ?strings@?1??fp_format_nan_or_infinity@@YAHW4__acrt_fp_class@@_NPADI1@Z@4QAY03QBDA 1002ccb8     libucrt:cvt.obj
 0002:00004820       ?module_names@?A0x391cf84c@@3QBQB_WB 1002d820     libucrt:winapi_thunks.obj
 0002:00004cd4       ?candidate_modules@?1??try_get_AreFileApisANSI@@YAP6GHXZXZ@4QBW4module_id@?A0x391cf84c@@B 1002dcd4     libucrt:winapi_thunks.obj
 0002:00004ce8       ?candidate_modules@?1??try_get_InitializeCriticalSectionEx@@YAP6GHPAU_RTL_CRITICAL_SECTION@@KK@ZXZ@4QBW4module_id@?A0x391cf84c@@B 1002dce8     libucrt:winapi_thunks.obj
 0002:00004cf0       ?candidate_modules@?1??try_get_LCMapStringEx@@YAP6GHPB_WK0HPA_WHPAU_nlsversioninfo@@PAXJ@ZXZ@4QBW4module_id@?A0x391cf84c@@B 1002dcf0     libucrt:winapi_thunks.obj
 0002:00004d08       ?candidate_modules@?1??try_get_LocaleNameToLCID@@YAP6GKPB_WK@ZXZ@4QBW4module_id@?A0x391cf84c@@B 1002dd08     libucrt:winapi_thunks.obj
 0002:00004d24       ?candidate_modules@?1??try_get_AppPolicyGetProcessTerminationMethod@@YAP6GJPAXPAW4AppPolicyProcessTerminationMethod@@@ZXZ@4QBW4module_id@?A0x391cf84c@@B 1002dd24     libucrt:winapi_thunks.obj
 0002:00004d50       ?candidate_modules@?1??try_get_FlsAlloc@@YAP6GKP6GXPAX@Z@ZXZ@4QBW4module_id@?A0x391cf84c@@B 1002dd50     libucrt:winapi_thunks.obj
 0002:00004d58       ?candidate_modules@?1??try_get_FlsFree@@YAP6GHK@ZXZ@4QBW4module_id@?A0x391cf84c@@B 1002dd58     libucrt:winapi_thunks.obj
 0002:00004d60       ?candidate_modules@?1??try_get_FlsGetValue@@YAP6GPAXK@ZXZ@4QBW4module_id@?A0x391cf84c@@B 1002dd60     libucrt:winapi_thunks.obj
 0002:00004d68       ?candidate_modules@?1??try_get_FlsSetValue@@YAP6GHKPAX@ZXZ@4QBW4module_id@?A0x391cf84c@@B 1002dd68     libucrt:winapi_thunks.obj
 0002:00004d70       ?_mb_locale_names@@3QBQB_WB 1002dd70     libucrt:mbctype.obj
 0002:00004de0       ?LcidToLocaleNameTable@?A0x881e4c05@@3QBULcidToLocaleName@1@B 1002dde0     libucrt:lcidtoname_downlevel.obj
 0002:00005f00       ?LocaleNameToIndexTable@?A0x881e4c05@@3QBULocaleNameIndex@1@B 1002ef00     libucrt:lcidtoname_downlevel.obj
 0002:00006e50       LOG_name                   1002fe50     libucrt:log10_impl.obj
 0002:00006e60       _One                       1002fe60     libucrt:ceil_pentium4.obj
 0002:00006e70       _Bns                       1002fe70     libucrt:ceil_pentium4.obj
 0002:00006e80       _Zero                      1002fe80     libucrt:ceil_pentium4.obj
 0002:00006e90       _S                         1002fe90     libucrt:ceil_pentium4.obj
 0002:00006ea0       _NegZero                   1002fea0     libucrt:ceil_pentium4.obj
 0002:00006eb0       emask                      1002feb0     libucrt:log10_pentium4.obj
 0002:00006ec0       CC                         1002fec0     libucrt:log10_pentium4.obj
 0002:00006ed0       Magic                      1002fed0     libucrt:log10_pentium4.obj
 0002:00006ee0       hi_mask                    1002fee0     libucrt:log10_pentium4.obj
 0002:00006ef0       LOG10_2                    1002fef0     libucrt:log10_pentium4.obj
 0002:00006f00       place_L                    1002ff00     libucrt:log10_pentium4.obj
 0002:00006f20       One                        1002ff20     libucrt:log10_pentium4.obj
 0002:00006f30       Zero                       1002ff30     libucrt:log10_pentium4.obj
 0002:00006f40       Two52                      1002ff40     libucrt:log10_pentium4.obj
 0002:00006f50       Infs                       1002ff50     libucrt:log10_pentium4.obj
 0002:00006f60       NaN                        1002ff60     libucrt:log10_pentium4.obj
 0002:00006f70       coeff                      1002ff70     libucrt:log10_pentium4.obj
 0002:00006fde       _log2max                   1002ffde     libucrt:87tran.obj
 0002:00006fe8       _smallarg                  1002ffe8     libucrt:87tran.obj
 0002:00006ff2       _half                      1002fff2     libucrt:87tran.obj
 0002:0000703e       One                        1003003e     libucrt:87disp.obj
 0002:00007046       Three                      10030046     libucrt:87disp.obj
 0002:0000704e       XAMtoTagTab                1003004e     libucrt:87disp.obj
 0002:00007060       One                        10030060     libucrt:common.obj
 0002:00007074       DblMax                     10030074     libucrt:common.obj
 0002:0000707c       DblMin                     1003007c     libucrt:common.obj
 0002:00007084       IeeeAdjO                   10030084     libucrt:common.obj
 0002:0000708c       IeeeAdjU                   1003008c     libucrt:common.obj
 0002:00007094       _infinity                  10030094     libucrt:common.obj
 0002:0000709c       _zero                      1003009c     libucrt:common.obj
 0002:000070e0       _over                      100300e0     libucrt:fpctrl.obj
 0002:000070ec       _under                     100300ec     libucrt:fpctrl.obj
 0002:00007928       ?_names@?1??_get_fname@@9@4QBU<unnamed-type-_names>@?1??1@YAPADI@Z@B 10030928     libucrt:fpexcept.obj
 0002:00007ad0       two32                      10030ad0     LIBCMT:ftol2.obj
 0002:00007ad4       two63                      10030ad4     LIBCMT:ftol2.obj
 0002:00007ad8       _NaN                       10030ad8     LIBCMT:ftol2.obj
 0002:000081c8       __sehtable$?dllmain_crt_process_attach@@YAHQAUHINSTANCE__@@QAX@Z 100311c8     LIBCMT:dll_dllmain.obj
 0002:000081e8       __sehtable$?dllmain_crt_process_detach@@YAH_N@Z 100311e8     LIBCMT:dll_dllmain.obj
 0002:00008210       __sehtable$?dllmain_dispatch@@YAHQAUHINSTANCE__@@KQAX@Z 10031210     LIBCMT:dll_dllmain.obj
 0002:00008230       __sehtable$___scrt_is_nonwritable_in_current_image 10031230     LIBCMT:utility.obj
 0002:00008250       __sehtable$___DestructExceptionObject 10031250     libvcruntime:ehhelpers.obj
 0002:00008270       __sehtable$?FrameUnwindToState@__FrameHandler3@@SAXPAUEHRegistrationNode@@PAXPBU_s_FuncInfo@@H@Z 10031270     libvcruntime:frame.obj
 0002:00008298       __sehtable$?CallCatchBlock@@YAPAXPAUEHExceptionRecord@@PAUEHRegistrationNode@@PAU_CONTEXT@@PBU_s_FuncInfo@@PAXHK@Z 10031298     libvcruntime:frame.obj
 0002:000082c0       __catchsym$?CallUnexpected@@YAXPBU_s_ESTypeList@@@Z$2 100312c0     libvcruntime:frame.obj
 0002:000082d0       __unwindtable$?CallUnexpected@@YAXPBU_s_ESTypeList@@@Z 100312d0     libvcruntime:frame.obj
 0002:000082e0       __tryblocktable$?CallUnexpected@@YAXPBU_s_ESTypeList@@@Z 100312e0     libvcruntime:frame.obj
 0002:000082f4       __ehfuncinfo$?CallUnexpected@@YAXPBU_s_ESTypeList@@@Z 100312f4     libvcruntime:frame.obj
 0002:00008318       __sehtable$??$BuildCatchObjectHelperInternal@V__FrameHandler3@@@@YAHPAUEHExceptionRecord@@PAXPBU_s_HandlerType@@PBU_s_CatchableType@@@Z 10031318     libvcruntime:frame.obj
 0002:00008338       __sehtable$??$BuildCatchObjectInternal@V__FrameHandler3@@@@YAXPAUEHExceptionRecord@@PAXPBU_s_HandlerType@@PBU_s_CatchableType@@@Z 10031338     libvcruntime:frame.obj
 0002:00008390       __sehtable$??$?RV<lambda_62491a2101a2aba6cc4a769149c84f1f>@@AAV<lambda_826c27fce7726908515bbc79a5266961>@@V<lambda_4e64bbd54b50a7b070e3ea8d795375b6>@@@?$__crt_seh_guarded_call@H@@QAEH$$QAV<lambda_62491a2101a2aba6cc4a769149c84f1f>@@AAV<lambda_826c27fce7726908515bbc79a5266961>@@$$QAV<lambda_4e64bbd54b50a7b070e3ea8d795375b6>@@@Z 10031390     libucrt:output.obj
 0002:000083b0       __sehtable$?_fclose_internal@@YAHQAU_iobuf@@AAV__crt_cached_ptd_host@@@Z 100313b0     libucrt:fclose.obj
 0002:000083d0       __sehtable$??$common_fsopen@D@@YAPAU_iobuf@@QBD0H@Z 100313d0     libucrt:fopen.obj
 0002:000083f0       __sehtable$_fread_s        100313f0     libucrt:fread.obj
 0002:00008410       __sehtable$?common_fseek@@YAHV__crt_stdio_stream@@_JHAAV__crt_cached_ptd_host@@@Z 10031410     libucrt:fseek.obj
 0002:00008430       __sehtable$??$common_ftell@J@@YAJV__crt_stdio_stream@@AAV__crt_cached_ptd_host@@@Z 10031430     libucrt:ftell.obj
 0002:00008450       __sehtable$?_rewind_internal@@YAXQAU_iobuf@@AAV__crt_cached_ptd_host@@@Z 10031450     libucrt:rewind.obj
 0002:00008470       __sehtable$??$?RV<lambda_274ecf0a8038e561263518ab346655e8>@@AAV<lambda_21448eb78dd3c4a522ed7c65a98d88e6>@@V<lambda_0ca1de2171e49cefb1e8dc85c06db622>@@@?$__crt_seh_guarded_call@H@@QAEH$$QAV<lambda_274ecf0a8038e561263518ab346655e8>@@AAV<lambda_21448eb78dd3c4a522ed7c65a98d88e6>@@$$QAV<lambda_0ca1de2171e49cefb1e8dc85c06db622>@@@Z 10031470     libucrt:input.obj
 0002:00008490       __sehtable$__query_new_handler 10031490     libucrt:new_handler.obj
 0002:000084ac       __ehfuncinfo$?write_double_translated_ansi_nolock@@YA?AUwrite_result@?A0x17268360@@HQBDIAAV__crt_cached_ptd_host@@@Z 100314ac     libucrt:write.obj
 0002:000084ac       __ehfuncinfo$?try_cor_exit_process@@YAXI@Z 100314ac     libucrt:exit.obj
 0002:000084d0       __unwindtable$?common_exit@@YAXHW4_crt_exit_cleanup_mode@@W4_crt_exit_return_mode@@@Z 100314d0     libucrt:exit.obj
 0002:000084d8       __ehfuncinfo$?common_exit@@YAXHW4_crt_exit_cleanup_mode@@W4_crt_exit_return_mode@@@Z 100314d8     libucrt:exit.obj
 0002:00008500       __sehtable$??R<lambda_6e4b09c48022b2350581041d5f6b0c4c>@@QBE@XZ 10031500     libucrt:exit.obj
 0002:00008520       __sehtable$??$?RV<lambda_03b1d95aef87969028cfba75ccab2455>@@AAV<lambda_6e4b09c48022b2350581041d5f6b0c4c>@@V<lambda_22bdf7517842c4b3e53723af5aa32b9e>@@@?$__crt_seh_guarded_call@X@@QAEX$$QAV<lambda_03b1d95aef87969028cfba75ccab2455>@@AAV<lambda_6e4b09c48022b2350581041d5f6b0c4c>@@$$QAV<lambda_22bdf7517842c4b3e53723af5aa32b9e>@@@Z 10031520     libucrt:exit.obj
 0002:0000853c       __unwindtable$___dcrt_uninitialize_environments_nolock 1003153c     libucrt:environment_initialization.obj
 0002:0000854c       __ehfuncinfo$___dcrt_uninitialize_environments_nolock 1003154c     libucrt:environment_initialization.obj
 0002:00008570       __unwindtable$__execute_onexit_table 10031570     libucrt:onexit.obj
 0002:00008578       __ehfuncinfo$__execute_onexit_table 10031578     libucrt:onexit.obj
 0002:000085a0       __sehtable$??$?RV<lambda_69a2805e680e0e292e8ba93315fe43a8>@@AAV<lambda_f03950bc5685219e0bcd2087efbe011e>@@V<lambda_03fcd07e894ec930e3f35da366ca99d6>@@@?$__crt_seh_guarded_call@H@@QAEH$$QAV<lambda_69a2805e680e0e292e8ba93315fe43a8>@@AAV<lambda_f03950bc5685219e0bcd2087efbe011e>@@$$QAV<lambda_03fcd07e894ec930e3f35da366ca99d6>@@@Z 100315a0     libucrt:onexit.obj
 0002:000085c0       __sehtable$_terminate      100315c0     libucrt:terminate.obj
 0002:000085e0       __sehtable$??$?RV<lambda_15ade71b0218206bbe3333a0c9b79046>@@AAV<lambda_da44e0f8b0f19ba52fefafb335991732>@@V<lambda_207f2d024fc103971653565357d6cd41>@@@?$__crt_seh_guarded_call@X@@QAEX$$QAV<lambda_15ade71b0218206bbe3333a0c9b79046>@@AAV<lambda_da44e0f8b0f19ba52fefafb335991732>@@$$QAV<lambda_207f2d024fc103971653565357d6cd41>@@@Z 100315e0     libucrt:per_thread_data.obj
 0002:00008600       __sehtable$??$?RV<lambda_a7e850c220f1c8d1e6efeecdedd162c6>@@AAV<lambda_46720907175c18b6c9d2717bc0d2d362>@@V<lambda_9048902d66e8d99359bc9897bbb930a8>@@@?$__crt_seh_guarded_call@X@@QAEX$$QAV<lambda_a7e850c220f1c8d1e6efeecdedd162c6>@@AAV<lambda_46720907175c18b6c9d2717bc0d2d362>@@$$QAV<lambda_9048902d66e8d99359bc9897bbb930a8>@@@Z 10031600     libucrt:per_thread_data.obj
 0002:00008620       __sehtable$??$?RV<lambda_38edbb1296d33220d7e4dd0ed76b244a>@@AAV<lambda_5ce1d447e08cb34b2473517608e21441>@@V<lambda_fb385d3da700c9147fc39e65dd577a8c>@@@?$__crt_seh_guarded_call@X@@QAEX$$QAV<lambda_38edbb1296d33220d7e4dd0ed76b244a>@@AAV<lambda_5ce1d447e08cb34b2473517608e21441>@@$$QAV<lambda_fb385d3da700c9147fc39e65dd577a8c>@@@Z 10031620     libucrt:per_thread_data.obj
 0002:00008640       __sehtable$??$?RV<lambda_6affb1475c98b40b75cdec977db92e3c>@@AAV<lambda_b8d4b9c228a6ecc3f80208dbb4b4a104>@@V<lambda_608742c3c92a14382c1684fc64f96c88>@@@?$__crt_seh_guarded_call@X@@QAEX$$QAV<lambda_6affb1475c98b40b75cdec977db92e3c>@@AAV<lambda_b8d4b9c228a6ecc3f80208dbb4b4a104>@@$$QAV<lambda_608742c3c92a14382c1684fc64f96c88>@@@Z 10031640     libucrt:per_thread_data.obj
 0002:00008660       __sehtable$??$?RV<lambda_e5124f882df8998aaf41531e079ba474>@@AAV<lambda_3e16ef9562a7dcce91392c22ab16ea36>@@V<lambda_e25ca0880e6ef98be67edffd8c599615>@@@?$__crt_seh_guarded_call@X@@QAEX$$QAV<lambda_e5124f882df8998aaf41531e079ba474>@@AAV<lambda_3e16ef9562a7dcce91392c22ab16ea36>@@$$QAV<lambda_e25ca0880e6ef98be67edffd8c599615>@@@Z 10031660     libucrt:wsetlocale.obj
 0002:00008680       __sehtable$___acrt_initialize_lowio 10031680     libucrt:ioinit.obj
 0002:000086a0       __sehtable$??$?RV<lambda_d422a76eb4c3bf3ad751449ab71a6ea4>@@AAV<lambda_c9ba49e555ba839a7b07aa3fbecb7617>@@V<lambda_9476263c8ee91a25d21c55370bdb50de>@@@?$__crt_seh_guarded_call@H@@QAEH$$QAV<lambda_d422a76eb4c3bf3ad751449ab71a6ea4>@@AAV<lambda_c9ba49e555ba839a7b07aa3fbecb7617>@@$$QAV<lambda_9476263c8ee91a25d21c55370bdb50de>@@@Z 100316a0     libucrt:close.obj
 0002:000086c0       __sehtable$?__acrt_stdio_allocate_stream@@YA?AV__crt_stdio_stream@@XZ 100316c0     libucrt:stream.obj
 0002:000086e0       __sehtable$??$?RV<lambda_2866be3712abc81a800a822484c830d8>@@AAV<lambda_39ca0ed439415581b5b15c265174cece>@@V<lambda_2b24c74d71094a6cd0cb82e44167d71b>@@@?$__crt_seh_guarded_call@X@@QAEX$$QAV<lambda_2866be3712abc81a800a822484c830d8>@@AAV<lambda_39ca0ed439415581b5b15c265174cece>@@$$QAV<lambda_2b24c74d71094a6cd0cb82e44167d71b>@@@Z 100316e0     libucrt:fflush.obj
 0002:00008700       __sehtable$??$?RV<lambda_2cc53f568c5a2bb6f192f930a45d44ea>@@AAV<lambda_ab61a845afdef5b7c387490eaf3616ee>@@V<lambda_c2ffc0b7726aa6be21d5f0026187e748>@@@?$__crt_seh_guarded_call@X@@QAEX$$QAV<lambda_2cc53f568c5a2bb6f192f930a45d44ea>@@AAV<lambda_ab61a845afdef5b7c387490eaf3616ee>@@$$QAV<lambda_c2ffc0b7726aa6be21d5f0026187e748>@@@Z 10031700     libucrt:fflush.obj
 0002:00008720       __sehtable$__read          10031720     libucrt:read.obj
 0002:00008740       __sehtable$??$common_lseek@J@@YAJHJHAAV__crt_cached_ptd_host@@@Z 10031740     libucrt:lseek.obj
 0002:00008760       __sehtable$??$common_lseek@_J@@YA_JH_JHAAV__crt_cached_ptd_host@@@Z 10031760     libucrt:lseek.obj
 0002:00008780       __sehtable$?update_thread_multibyte_data_internal@@YAPAU__crt_multibyte_data@@QAU__acrt_ptd@@QAPAU1@@Z 10031780     libucrt:mbctype.obj
 0002:000087a0       __sehtable$??$?RV<lambda_ceb1ee4838e85a9d631eb091e2fbe199>@@AAV<lambda_ae742caa10f662c28703da3d2ea5e57e>@@V<lambda_cd08b5d6af4937fe54fc07d0c9bf6b37>@@@?$__crt_seh_guarded_call@X@@QAEX$$QAV<lambda_ceb1ee4838e85a9d631eb091e2fbe199>@@AAV<lambda_ae742caa10f662c28703da3d2ea5e57e>@@$$QAV<lambda_cd08b5d6af4937fe54fc07d0c9bf6b37>@@@Z 100317a0     libucrt:mbctype.obj
 0002:000087c0       __sehtable$_raise          100317c0     libucrt:signal.obj
 0002:000087e0       __sehtable$??$?RV<lambda_cbab9ec6f41b0180b23cc171c22676b0>@@AAV<lambda_44731a7d0e6d81c3e6aa82d741081786>@@V<lambda_4b292cb8dd18144e164572427af410ab>@@@?$__crt_seh_guarded_call@P6AXH@Z@@QAEP6AXH@Z$$QAV<lambda_cbab9ec6f41b0180b23cc171c22676b0>@@AAV<lambda_44731a7d0e6d81c3e6aa82d741081786>@@$$QAV<lambda_4b292cb8dd18144e164572427af410ab>@@@Z 100317e0     libucrt:signal.obj
 0002:00008800       __sehtable$___acrt_update_thread_locale_data 10031800     libucrt:locale_refcounting.obj
 0002:00008820       __sehtable$__fcloseall     10031820     libucrt:closeall.obj
 0002:00008840       __sehtable$__alloc_osfhnd  10031840     libucrt:osfinfo.obj
 0002:00008860       __sehtable$___acrt_lowio_ensure_fh_exists 10031860     libucrt:osfinfo.obj
 0002:00008880       __sehtable$??$?RV<lambda_9e9de3de5fa147e2223d7db92bc10aa6>@@AAV<lambda_38ce7e780aa69e748d6df282ebc68efe>@@V<lambda_8ca6da459f0f6780f1cff60fdc3d00e5>@@@?$__crt_seh_guarded_call@H@@QAEH$$QAV<lambda_9e9de3de5fa147e2223d7db92bc10aa6>@@AAV<lambda_38ce7e780aa69e748d6df282ebc68efe>@@$$QAV<lambda_8ca6da459f0f6780f1cff60fdc3d00e5>@@@Z 10031880     libucrt:commit.obj
 0002:000088a0       __sehtable$__write_internal 100318a0     libucrt:write.obj
 0002:000088c0       __sehtable$??$common_sopen_dispatch@D@@YAHQBDHHHQAHH@Z 100318c0     libucrt:open.obj
 0002:000088e0       __sehtable$___set_fpsr_sse2 100318e0     libucrt:fpctrl.obj
 0002:00008900       __sehtable$__IsNonwritableInCurrentImage 10031900     LIBCMT:pesect.obj
 0002:00008920       .edata                     10031920     amethyst2_4.exp
 0002:00008948       rgpv                       10031948     amethyst2_4.exp
 0002:00008968       rgszName                   10031968     amethyst2_4.exp
 0002:00008988       rgwOrd                     10031988     amethyst2_4.exp
 0002:00008998       szName                     10031998     amethyst2_4.exp
 0002:000089a8       $N00001                    100319a8     amethyst2_4.exp
 0002:000089bc       $N00002                    100319bc     amethyst2_4.exp
 0002:000089ce       $N00003                    100319ce     amethyst2_4.exp
 0002:000089e2       $N00004                    100319e2     amethyst2_4.exp
 0002:000089f3       $N00005                    100319f3     amethyst2_4.exp
 0002:00008a03       $N00006                    10031a03     amethyst2_4.exp
 0002:00008a0f       $N00007                    10031a0f     amethyst2_4.exp
 0002:00008a23       $N00008                    10031a23     amethyst2_4.exp
 0002:00008c0c       .idata$6                   10031c0c     kernel32:KERNEL32.dll
 0002:00008c28       .idata$6                   10031c28     user32:USER32.dll
 0003:00000b28       ?i@?1??fake_new@@YAHH@Z@4HA 10033b28     core.obj
 0003:000010c8       ?SG_Shift@@3PAY01HA        100340c8     Summon.obj
 0003:00002d80       ?first_time@?1??CreateAdditionalTables@@YAXXZ@4_NA 10035d80     tables.obj
 0003:000030e0       ?__vcrt_flsindex@@3KA      100360e0     libvcruntime:per_thread_data.obj
 0003:00003110       ?errno_no_memory@@3HA      10036110     libucrt:errno.obj
 0003:00003114       ?doserrno_no_memory@@3KA   10036114     libucrt:errno.obj
 0003:000031c0       ?__acrt_flsindex@@3KA      100361c0     libucrt:per_thread_data.obj
 0003:000035e8       __mbctypes                 100365e8     libucrt:mbctype.obj
 0003:000036f0       __mbcasemaps               100366f0     libucrt:mbctype.obj
 0003:000037f0       ?__rgctypeflag@@3PADA      100367f0     libucrt:mbctype.obj
 0003:000037f8       ?__rgcode_page_info@@3PAUcode_page_info@@A 100367f8     libucrt:mbctype.obj
 0003:00003950       ?__dcrt_lowio_console_output_handle@@3PAXA 10036950     libucrt:initcon.obj
 0003:00003954       ?__DAZ_ENABLED@?1??__set_fpsr_sse2@@9@9 10036954     libucrt:fpctrl.obj
 0003:00134a94       ?__once__@?1??ReloadExperienceConfig2@@YGXXZ@4_NA 10167a94     dllmain.obj
 0003:00194d58       ?SC_Type@@3HA              101c7d58     Summon.obj
 0003:00194d5c       ?SC_Num@@3HA               101c7d5c     Summon.obj
 0003:00194d60       ?SC_Pos@@3HA               101c7d60     Summon.obj
 0003:00194d64       ?SC_Side@@3HA              101c7d64     Summon.obj
 0003:00194d68       ?SC_Slot@@3HA              101c7d68     Summon.obj
 0003:00194d6c       ?SC_Redraw@@3HA            101c7d6c     Summon.obj
 0003:00194d70       ?SC_Flags@@3HA             101c7d70     Summon.obj
 0003:00194d74       ?SC_MStruct@@3PAEA         101c7d74     Summon.obj
 0003:0060e860       ?SAT_MonID@@3JA            10641860     tables.obj
 0003:0060e864       ?SAT_MonPTR@@3PAEA         10641864     tables.obj
 0003:0060e868       ?SAT_Ret@@3DA              10641868     tables.obj
 0003:0060ec70       _GS_ExceptionRecord        10641c70     LIBCMT:gs_report.obj
 0003:0060ecc0       _GS_ContextRecord          10641cc0     LIBCMT:gs_report.obj
 0003:0060ef8c       ?__proc_attached@@3HA      10641f8c     LIBCMT:dll_dllmain.obj
 0003:0060efa0       ?is_initialized_as_dll@@3_NA 10641fa0     LIBCMT:utility.obj
 0003:0060efa1       ?module_local_atexit_table_initialized@@3_NA 10641fa1     LIBCMT:utility.obj
 0003:0060efa4       ?module_local_atexit_table@@3U_onexit_table_t@@A 10641fa4     LIBCMT:utility.obj
 0003:0060efb0       ?module_local_at_quick_exit_table@@3U_onexit_table_t@@A 10641fb0     LIBCMT:utility.obj
 0003:0060efcc       ?__vcrt_startup_thread_ptd@@3U__vcrt_ptd@@A 10641fcc     libvcruntime:per_thread_data.obj
 0003:0060f01c       ?heap@@3V_HeapManager@@A   1064201c     libvcruntime:undname.obj
 0003:0060f030       ___vcrt_lock_table         10642030     libvcruntime:locks.obj
 0003:0060f048       ___vcrt_locks_initialized  10642048     libvcruntime:locks.obj
 0003:0060f04c       ?module_handles@@3PAPAUHINSTANCE__@@A 1064204c     libvcruntime:winapi_downlevel.obj
 0003:0060f058       ?function_pointers@@3PAPAXA 10642058     libvcruntime:winapi_downlevel.obj
 0003:0060f070       ?__acrt_invalid_parameter_handler@@3V?$dual_state_global@P6AXPB_W00II@Z@__crt_state_management@@A 10642070     libucrt:invalid_parameter.obj
 0003:0060f074       ?__acrt_new_handler@@3V?$dual_state_global@P6AHI@Z@__crt_state_management@@A 10642074     libucrt:new_handler.obj
 0003:0060f078       ?c_termination_complete@@3JA 10642078     libucrt:exit.obj
 0003:0060f07c       ?thread_local_exit_callback_func@@3P6GXPAXK0@ZA 1064207c     libucrt:exit.obj
 0003:0060f088       ?program_name@?1???$common_configure_argv@D@@YAHW4_crt_argv_mode@@@Z@4PADA 10642088     libucrt:argv_parsing.obj
 0003:0060f1b8       ?internal_state@?1??_mbtowc_internal@@9@4U_Mbstatet@@A 106421b8     libucrt:mbtowc.obj
 0003:0060f1cc       ?enable_percent_n@@3IA     106421cc     libucrt:printf_count_output.obj
 0003:0060f3e8       ?module_handles@@3PAPAUHINSTANCE__@@A 106423e8     libucrt:winapi_thunks.obj
 0003:0060f438       ?encoded_function_pointers@@3PAPAXA 10642438     libucrt:winapi_thunks.obj
 0003:0060f4c0       ?__acrt_lock_table@@3PAU_RTL_CRITICAL_SECTION@@A 106424c0     libucrt:locks.obj
 0003:0060f610       ?__acrt_locks_initialized@@3IA 10642610     libucrt:locks.obj
 0003:0060f620       ?fSystemSet@@3HA           10642620     libucrt:mbctype.obj
 0003:0060f624       ?initialized@?1??__acrt_initialize_multibyte@@9@4_NA 10642624     libucrt:mbctype.obj
 0003:0060f644       ?ctrlc_action@@3V?$dual_state_global@P6AXH@Z@__crt_state_management@@A 10642644     libucrt:signal.obj
 0003:0060f648       ?ctrlbreak_action@@3V?$dual_state_global@P6AXH@Z@__crt_state_management@@A 10642648     libucrt:signal.obj
 0003:0060f64c       ?abort_action@@3V?$dual_state_global@P6AXH@Z@__crt_state_management@@A 1064264c     libucrt:signal.obj
 0003:0060f650       ?term_action@@3V?$dual_state_global@P6AXH@Z@__crt_state_management@@A 10642650     libucrt:signal.obj
 0003:0060f654       ?user_matherr@@3V?$dual_state_global@P6AHPAU_exception@@@Z@__crt_state_management@@A 10642654     libucrt:matherr.obj
 0003:0060f658       ?__acrt_global_new_mode@@3V?$dual_state_global@J@__crt_state_management@@A 10642658     libucrt:new_mode.obj
 0003:0060f668       ?internal_pst@?1??__mbrtoc32_utf8@__crt_mbstring@@YAIPA_UPBDIPAU_Mbstatet@@AAV__crt_cached_ptd_host@@@Z@4U3@A 10642668     libucrt:mbrtoc32.obj
 0003:0060f670       ?__acrt_app_type@@3W4_crt_app_type@@A 10642670     libucrt:report_runtime_error.obj
 0003:0060f67c       __pmatherr_set             1064267c     libucrt:libm_error.obj
 0004:00000060       $R000000                   10643060     * linker generated manifest res *

 Exports

  ordinal    name

        1    _ChangeCreatureTable
               exported name: ChangeCreatureTable
        2    _Creature2Artifact
               exported name: Creature2Artifact
        3    _Creature2Artifact_2
               exported name: Creature2Artifact_2
        4    _InitNecromancy15
               exported name: InitNecromancy15
        5    __hasSantaGuards
               exported name: _hasSantaGuards
        6    _check_harpy
               exported name: check_harpy
        7    _isCreatureConstruct
               exported name: isCreatureConstruct
        8    _isReceptive
               exported name: isReceptive
