 amethyst2_4

 Timestamp is 67179502 (Tue Oct 22 20:05:22 2024)

 Preferred load address is 10000000

 Start         Length     Name                   Class
 0001:00000000 00000380H .text$di                CODE
 0001:00000380 00026880H .text$mn                CODE
 0001:00026c00 000000bbH .text$x                 CODE
 0002:00000000 00000134H .idata$5                DATA
 0002:00000134 00000008H .00cfg                  DATA
 0002:0000013c 00000004H .CRT$XCA                DATA
 0002:00000140 00000004H .CRT$XCU                DATA
 0002:00000144 00000004H .CRT$XCZ                DATA
 0002:00000148 00000004H .CRT$XIA                DATA
 0002:0000014c 00000010H .CRT$XIC                DATA
 0002:0000015c 00000004H .CRT$XIZ                DATA
 0002:00000160 00000004H .CRT$XPA                DATA
 0002:00000164 00000008H .CRT$XPX                DATA
 0002:0000016c 00000004H .CRT$XPXA               DATA
 0002:00000170 00000004H .CRT$XPZ                DATA
 0002:00000174 00000004H .CRT$XTA                DATA
 0002:00000178 00000008H .CRT$XTZ                DATA
 0002:0000017c 00000000H .gfids$y                DATA
 0002:00000180 00007ac0H .rdata                  DATA
 0002:00007c40 00000000H .rdata$CastGuardVftablesA DATA
 0002:00007c40 00000000H .rdata$CastGuardVftablesC DATA
 0002:00007c40 000000dcH .rdata$r                DATA
 0002:00007d1c 00000028H .rdata$sxdata           DATA
 0002:00007d44 000000f8H .rdata$voltmd           DATA
 0002:00007e3c 0000036cH .rdata$zzzdbg           DATA
 0002:000081a8 00000004H .rtc$IAA                DATA
 0002:000081ac 00000004H .rtc$IZZ                DATA
 0002:000081b0 00000004H .rtc$TAA                DATA
 0002:000081b4 00000004H .rtc$TZZ                DATA
 0002:000081b8 00000778H .xdata$x                DATA
 0002:00008930 00000110H .edata                  DATA
 0002:00008a40 00000028H .idata$2                DATA
 0002:00008a68 00000014H .idata$3                DATA
 0002:00008a7c 00000134H .idata$4                DATA
 0002:00008bb0 0000056cH .idata$6                DATA
 0003:00000000 00003960H .data                   DATA
 0003:00003960 0000003cH .data$r                 DATA
 0003:0000399c 0000001cH .data$rs                DATA
 0003:000039b8 0060bcdcH .bss                    DATA
 0004:00000000 00000060H .rsrc$01                DATA
 0004:00000060 00000180H .rsrc$02                DATA

  Address         Publics by Value              Rva+Base       Lib:Object

 0000:00000000       ___AbsoluteZero            00000000     <absolute>
 0000:00000000       ___arm64x_extra_rfe_table  00000000     <absolute>
 0000:00000000       ___arm64x_extra_rfe_table_size 00000000     <absolute>
 0000:00000000       ___arm64x_native_entrypoint 00000000     <absolute>
 0000:00000000       ___arm64x_redirection_metadata 00000000     <absolute>
 0000:00000000       ___arm64x_redirection_metadata_count 00000000     <absolute>
 0000:00000000       ___dynamic_value_reloc_table 00000000     <absolute>
 0000:00000000       ___enclave_config          00000000     <absolute>
 0000:00000000       ___guard_check_icall_a64n_fptr 00000000     <absolute>
 0000:00000000       ___guard_eh_cont_count     00000000     <absolute>
 0000:00000000       ___guard_eh_cont_table     00000000     <absolute>
 0000:00000000       ___guard_fids_count        00000000     <absolute>
 0000:00000000       ___guard_fids_table        00000000     <absolute>
 0000:00000000       ___guard_iat_count         00000000     <absolute>
 0000:00000000       ___guard_iat_table         00000000     <absolute>
 0000:00000000       ___guard_longjmp_count     00000000     <absolute>
 0000:00000000       ___guard_longjmp_table     00000000     <absolute>
 0000:00000000       ___hybrid_auxiliary_delayload_iat 00000000     <absolute>
 0000:00000000       ___hybrid_auxiliary_delayload_iat_copy 00000000     <absolute>
 0000:00000000       ___hybrid_auxiliary_iat    00000000     <absolute>
 0000:00000000       ___hybrid_auxiliary_iat_copy 00000000     <absolute>
 0000:00000000       ___hybrid_code_map         00000000     <absolute>
 0000:00000000       ___hybrid_code_map_count   00000000     <absolute>
 0000:00000000       ___hybrid_image_info_bitfield 00000000     <absolute>
 0000:00000000       ___x64_code_ranges_to_entry_points 00000000     <absolute>
 0000:00000000       ___x64_code_ranges_to_entry_points_count 00000000     <absolute>
 0000:00000000       __except_list              00000000     <absolute>
 0000:0000000a       ___safe_se_handler_count   0000000a     <absolute>
 0000:00000100       ___guard_flags             00000100     <absolute>
 0000:00000000       ___ImageBase               10000000     <linker-defined>
 0001:00000380       ?GetHeroRecord@@YAPADH@Z   10001380 f   heroes.obj
 0001:000003a0       ?WriteHook@@YAXPAX0D@Z     100013a0 f   heroes.obj
 0001:000003e0       ?_alldiv__patched@@YGH_JIH@Z 100013e0 f   BugFix.obj
 0001:00000410       ?apply_fixes@@YAXXZ        10001410 f   BugFix.obj
 0001:00000590       ?hook_00426020@@YGHPAVLoHook@@PAUHookContext@@@Z 10001590 f   BugFix.obj
 0001:000005b0       ?hook_0042626A@@YGHPAVLoHook@@PAUHookContext@@@Z 100015b0 f   BugFix.obj
 0001:000005d0       ?hook_00435D7F@@YGHPAVLoHook@@PAUHookContext@@@Z 100015d0 f   BugFix.obj
 0001:000005d0       ?hook_00442D62@@YGHPAVLoHook@@PAUHookContext@@@Z 100015d0 f   BugFix.obj
 0001:000005f0       ?hook_00435DBE@@YGHPAVLoHook@@PAUHookContext@@@Z 100015f0 f   BugFix.obj
 0001:00000610       ?hook_00468A1B@@YGHPAVLoHook@@PAUHookContext@@@Z 10001610 f   BugFix.obj
 0001:00000650       ?hook_00468DBD@@YGHPAVLoHook@@PAUHookContext@@@Z 10001650 f   BugFix.obj
 0001:00000690       ?hook_004D9508@@YGHPAVLoHook@@PAUHookContext@@@Z 10001690 f   BugFix.obj
 0001:000006f0       ?hook_005A6BD3@@YGHPAVLoHook@@PAUHookContext@@@Z 100016f0 f   BugFix.obj
 0001:00000760       ?hook_005A6D89@@YGHPAVLoHook@@PAUHookContext@@@Z 10001760 f   BugFix.obj
 0001:000007b0       ??$strcpy_s@$0BAA@@@YAHAAY0BAA@DPBD@Z 100017b0 f i core.obj
 0001:000007d0       ??$strcpy_s@$0EA@@@YAHAAY0EA@DPBD@Z 100017d0 f i core.obj
 0001:000007f0       ?CreateNewTable@@YAXXZ     100017f0 f   core.obj
 0001:00000c00       ?LoadCrTraitsRow_hook@@YGHPAVHiHook@@HH@Z 10001c00 f   core.obj
 0001:00000d40       ?NewMissiles_Body@@YIHPADH@Z 10001d40 f   core.obj
 0001:00000e70       ?NewMonstersMissiles@@YAXXZ 10001e70 f   core.obj
 0001:00000e90       ?Pop@HookContext@@QAEHXZ   10001e90 f i core.obj
 0001:00000ec0       ?_ebx@@YAHXZ               10001ec0 f   core.obj
 0001:00000ed0       ?fake_new@@YAHH@Z          10001ed0 f   core.obj
 0001:00000f10       ?fake_new_hook@@YGHPAVLoHook@@PAUHookContext@@@Z 10001f10 f   core.obj
 0001:00000f30       ?fix_amethyst_crexpmod@@YAXXZ 10001f30 f   core.obj
 0001:000010e0       ?install_CrState@@YAXXZ    100020e0 f   core.obj
 0001:00001160       ?set_erm_limits@@YAXXZ     10002160 f   core.obj
 0001:000011d0       ___local_stdio_printf_options 100021d0 f i core.obj
 0001:000011e0       __vsnprintf_l              100021e0 f i core.obj
 0001:00001230       __vsprintf_l               10002230 f i core.obj
 0001:00001250       _sprintf                   10002250 f i core.obj
 0001:00001290       ?creexpo1024@@YAXXZ        10002290 f   creexpo1024.obj
 0001:000018d0       ??$StructAt@UH3Main@h3@@@h3@@YAPAUH3Main@0@I@Z 100028d0 f i dllmain.obj
 0001:000018e0       ??0exception@std@@QAE@ABV01@@Z 100028e0 f i dllmain.obj
 0001:00001920       ??1exception@std@@UAE@XZ   10002920 f i dllmain.obj
 0001:00001950       ??_Eexception@std@@UAEPAXI@Z 10002950 f i dllmain.obj
 0001:00001950       ??_Gexception@std@@UAEPAXI@Z 10002950 f i dllmain.obj
 0001:00001980       ?Block_Redirection@@YGXPAUTEvent@Era@@@Z 10002980 f   dllmain.obj
 0001:00001a30       ?ConnectEra@Era@@YAXXZ     10002a30 f   dllmain.obj
 0001:00001dd0       ?Daily_Res@@YGXPAUTEvent@Era@@@Z 10002dd0 f   dllmain.obj
 0001:00002210       ?Fix_Random_Creature_Generation@@YGXPAUTEvent@Era@@@Z 10003210 f   dllmain.obj
 0001:00002290       ?Get@H3Main@h3@@SAPAU12@XZ 10003290 f i dllmain.obj
 0001:000022b0       ?GetPatcher@@YAPAVPatcher@@XZ 100032b0 f i dllmain.obj
 0001:00002310       ?InitMainConfig@@YAXPAD@Z  10003310 f   dllmain.obj
 0001:00002580       ?MonsterRandomGeneration2@@YAXXZ 10003580 f   dllmain.obj
 0001:000025a0       ?MonsterRandomGeneration@@YAXXZ 100035a0 f   dllmain.obj
 0001:000025c0       ?ReloadExperienceConfig2@@YGXXZ 100035c0 f   dllmain.obj
 0001:00002670       ?RestoreData@@YGXPAUTEvent@Era@@@Z 10003670 f   dllmain.obj
 0001:000026c0       ?ShareStatsEvent@@YGXPAUTEvent@Era@@@Z 100036c0 f   dllmain.obj
 0001:00002790       ?StoreData@@YGXPAUTEvent@Era@@@Z 10003790 f   dllmain.obj
 0001:000027e0       ?battle_late_begin@@YGXPAUTEvent@Era@@@Z 100037e0 f   dllmain.obj
 0001:00002880       ?battle_start_event@@YGXPAUTEvent@Era@@@Z 10003880 f   dllmain.obj
 0001:000028c0       ?begin@?$H3Vector@UH3Town@h3@@@h3@@QAEPAUH3Town@2@XZ 100038c0 f i dllmain.obj
 0001:000028e0       ?drop_html_creature_list@@YGXPAUTEvent@Era@@@Z 100038e0 f   dllmain.obj
 0001:00002900       ?end@?$H3Vector@UH3Town@h3@@@h3@@QAEPAUH3Town@2@XZ 10003900 f i dllmain.obj
 0001:00002920       ?fix_vanilla_creatures@@YGXPAUTEvent@Era@@@Z 10003920 f   dllmain.obj
 0001:00002ac0       ?hook_005A7A5A@@YGHPAVLoHook@@PAUHookContext@@@Z 10003ac0 f   dllmain.obj
 0001:00002b50       ?hook_ecx_batman_dialogue_fix@@YGHPAVLoHook@@PAUHookContext@@@Z 10003b50 f   dllmain.obj
 0001:00002b80       ?hook_ecx_batman_fix@@YGHPAVLoHook@@PAUHookContext@@@Z 10003b80 f   dllmain.obj
 0001:00002ba0       ?hook_esi_batman_fix@@YGHPAVLoHook@@PAUHookContext@@@Z 10003ba0 f   dllmain.obj
 0001:00002bc0       ?install_CrState@@YGXPAUTEvent@Era@@@Z 10003bc0 f   dllmain.obj
 0001:00002be0       ?load_things_late@@YGXPAUTEvent@Era@@@Z 10003be0 f   dllmain.obj
 0001:00002cc0       ?strstr@@YAPADQADQBD@Z     10003cc0 f i dllmain.obj
 0001:00002ce0       ?what@exception@std@@UBEPBDXZ 10003ce0 f i dllmain.obj
 0001:00002d10       _DllMain@12                10003d10 f   dllmain.obj
 0001:00002e70       ?drop_html_creature_list@@YAXPBD@Z 10003e70 f   DropHtml.obj
 0001:00002f30       __vfprintf_l               10003f30 f i DropHtml.obj
 0001:00002f60       _fprintf                   10003f60 f i DropHtml.obj
 0001:00002fa0       ?GameMgr_GetRandMonster_ByLevel@@YGHPAVHiHook@@PAXHH@Z 10003fa0 f   GameMgr_GetRandMonster_ByLevel.obj
 0001:00003130       ?v_MsgBox@@YAXPADH@Z       10004130 f i GameMgr_GetRandMonster_ByLevel.obj
 0001:00003160       ?MiscCreatureHooks_apply@@YAXXZ 10004160 f   MiscCreatureHooks.obj
 0001:000031a0       ?MiscCreatureHooks_apply_strings@@YAXXZ 100041a0 f   MiscCreatureHooks.obj
 0001:00003230       ?hook_UN_G1_reset@@YGHPAVLoHook@@PAUHookContext@@@Z 10004230 f   MiscCreatureHooks.obj
 0001:000032f0       ?hook_UN_G1_set@@YGHPAVLoHook@@PAUHookContext@@@Z 100042f0 f   MiscCreatureHooks.obj
 0001:000033c0       ?Spell_1_mode_exact_expert@@YAXXZ 100043c0 f   tables.obj
 0001:000033f0       ?Spell_1_mode_exact@@YAXXZ 100043f0 f   tables.obj
 0001:00003420       ?Spell_1_mode_exact_twice@@YAXXZ 10004420 f   tables.obj
 0001:00003480       ?Spell_1_mode_elemental@@YAXXZ 10004480 f   tables.obj
 0001:000034e0       ?Spell_1_mode_Heavenly_Inspiration@@YAXXZ 100044e0 f   tables.obj
 0001:00003570       ?Spell_1_mode_enchant@@YAXXZ 10004570 f   tables.obj
 0001:00003640       ?Spell_1_mode_enchant_minor@@YAXXZ 10004640 f   tables.obj
 0001:000036f0       ?Spell_1_mode_enchant_major@@YAXXZ 100046f0 f   tables.obj
 0001:000037e0       ?Spell_1_mode_rush@@YAXXZ  100047e0 f   tables.obj
 0001:00003890       ?Spell_1_mode_1_extended@@YAXXZ 10004890 f   tables.obj
 0001:00003970       ?Spell_1_mode_Dragon_Will@@YAXXZ 10004970 f   tables.obj
 0001:00003a70       ?Spell_1_mode_overclock@@YAXXZ 10004a70 f   tables.obj
 0001:00003b70       ?Spell_1_mode_repair_and_overclock@@YAXXZ 10004b70 f   tables.obj
 0001:00003bf0       ?Spell_2_raise_undead@@YAXXZ 10004bf0 f   tables.obj
 0001:00003c60       ?Spell_2_repair_constructs@@YAXXZ 10004c60 f   tables.obj
 0001:00003d20       ?Spell_2_gate_infernals@@YAXXZ 10004d20 f   tables.obj
 0001:00003d90       ?Spell_2_damage_spell@@YAXXZ 10004d90 f   tables.obj
 0001:00003e00       ?Spell_2_FriendlyNonDragons@@YAXXZ 10004e00 f   tables.obj
 0001:00003e40       ?Spell_2_FriendlyConstructs@@YAXXZ 10004e40 f   tables.obj
 0001:00003e90       ?Spell_3_debuff@@YAXXZ     10004e90 f   tables.obj
 0001:00003ec0       ?Spell_3_custom_buff@@YAXXZ 10004ec0 f   tables.obj
 0001:00003ef0       ?resistance_dwarf60@@YAXXZ 10004ef0 f   tables.obj
 0001:00003f20       ?resistance_dwarf80@@YAXXZ 10004f20 f   tables.obj
 0001:00003f50       ?resistance_dwarf100@@YAXXZ 10004f50 f   tables.obj
 0001:00003f80       ?resistance_level_1@@YAXXZ 10004f80 f   tables.obj
 0001:00003fa0       ?resistance_level_1_2@@YAXXZ 10004fa0 f   tables.obj
 0001:00003fc0       ?resistance_speed@@YAXXZ   10004fc0 f   tables.obj
 0001:00003ff0       ?resistance_toxic@@YAXXZ   10004ff0 f   tables.obj
 0001:00004020       ?resistance_will@@YAXXZ    10005020 f   tables.obj
 0001:00004050       ?resistance_no_eyes@@YAXXZ 10005050 f   tables.obj
 0001:00004070       ?resistance_mass_damage@@YAXXZ 10005070 f   tables.obj
 0001:00004090       ?resistance_to_dispel@@YAXXZ 10005090 f   tables.obj
 0001:000040b0       ?resistance_to_debuff@@YAXXZ 100050b0 f   tables.obj
 0001:00004120       ?vulnerability_125@@YAXXZ  10005120 f   tables.obj
 0001:00004140       ?vulnerability_150@@YAXXZ  10005140 f   tables.obj
 0001:00004150       ?vulnerability_200@@YAXXZ  10005150 f   tables.obj
 0001:00004160       ?vulnerability_300@@YAXXZ  10005160 f   tables.obj
 0001:00004170       ?vulnerability_400@@YAXXZ  10005170 f   tables.obj
 0001:00004190       ?vulnerability_500@@YAXXZ  10005190 f   tables.obj
 0001:000041b0       ?vulnerability_600@@YAXXZ  100051b0 f   tables.obj
 0001:000041d0       ?vulnerability_700@@YAXXZ  100051d0 f   tables.obj
 0001:000041f0       ?vulnerability_900@@YAXXZ  100051f0 f   tables.obj
 0001:00004210       ?AI_Battle_GetStackCustomBuffValue@@YADPAXHPAHH@Z 10005210 f   tables.obj
 0001:00004510       ?AI_Battle_GetStackDeBuffValue@@YADPAXHPAHH@Z 10005510 f   tables.obj
 0001:00004820       ?AlwaysPositiveLuck2@@YAXXZ 10005820 f   tables.obj
 0001:00004840       ?AlwaysPositiveLuck3@@YAXXZ 10005840 f   tables.obj
 0001:00004860       ?AlwaysPositiveLuck@@YAXXZ 10005860 f   tables.obj
 0001:000048b0       ?AlwaysPositiveMorale2@@YAXXZ 100058b0 f   tables.obj
 0001:000048d0       ?AlwaysPositiveMorale3@@YAXXZ 100058d0 f   tables.obj
 0001:000048f0       ?AlwaysPositiveMorale@@YAXXZ 100058f0 f   tables.obj
 0001:00004910       ?Ang1@@YAXXZ               10005910 f   tables.obj
 0001:000049a0       ?Ang2@@YAXXZ               100059a0 f   tables.obj
 0001:000049f0       ?AngDem1@@YAXXZ            100059f0 f   tables.obj
 0001:00004a30       ?AngDem2@@YAXXZ            10005a30 f   tables.obj
 0001:00004b80       ?AngDem3@@YAXXZ            10005b80 f   tables.obj
 0001:00004cd0       ?AngDem4@@YAXXZ            10005cd0 f   tables.obj
 0001:00004d20       ?AngDem5@@YAXXZ            10005d20 f   tables.obj
 0001:00004e10       ?Angel4_004482D3@@YAXXZ    10005e10 f   tables.obj
 0001:00004e70       ?ApplySharedStats@@YAXHH@Z 10005e70 f   tables.obj
 0001:00004ea0       ?Before_Melee@@YAXXZ       10005ea0 f   tables.obj
 0001:00004ec0       ?Before_strike@@YAXXZ      10005ec0 f   tables.obj
 0001:00004fb0       ?CheckCreature2Leave_hook@@YGHPAVHiHook@@H@Z 10005fb0 f   tables.obj
 0001:00005000       ?CounterStrike2@@YAXXZ     10006000 f   tables.obj
 0001:00005040       ?CounterStrike@@YAXXZ      10006040 f   tables.obj
 0001:00005080       ?CrExpBon_DwarfResistFriendly_WoG_hook@@YGHPAVHiHook@@HHH@Z 10006080 f   tables.obj
 0001:000050d0       ?CreateAdditionalTables@@YAXXZ 100060d0 f   tables.obj
 0001:00006b20       ?DeathBlow@@YAXXZ          10007b20 f   tables.obj
 0001:00006b60       ?DeathBlowCorrect@@YAXXZ   10007b60 f   tables.obj
 0001:00006b80       ?Dem1@@YAXXZ               10007b80 f   tables.obj
 0001:00006ba0       ?Dem2@@YAXXZ               10007ba0 f   tables.obj
 0001:00006ca0       ?Dem3@@YAXXZ               10007ca0 f   tables.obj
 0001:00006cc0       ?Dem4@@YAXXZ               10007cc0 f   tables.obj
 0001:00006d50       ?Dem5@@YAXXZ               10007d50 f   tables.obj
 0001:00006d70       ?Dem6@@YAXXZ               10007d70 f   tables.obj
 0001:00006d90       ?Demon2@@YAXXZ             10007d90 f   tables.obj
 0001:00006dc0       ?Demon3@@YAXXZ             10007dc0 f   tables.obj
 0001:00006de0       ?Demon@@YAXXZ              10007de0 f   tables.obj
 0001:00006e00       ?Dlg_RecruitMonster_Hook_5502EE@@YAXXZ 10007e00 f   tables.obj
 0001:00006e30       ?ERM2String@@YAPADPADHPAH@Z 10007e30 f i tables.obj
 0001:00006e50       ?Fear@@YAXXZ               10007e50 f   tables.obj
 0001:00006e90       ?Fearless@@YAXXZ           10007e90 f   tables.obj
 0001:00006ed0       ?FileExists@@YA_NPBD@Z     10007ed0 f i tables.obj
 0001:00006f00       ?FillTables@@YAXXZ         10007f00 f   tables.obj
 0001:00006fc0       ?Firewall_byte@@YAXXZ      10007fc0 f   tables.obj
 0001:00006ff0       ?GetFireShield@@YGHHPAH@Z  10007ff0 f   tables.obj
 0001:00007030       ?GetShotType@@YIHHPAH@Z    10008030 f   tables.obj
 0001:00007050       ?Hate_Hook_766DFF@@YAXXZ   10008050 f   tables.obj
 0001:00007140       ?Hill_Fort_47AA50_Hook@@YAXXZ 10008140 f   tables.obj
 0001:00007160       ?ImmunToJoustingBonus@@YAXXZ 10008160 f   tables.obj
 0001:00007180       ?ImposedSpells1@@YAXXZ     10008180 f   tables.obj
 0001:00007190       ?ImposedSpells2@@YAXXZ     10008190 f   tables.obj
 0001:000071a0       ?ImposedSpellsGeneral@@YAXXZ 100081a0 f   tables.obj
 0001:000071e0       ?IsAngel3_Minus@@YAXXZ     100081e0 f   tables.obj
 0001:00007240       ?JoustingBonus@@YAXXZ      10008240 f   tables.obj
 0001:00007270       ?LoadCreatureConfig@@YAXH@Z 10008270 f   tables.obj
 0001:00007380       ?MagicAura@@YAXXZ          10008380 f   tables.obj
 0001:000073a0       ?MagicChannel@@YAXXZ       100083a0 f   tables.obj
 0001:000073c0       ?MagicMirror@@YAXXZ        100083c0 f   tables.obj
 0001:000073e0       ?ManaDrain2@@YAXXZ         100083e0 f   tables.obj
 0001:00007400       ?ManaDrainPlus@@YAXXZ      10008400 f   tables.obj
 0001:00007430       ?NPCDeathStare_hook@@YGHPAVHiHook@@HH@Z 10008430 f   tables.obj
 0001:00007470       ?NoWallPenalty@@YAXXZ      10008470 f   tables.obj
 0001:00007490       ?Passive_474541_Hook@@YAXXZ 10008490 f   tables.obj
 0001:000074b0       ?Push@HookContext@@QAEXH@Z 100084b0 f i tables.obj
 0001:000074e0       ?ResetAdditionalTables_BattleOnly@@YAXXZ 100084e0 f   tables.obj
 0001:000076e0       ?ResistanceHook@@YGNPAVHiHook@@HHPAUHERO@@1@Z 100086e0 f   tables.obj
 0001:00007760       ?Sharpshooters@@YAXXZ      10008760 f   tables.obj
 0001:00007780       ?ShootAnyTime2@@YGDH@Z     10008780 f   tables.obj
 0001:00007800       ?ShootAnyTime@@YGDH@Z      10008800 f   tables.obj
 0001:00007880       ?SpellsCostDump@@YAXXZ     10008880 f   tables.obj
 0001:000078b0       ?SpellsCostLess@@YAXXZ     100088b0 f   tables.obj
 0001:00007900       ?ThreeHeadedAttack2@@YAXXZ 10008900 f   tables.obj
 0001:00007920       ?ThreeHeadedAttack@@YAXXZ  10008920 f   tables.obj
 0001:00007940       ?WoG_CastSpell_Monster@@YAXHHHHHH@Z 10008940 f   tables.obj
 0001:00007a10       ?f41ED5A_Hook@@YAXXZ       10008a10 f   tables.obj
 0001:00007a40       ?f4225D6_Hook@@YAXXZ       10008a40 f   tables.obj
 0001:00007a60       ?f43F72C_Hook@@YAXXZ       10008a60 f   tables.obj
 0001:00007a90       ?f442E61_Hook@@YAXXZ       10008a90 f   tables.obj
 0001:00007ab0       ?f_4650dd_Hook@@YAXXZ      10008ab0 f   tables.obj
 0001:00007ae0       ?f_756B1F_Hook@@YAXXZ      10008ae0 f   tables.obj
 0001:00007b10       ?f_75C96C_Hook@@YAXXZ      10008b10 f   tables.obj
 0001:00007b40       ?fun_4E609E_Rogue_Hook@@YAXXZ 10008b40 f   tables.obj
 0001:00007b70       ?get_can_gate@@YAXXZ       10008b70 f   tables.obj
 0001:00007cd0       ?get_raise_undead@@YAXXZ   10008cd0 f   tables.obj
 0001:00007e70       ?get_repair_constructs@@YAXXZ 10008e70 f   tables.obj
 0001:00008050       ?harpy_hook_0075E063@@YGHPAVLoHook@@PAUHookContext@@@Z 10009050 f   tables.obj
 0001:000080b0       ?harpy_hook_00762940@@YGHPAVLoHook@@PAUHookContext@@@Z 100090b0 f   tables.obj
 0001:00008120       ?has_wog_resist@@YA_NPBDH@Z 10009120 f   tables.obj
 0001:00008450       ?hook_004470B5_Demonology@@YGHPAVLoHook@@PAUHookContext@@@Z 10009450 f   tables.obj
 0001:000084b0       ?hook_004675FE@@YGHPAVLoHook@@PAUHookContext@@@Z 100094b0 f   tables.obj
 0001:000084e0       ?hook_004755E7@@YAXXZ      100094e0 f   tables.obj
 0001:00008500       ?shooting_resistance_hook@@YAHPAEH@Z 10009500 f   tables.obj
 0001:000086e0       ?zShootAnyTime@@YAHPAE@Z   100096e0 f   tables.obj
 0001:000086f0       ?z_756BA0_hook@@YGHPAVLoHook@@PAUHookContext@@@Z 100096f0 f   tables.obj
 0001:00008720       ?z_Hook_004403A7@@YGHPAVLoHook@@PAUHookContext@@@Z 10009720 f   tables.obj
 0001:00008770       ?z_Hook_00443E36@@YGHPAVLoHook@@PAUHookContext@@@Z 10009770 f   tables.obj
 0001:00008900       ?z_Hook_00479231@@YGHPAVLoHook@@PAUHookContext@@@Z 10009900 f   tables.obj
 0001:00008a70       ?z_Hook_00492A7D@@YGHPAVLoHook@@PAUHookContext@@@Z 10009a70 f   tables.obj
 0001:00008aa0       ?z_Hook_after_melee@@YGHPAVLoHook@@PAUHookContext@@@Z 10009aa0 f   tables.obj
 0001:00008d30       ?z_Hook_after_shot@@YGHPAVLoHook@@PAUHookContext@@@Z 10009d30 f   tables.obj
 0001:00008fa0       ?z_hook_0046453E@@YGHPAVLoHook@@PAUHookContext@@@Z 10009fa0 f   tables.obj
 0001:00009220       ?z_hook_004645BA@@YGHPAVLoHook@@PAUHookContext@@@Z 1000a220 f   tables.obj
 0001:00009320       ?z_hook_00478C9E@@YGHPAVLoHook@@PAUHookContext@@@Z 1000a320 f   tables.obj
 0001:00009380       ?z_hook_0071CC52@@YGHPAVLoHook@@PAUHookContext@@@Z 1000a380 f   tables.obj
 0001:00009430       ?z_hook_0075642C@@YGHPAVLoHook@@PAUHookContext@@@Z 1000a430 f   tables.obj
 0001:000094c0       ?z_hook_00756D06@@YGHPAVLoHook@@PAUHookContext@@@Z 1000a4c0 f   tables.obj
 0001:00009500       ?z_hook_0075F840@@YGHPAVLoHook@@PAUHookContext@@@Z 1000a500 f   tables.obj
 0001:000095a0       ?z_hook_00760412@@YGHPAVLoHook@@PAUHookContext@@@Z 1000a5a0 f   tables.obj
 0001:000095e0       ?z_hook_007609E0@@YGHPAVLoHook@@PAUHookContext@@@Z 1000a5e0 f   tables.obj
 0001:00009620       _ChangeCreatureTable       1000a620 f   tables.obj
 0001:0000bb30       _Creature2Artifact         1000cb30 f   tables.obj
 0001:0000bb50       _Creature2Artifact_2       1000cb50 f   tables.obj
 0001:0000bb70       _InitNecromancy15          1000cb70 f   tables.obj
 0001:0000bc60       ___local_stdio_scanf_options 1000cc60 f i tables.obj
 0001:0000bc70       __hasSantaGuards           1000cc70 f   tables.obj
 0001:0000bc80       __vfscanf_l                1000cc80 f i tables.obj
 0001:0000bcb0       _check_harpy               1000ccb0 f   tables.obj
 0001:0000bd00       _fscanf                    1000cd00 f i tables.obj
 0001:0000bd40       _isCreatureConstruct       1000cd40 f   tables.obj
 0001:0000bd80       _isReceptive               1000cd80 f   tables.obj
 0001:0000bd8f       @__security_check_cookie@4 1000cd8f f   LIBCMT:secchk.obj
 0001:0000bd9d       ??3@YAXPAXI@Z              1000cd9d f   LIBCMT:delete_scalar_size.obj
 0001:0000bdab       ??_Etype_info@@UAEPAXI@Z   1000cdab f i LIBCMT:std_type_info_static.obj
 0001:0000bdab       ??_Gtype_info@@UAEPAXI@Z   1000cdab f i LIBCMT:std_type_info_static.obj
 0001:0000bdce       ___raise_securityfailure   1000cdce f   LIBCMT:gs_report.obj
 0001:0000bdf6       ___report_gsfailure        1000cdf6 f   LIBCMT:gs_report.obj
 0001:0000bef1       ___report_rangecheckfailure 1000cef1 f   LIBCMT:gs_report.obj
 0001:0000befe       ___report_securityfailure  1000cefe f   LIBCMT:gs_report.obj
 0001:0000c30e       __DllMainCRTStartup@12     1000d30e f   LIBCMT:dll_dllmain.obj
 0001:0000c331       ??3@YAXPAX@Z               1000d331 f   LIBCMT:delete_scalar.obj
 0001:0000c383       ___security_init_cookie    1000d383 f   LIBCMT:gs_support.obj
 0001:0000c3ce       ?__scrt_initialize_type_info@@YAXXZ 1000d3ce f   LIBCMT:tncleanup.obj
 0001:0000c3da       ?__scrt_uninitialize_type_info@@YAXXZ 1000d3da f   LIBCMT:tncleanup.obj
 0001:0000c3e6       ___scrt_initialize_default_local_stdio_options 1000d3e6 f   LIBCMT:default_local_stdio_options.obj
 0001:0000c447       ___scrt_acquire_startup_lock 1000d447 f   LIBCMT:utility.obj
 0001:0000c479       ___scrt_dllmain_after_initialize_c 1000d479 f   LIBCMT:utility.obj
 0001:0000c4a4       ___scrt_dllmain_before_initialize_c 1000d4a4 f   LIBCMT:utility.obj
 0001:0000c4b2       ___scrt_dllmain_crt_thread_attach 1000d4b2 f   LIBCMT:utility.obj
 0001:0000c4d1       ___scrt_dllmain_crt_thread_detach 1000d4d1 f   LIBCMT:utility.obj
 0001:0000c4de       ___scrt_dllmain_exception_filter 1000d4de f   LIBCMT:utility.obj
 0001:0000c512       ___scrt_dllmain_uninitialize_c 1000d512 f   LIBCMT:utility.obj
 0001:0000c535       ___scrt_dllmain_uninitialize_critical 1000d535 f   LIBCMT:utility.obj
 0001:0000c542       ___scrt_initialize_crt     1000d542 f   LIBCMT:utility.obj
 0001:0000c57b       ___scrt_initialize_onexit_tables 1000d57b f   LIBCMT:utility.obj
 0001:0000c602       ___scrt_is_nonwritable_in_current_image 1000d602 f   LIBCMT:utility.obj
 0001:0000c696       ___scrt_release_startup_lock 1000d696 f   LIBCMT:utility.obj
 0001:0000c6b3       ___scrt_uninitialize_crt   1000d6b3 f   LIBCMT:utility.obj
 0001:0000c6db       ___scrt_get_dyn_tls_init_callback 1000d6db f   LIBCMT:dyn_tls_init.obj
 0001:0000c6e1       ___scrt_fastfail           1000d6e1 f   LIBCMT:utility_desktop.obj
 0001:0000c7f6       __crt_debugger_hook        1000d7f6 f   LIBCMT:utility_desktop.obj
 0001:0000c7fe       __RTC_Initialize           1000d7fe f   LIBCMT:initsect.obj
 0001:0000c82a       __RTC_Terminate            1000d82a f   LIBCMT:initsect.obj
 0001:0000c860       __SEH_prolog4              1000d860 f   LIBCMT:sehprolg4.obj
 0001:0000c8a5       @_guard_check_icall_nop@4  1000d8a5 f i LIBCMT:guard_support.obj
 0001:0000c8a8       ___isa_available_init      1000d8a8 f   LIBCMT:cpu_disp.obj
 0001:0000cbd5       __get_startup_argv_mode    1000dbd5 f   LIBCMT:argv_mode.obj
 0001:0000cbd9       ___scrt_is_ucrt_dll_in_use 1000dbd9 f   LIBCMT:ucrt_detection.obj
 0001:0000cbf0       _memcpy                    1000dbf0 f   libvcruntime:memcpy.obj
 0001:0000cbf0       _memmove                   1000dbf0 f   libvcruntime:memmove.obj
 0001:0000d170       _strstr                    1000e170 f   libvcruntime:strstr.obj
 0001:0000d3db       ___std_exception_copy      1000e3db f   libvcruntime:std_exception.obj
 0001:0000d43e       ___std_exception_destroy   1000e43e f   libvcruntime:std_exception.obj
 0001:0000d45d       __CxxThrowException@8      1000e45d f   libvcruntime:throw.obj
 0001:0000d4c9       ?GetRangeOfTrysToCheck@__FrameHandler3@@SA?AU?$pair@Viterator@TryBlockMap@__FrameHandler3@@V123@@std@@AAVTryBlockMap@1@HPAXPBU_s_FuncInfo@@H@Z 1000e4c9 f   libvcruntime:trnsctrl.obj
 0001:0000d538       ?_CallCatchBlock2@@YAPAXPAUEHRegistrationNode@@PBU_s_FuncInfo@@PAXHK@Z 1000e538 f   libvcruntime:trnsctrl.obj
 0001:0000d595       ?_CallSETranslator@@YAHPAUEHExceptionRecord@@PAUEHRegistrationNode@@PAX2PBU_s_FuncInfo@@H1@Z 1000e595 f   libvcruntime:trnsctrl.obj
 0001:0000d685       ?_JumpToContinuation@@YGXPAXPAUEHRegistrationNode@@@Z 1000e685 f   libvcruntime:trnsctrl.obj
 0001:0000d6b5       ?_UnwindNestedFrames@@YGXPAUEHRegistrationNode@@PAUEHExceptionRecord@@@Z 1000e6b5 f   libvcruntime:trnsctrl.obj
 0001:0000d709       __CatchGuardHandler        1000e709 f   libvcruntime:trnsctrl.obj
 0001:0000d73a       __CreateFrameInfo          1000e73a f   libvcruntime:trnsctrl.obj
 0001:0000d75e       __FindAndUnlinkFrame       1000e75e f   libvcruntime:trnsctrl.obj
 0001:0000d7a6       __TranslatorGuardHandler   1000e7a6 f   libvcruntime:trnsctrl.obj
 0001:0000d845       ___CxxFrameHandler3        1000e845 f   libvcruntime:trnsctrl.obj
 0001:0000d880       _memset                    1000e880 f   libvcruntime:memset.obj
 0001:0000da20       __except_handler4          1000ea20 f   libvcruntime:chandler4.obj
 0001:0000db7e       ___std_type_info_compare   1000eb7e f   libvcruntime:std_type_info.obj
 0001:0000dbba       ___std_type_info_destroy_list 1000ebba f   libvcruntime:std_type_info.obj
 0001:0000dbdd       ___vcrt_initialize         1000ebdd f   libvcruntime:initialization.obj
 0001:0000dbfc       ___vcrt_thread_attach      1000ebfc f   libvcruntime:initialization.obj
 0001:0000dc07       ___vcrt_thread_detach      1000ec07 f   libvcruntime:initialization.obj
 0001:0000dc0f       ___vcrt_uninitialize       1000ec0f f   libvcruntime:initialization.obj
 0001:0000dc26       ___vcrt_uninitialize_critical 1000ec26 f   libvcruntime:initialization.obj
 0001:0000dc2e       ___DestructExceptionObject 1000ec2e f   libvcruntime:ehhelpers.obj
 0001:0000dccf       ?_CallMemberFunction0@@YGXQAX0@Z 1000eccf f i libvcruntime:ehhelpers.obj
 0001:0000dd34       __IsExceptionObjectToBeDestroyed 1000ed34 f   libvcruntime:ehhelpers.obj
 0001:0000dd5a       ___AdjustPointer           1000ed5a f   libvcruntime:ehhelpers.obj
 0001:0000dd7f       ___FrameUnwindFilter       1000ed7f f   libvcruntime:ehhelpers.obj
 0001:0000ddd5       ___std_terminate           1000edd5 f   libvcruntime:ehhelpers.obj
 0001:0000dde0       _strchr                    1000ede0 f   libvcruntime:strchr.obj
 0001:0000de4e       ___from_strstr_to_strchr   1000ee4e     libvcruntime:strchr.obj
 0001:0000df0b       ___vcrt_freefls@4          1000ef0b f   libvcruntime:per_thread_data.obj
 0001:0000df27       ___vcrt_freeptd_for_this_thread 1000ef27 f   libvcruntime:per_thread_data.obj
 0001:0000df52       ___vcrt_getptd             1000ef52 f   libvcruntime:per_thread_data.obj
 0001:0000df60       ___vcrt_getptd_noexit      1000ef60 f   libvcruntime:per_thread_data.obj
 0001:0000dff5       ___vcrt_initialize_ptd     1000eff5 f   libvcruntime:per_thread_data.obj
 0001:0000e028       ___vcrt_uninitialize_ptd   1000f028 f   libvcruntime:per_thread_data.obj
 0001:0000e775       ??$TypeMatchHelper@V__FrameHandler3@@@@YAHPBU_s_HandlerType@@PBU_s_CatchableType@@PBU_s_ThrowInfo@@@Z 1000f775 f i libvcruntime:frame.obj
 0001:0000e803       ??$__InternalCxxFrameHandler@V__FrameHandler3@@@@YA?AW4_EXCEPTION_DISPOSITION@@PAUEHExceptionRecord@@PAUEHRegistrationNode@@PAU_CONTEXT@@PAXPBU_s_FuncInfo@@H1E@Z 1000f803 f i libvcruntime:frame.obj
 0001:0000e905       ??$__InternalCxxFrameHandlerWrapper@V__FrameHandler3@@@@YA?AW4_EXCEPTION_DISPOSITION@@PAUEHExceptionRecord@@PAUEHRegistrationNode@@PAU_CONTEXT@@PAXPBU_s_FuncInfo@@H1E@Z 1000f905 f i libvcruntime:frame.obj
 0001:0000e90e       ??0bad_exception@std@@QAE@ABV01@@Z 1000f90e f i libvcruntime:frame.obj
 0001:0000e929       ??0bad_exception@std@@QAE@XZ 1000f929 f i libvcruntime:frame.obj
 0001:0000e941       ??1bad_exception@std@@UAE@XZ 1000f941 f i libvcruntime:frame.obj
 0001:0000e952       ??8type_info@@QBE_NABV0@@Z 1000f952 f i libvcruntime:frame.obj
 0001:0000e971       ??_Ebad_exception@std@@UAEPAXI@Z 1000f971 f i libvcruntime:frame.obj
 0001:0000e971       ??_Gbad_exception@std@@UAEPAXI@Z 1000f971 f i libvcruntime:frame.obj
 0001:0000ebf6       ?FrameUnwindToEmptyState@__FrameHandler3@@SAXPAUEHRegistrationNode@@PAXPBU_s_FuncInfo@@@Z 1000fbf6 f   libvcruntime:frame.obj
 0001:0000ec0e       ?FrameUnwindToState@__FrameHandler3@@SAXPAUEHRegistrationNode@@PAXPBU_s_FuncInfo@@H@Z 1000fc0e f   libvcruntime:frame.obj
 0001:0000ed90       ?_CallMemberFunction1@@YGXQAX00@Z 1000fd90 f i libvcruntime:frame.obj
 0001:0000eda0       ?_CallMemberFunction2@@YGXQAX00H@Z 1000fda0 f i libvcruntime:frame.obj
 0001:0000edb3       ?getESTypes@__FrameHandler3@@SAPBU_s_ESTypeList@@PBU_s_FuncInfo@@@Z 1000fdb3 f i libvcruntime:frame.obj
 0001:0000edc0       __CallSettingFrame@12      1000fdc0 f   libvcruntime:lowhelpr.obj
 0001:0000ede7       __NLG_Return               1000fde7     libvcruntime:lowhelpr.obj
 0001:0000ee0c       ___except_validate_context_record 1000fe0c f   libvcruntime:jbcxrval.obj
 0001:0000ee40       __local_unwind4            1000fe40 f   libvcruntime:exsup4.obj
 0001:0000ef30       @_EH4_CallFilterFunc@8     1000ff30 f   libvcruntime:exsup4.obj
 0001:0000ef50       @_EH4_TransferToHandler@8  1000ff50 f   libvcruntime:exsup4.obj
 0001:0000ef70       @_EH4_GlobalUnwind2@8      1000ff70 f   libvcruntime:exsup4.obj
 0001:0000ef90       @_EH4_LocalUnwind@16       1000ff90 f   libvcruntime:exsup4.obj
 0001:0000efa7       ___vcrt_initialize_locks   1000ffa7 f   libvcruntime:locks.obj
 0001:0000efe3       ___vcrt_uninitialize_locks 1000ffe3 f   libvcruntime:locks.obj
 0001:0000f0fd       ___vcrt_FlsAlloc           100100fd f   libvcruntime:winapi_downlevel.obj
 0001:0000f138       ___vcrt_FlsFree            10010138 f   libvcruntime:winapi_downlevel.obj
 0001:0000f173       ___vcrt_FlsGetValue        10010173 f   libvcruntime:winapi_downlevel.obj
 0001:0000f1ae       ___vcrt_FlsSetValue        100101ae f   libvcruntime:winapi_downlevel.obj
 0001:0000f1ec       ___vcrt_InitializeCriticalSectionEx 100101ec f   libvcruntime:winapi_downlevel.obj
 0001:0000f233       _unexpected                10010233 f   libvcruntime:unexpected.obj
 0001:0000f250       ?GetCurrentState@__FrameHandler3@@SAHPAUEHRegistrationNode@@PAXPBU_s_FuncInfo@@@Z 10010250 f   libvcruntime:ehstate.obj
 0001:0000f26d       ?SetState@__FrameHandler3@@SAXPAUEHRegistrationNode@@PBU_s_FuncInfo@@H@Z 1001026d f   libvcruntime:ehstate.obj
 0001:0000f280       __NLG_Notify1              10010280 f   libvcruntime:exsup.obj
 0001:0000f290       __NLG_Notify               10010290 f   libvcruntime:exsup.obj
 0001:0000f2a7       __NLG_Dispatch             100102a7     libvcruntime:exsup.obj
 0001:0000f2a7       __NLG_Dispatch2            100102a7     libvcruntime:exsup.obj
 0001:0000f2b0       __NLG_Call                 100102b0 f   libvcruntime:exsup.obj
 0001:0000f2b2       __NLG_Return2              100102b2     libvcruntime:exsup.obj
 0001:0000f2b3       _strcpy_s                  100102b3 f   libucrt:strcpy_s.obj
 0001:0000f4dc       ??$count@D@formatting_buffer@__crt_stdio_output@@QBEIXZ 100104dc f i libucrt:output.obj
 0001:0000f4f4       ??$ensure_buffer_is_big_enough@D@formatting_buffer@__crt_stdio_output@@QAE_NIAAV__crt_cached_ptd_host@@@Z 100104f4 f i libucrt:output.obj
 0001:0000f575       ??$is_overflow_condition@K@__crt_strtox@@YA_NIK@Z 10010575 f i libucrt:output.obj
 0001:0000f5a6       ??$is_wide_character_specifier@D@__crt_stdio_output@@YA_N_KDW4length_modifier@0@@Z 100105a6 f i libucrt:output.obj
 0001:0000f5d7       ??$make_c_string_character_source@DPAPAD@__crt_strtox@@YA?AV?$c_string_character_source@D@0@QBDQAPAD@Z 100105d7 f i libucrt:output.obj
 0001:0000f5f2       ??$parse_integer@KV?$c_string_character_source@D@__crt_strtox@@$0A@@__crt_strtox@@YAKAAV__crt_cached_ptd_host@@V?$c_string_character_source@D@0@H_N@Z 100105f2 f i libucrt:output.obj
 0001:0000f801       ??$scratch_data@D@formatting_buffer@__crt_stdio_output@@QAEPADXZ 10010801 f i libucrt:output.obj
 0001:0000f81f       ??$type_case_integer@$07@?$output_processor@DV?$stream_output_adapter@D@__crt_stdio_output@@V?$standard_base@DV?$stream_output_adapter@D@__crt_stdio_output@@@2@@__crt_stdio_output@@AAE_N_N@Z 1001081f f i libucrt:output.obj
 0001:0000f81f       ??$type_case_integer@$07@?$output_processor@DV?$string_output_adapter@D@__crt_stdio_output@@V?$standard_base@DV?$string_output_adapter@D@__crt_stdio_output@@@2@@__crt_stdio_output@@AAE_N_N@Z 1001081f f i libucrt:output.obj
 0001:0000f99c       ??$type_case_integer@$09@?$output_processor@DV?$stream_output_adapter@D@__crt_stdio_output@@V?$standard_base@DV?$stream_output_adapter@D@__crt_stdio_output@@@2@@__crt_stdio_output@@AAE_N_N@Z 1001099c f i libucrt:output.obj
 0001:0000f99c       ??$type_case_integer@$09@?$output_processor@DV?$string_output_adapter@D@__crt_stdio_output@@V?$standard_base@DV?$string_output_adapter@D@__crt_stdio_output@@@2@@__crt_stdio_output@@AAE_N_N@Z 1001099c f i libucrt:output.obj
 0001:0000fb19       ??$type_case_integer@$0BA@@?$output_processor@DV?$stream_output_adapter@D@__crt_stdio_output@@V?$standard_base@DV?$stream_output_adapter@D@__crt_stdio_output@@@2@@__crt_stdio_output@@AAE_N_N@Z 10010b19 f i libucrt:output.obj
 0001:0000fb19       ??$type_case_integer@$0BA@@?$output_processor@DV?$string_output_adapter@D@__crt_stdio_output@@V?$standard_base@DV?$string_output_adapter@D@__crt_stdio_output@@@2@@__crt_stdio_output@@AAE_N_N@Z 10010b19 f i libucrt:output.obj
 0001:0000fc96       ??$type_case_integer_parse_into_buffer@I$07@?$output_processor@DV?$stream_output_adapter@D@__crt_stdio_output@@V?$standard_base@DV?$stream_output_adapter@D@__crt_stdio_output@@@2@@__crt_stdio_output@@AAEXI_N@Z 10010c96 f i libucrt:output.obj
 0001:0000fc96       ??$type_case_integer_parse_into_buffer@I$07@?$output_processor@DV?$string_output_adapter@D@__crt_stdio_output@@V?$standard_base@DV?$string_output_adapter@D@__crt_stdio_output@@@2@@__crt_stdio_output@@AAEXI_N@Z 10010c96 f i libucrt:output.obj
 0001:0000fd00       ??$type_case_integer_parse_into_buffer@I$09@?$output_processor@DV?$stream_output_adapter@D@__crt_stdio_output@@V?$standard_base@DV?$stream_output_adapter@D@__crt_stdio_output@@@2@@__crt_stdio_output@@AAEXI_N@Z 10010d00 f i libucrt:output.obj
 0001:0000fd00       ??$type_case_integer_parse_into_buffer@I$09@?$output_processor@DV?$string_output_adapter@D@__crt_stdio_output@@V?$standard_base@DV?$string_output_adapter@D@__crt_stdio_output@@@2@@__crt_stdio_output@@AAEXI_N@Z 10010d00 f i libucrt:output.obj
 0001:0000fd7a       ??$type_case_integer_parse_into_buffer@I$0BA@@?$output_processor@DV?$stream_output_adapter@D@__crt_stdio_output@@V?$standard_base@DV?$stream_output_adapter@D@__crt_stdio_output@@@2@@__crt_stdio_output@@AAEXI_N@Z 10010d7a f i libucrt:output.obj
 0001:0000fd7a       ??$type_case_integer_parse_into_buffer@I$0BA@@?$output_processor@DV?$string_output_adapter@D@__crt_stdio_output@@V?$standard_base@DV?$string_output_adapter@D@__crt_stdio_output@@@2@@__crt_stdio_output@@AAEXI_N@Z 10010d7a f i libucrt:output.obj
 0001:0000fe02       ??$type_case_integer_parse_into_buffer@_K$07@?$output_processor@DV?$stream_output_adapter@D@__crt_stdio_output@@V?$standard_base@DV?$stream_output_adapter@D@__crt_stdio_output@@@2@@__crt_stdio_output@@AAEX_K_N@Z 10010e02 f i libucrt:output.obj
 0001:0000fe02       ??$type_case_integer_parse_into_buffer@_K$07@?$output_processor@DV?$string_output_adapter@D@__crt_stdio_output@@V?$standard_base@DV?$string_output_adapter@D@__crt_stdio_output@@@2@@__crt_stdio_output@@AAEX_K_N@Z 10010e02 f i libucrt:output.obj
 0001:0000fe7a       ??$type_case_integer_parse_into_buffer@_K$09@?$output_processor@DV?$stream_output_adapter@D@__crt_stdio_output@@V?$standard_base@DV?$stream_output_adapter@D@__crt_stdio_output@@@2@@__crt_stdio_output@@AAEX_K_N@Z 10010e7a f i libucrt:output.obj
 0001:0000fe7a       ??$type_case_integer_parse_into_buffer@_K$09@?$output_processor@DV?$string_output_adapter@D@__crt_stdio_output@@V?$standard_base@DV?$string_output_adapter@D@__crt_stdio_output@@@2@@__crt_stdio_output@@AAEX_K_N@Z 10010e7a f i libucrt:output.obj
 0001:0000ff16       ??$type_case_integer_parse_into_buffer@_K$0BA@@?$output_processor@DV?$stream_output_adapter@D@__crt_stdio_output@@V?$standard_base@DV?$stream_output_adapter@D@__crt_stdio_output@@@2@@__crt_stdio_output@@AAEX_K_N@Z 10010f16 f i libucrt:output.obj
 0001:0000ff16       ??$type_case_integer_parse_into_buffer@_K$0BA@@?$output_processor@DV?$string_output_adapter@D@__crt_stdio_output@@V?$standard_base@DV?$string_output_adapter@D@__crt_stdio_output@@@2@@__crt_stdio_output@@AAEX_K_N@Z 10010f16 f i libucrt:output.obj
 0001:0000ffa8       ??0?$output_adapter_data@DV?$stream_output_adapter@D@__crt_stdio_output@@@__crt_stdio_output@@IAE@ABV?$stream_output_adapter@D@1@_KQBDAAV__crt_cached_ptd_host@@QAD@Z 10010fa8 f i libucrt:output.obj
 0001:0000ffa8       ??0?$output_adapter_data@DV?$string_output_adapter@D@__crt_stdio_output@@@__crt_stdio_output@@IAE@ABV?$string_output_adapter@D@1@_KQBDAAV__crt_cached_ptd_host@@QAD@Z 10010fa8 f i libucrt:output.obj
 0001:00010010       ??0__crt_cached_ptd_host@@QAE@QAU__crt_locale_pointers@@@Z 10011010 f i libucrt:output.obj
 0001:00010070       ??1__crt_cached_ptd_host@@QAE@XZ 10011070 f i libucrt:output.obj
 0001:000100ac       ??1formatting_buffer@__crt_stdio_output@@QAE@XZ 100110ac f i libucrt:output.obj
 0001:000100c6       ??4?$__crt_unique_heap_ptr@DU__crt_internal_free_policy@@@@QAEAAV0@$$QAV0@@Z 100110c6 f i libucrt:output.obj
 0001:00010186       ?crop_zeroes@__crt_stdio_output@@YAXPADQAU__crt_locale_pointers@@@Z 10011186 f i libucrt:output.obj
 0001:000101e6       ?find_next_state@?$output_processor@DV?$stream_output_adapter@D@__crt_stdio_output@@V?$standard_base@DV?$stream_output_adapter@D@__crt_stdio_output@@@2@@__crt_stdio_output@@ABE?AW4state@2@DW432@@Z 100111e6 f i libucrt:output.obj
 0001:000101e6       ?find_next_state@?$output_processor@DV?$string_output_adapter@D@__crt_stdio_output@@V?$standard_base@DV?$string_output_adapter@D@__crt_stdio_output@@@2@@__crt_stdio_output@@ABE?AW4state@2@DW432@@Z 100111e6 f i libucrt:output.obj
 0001:00010221       ?force_decimal_point@__crt_stdio_output@@YAXPADQAU__crt_locale_pointers@@@Z 10011221 f i libucrt:output.obj
 0001:00010280       ?force_synchronize_per_thread_data@__crt_cached_ptd_host@@AAEPAU__acrt_ptd@@XZ 10011280 f i libucrt:output.obj
 0001:000102d0       ?get_raw_ptd@__crt_cached_ptd_host@@QAEPAU__acrt_ptd@@XZ 100112d0 f i libucrt:output.obj
 0001:0001032c       ?parse_int_from_format_string@?$output_processor@DV?$stream_output_adapter@D@__crt_stdio_output@@V?$standard_base@DV?$stream_output_adapter@D@__crt_stdio_output@@@2@@__crt_stdio_output@@AAE_NQAH@Z 1001132c f i libucrt:output.obj
 0001:0001032c       ?parse_int_from_format_string@?$output_processor@DV?$string_output_adapter@D@__crt_stdio_output@@V?$standard_base@DV?$string_output_adapter@D@__crt_stdio_output@@@2@@__crt_stdio_output@@AAE_NQAH@Z 1001132c f i libucrt:output.obj
 0001:000103a4       ?process@?$output_processor@DV?$stream_output_adapter@D@__crt_stdio_output@@V?$standard_base@DV?$stream_output_adapter@D@__crt_stdio_output@@@2@@__crt_stdio_output@@QAEHXZ 100113a4 f i libucrt:output.obj
 0001:00010650       ?process@?$output_processor@DV?$string_output_adapter@D@__crt_stdio_output@@V?$standard_base@DV?$string_output_adapter@D@__crt_stdio_output@@@2@@__crt_stdio_output@@QAEHXZ 10011650 f i libucrt:output.obj
 0001:00010924       ?state_case_size@?$output_processor@DV?$stream_output_adapter@D@__crt_stdio_output@@V?$standard_base@DV?$stream_output_adapter@D@__crt_stdio_output@@@2@@__crt_stdio_output@@AAE_NXZ 10011924 f i libucrt:output.obj
 0001:00010a82       ?state_case_size@?$output_processor@DV?$string_output_adapter@D@__crt_stdio_output@@V?$standard_base@DV?$string_output_adapter@D@__crt_stdio_output@@@2@@__crt_stdio_output@@AAE_NXZ 10011a82 f i libucrt:output.obj
 0001:00010be0       ?state_case_type@?$output_processor@DV?$stream_output_adapter@D@__crt_stdio_output@@V?$standard_base@DV?$stream_output_adapter@D@__crt_stdio_output@@@2@@__crt_stdio_output@@AAE_NXZ 10011be0 f i libucrt:output.obj
 0001:00010f28       ?state_case_type@?$output_processor@DV?$string_output_adapter@D@__crt_stdio_output@@V?$standard_base@DV?$string_output_adapter@D@__crt_stdio_output@@@2@@__crt_stdio_output@@AAE_NXZ 10011f28 f i libucrt:output.obj
 0001:000112b6       ?to_integer_size@__crt_stdio_output@@YAIW4length_modifier@1@@Z 100122b6 f i libucrt:output.obj
 0001:0001130a       ?type_case_Z@?$output_processor@DV?$stream_output_adapter@D@__crt_stdio_output@@V?$standard_base@DV?$stream_output_adapter@D@__crt_stdio_output@@@2@@__crt_stdio_output@@AAE_NXZ 1001230a f i libucrt:output.obj
 0001:0001130a       ?type_case_Z@?$output_processor@DV?$string_output_adapter@D@__crt_stdio_output@@V?$standard_base@DV?$string_output_adapter@D@__crt_stdio_output@@@2@@__crt_stdio_output@@AAE_NXZ 1001230a f i libucrt:output.obj
 0001:00011364       ?type_case_a@?$output_processor@DV?$stream_output_adapter@D@__crt_stdio_output@@V?$standard_base@DV?$stream_output_adapter@D@__crt_stdio_output@@@2@@__crt_stdio_output@@AAE_NXZ 10012364 f i libucrt:output.obj
 0001:00011364       ?type_case_a@?$output_processor@DV?$string_output_adapter@D@__crt_stdio_output@@V?$standard_base@DV?$string_output_adapter@D@__crt_stdio_output@@@2@@__crt_stdio_output@@AAE_NXZ 10012364 f i libucrt:output.obj
 0001:000114ee       ?type_case_c_tchar@?$output_processor@DV?$stream_output_adapter@D@__crt_stdio_output@@V?$standard_base@DV?$stream_output_adapter@D@__crt_stdio_output@@@2@@__crt_stdio_output@@AAE_ND@Z 100124ee f i libucrt:output.obj
 0001:000114ee       ?type_case_c_tchar@?$output_processor@DV?$string_output_adapter@D@__crt_stdio_output@@V?$standard_base@DV?$string_output_adapter@D@__crt_stdio_output@@@2@@__crt_stdio_output@@AAE_ND@Z 100124ee f i libucrt:output.obj
 0001:00011583       ?type_case_n@?$output_processor@DV?$stream_output_adapter@D@__crt_stdio_output@@V?$standard_base@DV?$stream_output_adapter@D@__crt_stdio_output@@@2@@__crt_stdio_output@@AAE_NXZ 10012583 f i libucrt:output.obj
 0001:00011583       ?type_case_n@?$output_processor@DV?$string_output_adapter@D@__crt_stdio_output@@V?$standard_base@DV?$string_output_adapter@D@__crt_stdio_output@@@2@@__crt_stdio_output@@AAE_NXZ 10012583 f i libucrt:output.obj
 0001:00011607       ?type_case_o@?$output_processor@DV?$stream_output_adapter@D@__crt_stdio_output@@V?$standard_base@DV?$stream_output_adapter@D@__crt_stdio_output@@@2@@__crt_stdio_output@@AAE_NXZ 10012607 f i libucrt:output.obj
 0001:00011607       ?type_case_o@?$output_processor@DV?$string_output_adapter@D@__crt_stdio_output@@V?$standard_base@DV?$string_output_adapter@D@__crt_stdio_output@@@2@@__crt_stdio_output@@AAE_NXZ 10012607 f i libucrt:output.obj
 0001:00011624       ?type_case_p@?$output_processor@DV?$stream_output_adapter@D@__crt_stdio_output@@V?$standard_base@DV?$stream_output_adapter@D@__crt_stdio_output@@@2@@__crt_stdio_output@@AAE_NXZ 10012624 f i libucrt:output.obj
 0001:00011624       ?type_case_p@?$output_processor@DV?$string_output_adapter@D@__crt_stdio_output@@V?$standard_base@DV?$string_output_adapter@D@__crt_stdio_output@@@2@@__crt_stdio_output@@AAE_NXZ 10012624 f i libucrt:output.obj
 0001:0001163a       ?type_case_s@?$output_processor@DV?$stream_output_adapter@D@__crt_stdio_output@@V?$standard_base@DV?$stream_output_adapter@D@__crt_stdio_output@@@2@@__crt_stdio_output@@AAE_NXZ 1001263a f i libucrt:output.obj
 0001:0001163a       ?type_case_s@?$output_processor@DV?$string_output_adapter@D@__crt_stdio_output@@V?$standard_base@DV?$string_output_adapter@D@__crt_stdio_output@@@2@@__crt_stdio_output@@AAE_NXZ 1001263a f i libucrt:output.obj
 0001:000116ab       ?unget@?$c_string_character_source@D@__crt_strtox@@QAEXD@Z 100126ab f i libucrt:output.obj
 0001:000116e0       ?update_locale_slow@__crt_cached_ptd_host@@AAEXXZ 100126e0 f i libucrt:output.obj
 0001:0001173b       ?validate@?$c_string_character_source@D@__crt_strtox@@QBE_NXZ 1001273b f i libucrt:output.obj
 0001:00011756       ?validate@?$stream_output_adapter@D@__crt_stdio_output@@QBE_NAAV__crt_cached_ptd_host@@@Z 10012756 f i libucrt:output.obj
 0001:0001178e       ?validate@?$string_output_adapter@D@__crt_stdio_output@@QBE_NAAV__crt_cached_ptd_host@@@Z 1001278e f i libucrt:output.obj
 0001:000117bf       ?validate_stream_is_ansi_if_required@?$__acrt_stdio_char_traits@D@@SA_NQAU_iobuf@@@Z 100127bf f i libucrt:output.obj
 0001:00011846       ?write_character@?$output_adapter_common@DV?$stream_output_adapter@D@__crt_stdio_output@@@__crt_stdio_output@@QBEXDQAHAAV__crt_cached_ptd_host@@@Z 10012846 f i libucrt:output.obj
 0001:00011868       ?write_character_without_count_update@?$stream_output_adapter@D@__crt_stdio_output@@QBE_NDAAV__crt_cached_ptd_host@@@Z 10012868 f i libucrt:output.obj
 0001:000118a2       ?write_string@?$stream_output_adapter@D@__crt_stdio_output@@QBEXQBDHQAHAAV__crt_cached_ptd_host@@@Z 100128a2 f i libucrt:output.obj
 0001:000118ce       ?write_string@?$string_output_adapter@D@__crt_stdio_output@@QBEXQBDHQAHAAV__crt_cached_ptd_host@@@Z 100128ce f i libucrt:output.obj
 0001:00011935       ?write_string_impl@?$output_adapter_common@DV?$stream_output_adapter@D@__crt_stdio_output@@@__crt_stdio_output@@IBEXQBDHQAHAAV__crt_cached_ptd_host@@@Z 10012935 f i libucrt:output.obj
 0001:000119b4       ___acrt_locale_get_ctype_array_value 100129b4 f i libucrt:output.obj
 0001:000119d6       ___stdio_common_vfprintf   100129d6 f   libucrt:output.obj
 0001:00011a7a       ___stdio_common_vsprintf   10012a7a f   libucrt:output.obj
 0001:00011abb       _malloc                    10012abb f   libucrt:malloc.obj
 0001:00011ac6       ?check_synchronize_global_state_index@__crt_cached_ptd_host@@AAEIXZ 10012ac6 f i libucrt:invalid_parameter.obj
 0001:00011aef       ___acrt_call_reportfault   10012aef f   libucrt:invalid_parameter.obj
 0001:00011c28       ___acrt_initialize_invalid_parameter_handler 10012c28 f   libucrt:invalid_parameter.obj
 0001:00011c37       __invalid_parameter        10012c37 f   libucrt:invalid_parameter.obj
 0001:00011c6e       __invalid_parameter_internal 10012c6e f   libucrt:invalid_parameter.obj
 0001:00011ceb       __invalid_parameter_noinfo 10012ceb f   libucrt:invalid_parameter.obj
 0001:00011cfb       __invoke_watson            10012cfb f   libucrt:invalid_parameter.obj
 0001:00011e54       _fclose                    10012e54 f   libucrt:fclose.obj
 0001:00011f3b       _fopen                     10012f3b f   libucrt:fopen.obj
 0001:00011f52       __fread_nolock_s           10012f52 f   libucrt:fread.obj
 0001:00012138       _fread                     10013138 f   libucrt:fread.obj
 0001:00012155       _fread_s                   10013155 f   libucrt:fread.obj
 0001:00012273       ?LongLongSub@@YAJ_J0PA_J@Z 10013273 f i libucrt:fseek.obj
 0001:0001254e       _fseek                     1001354e f   libucrt:fseek.obj
 0001:00012b96       __ftelli64_nolock_internal 10013b96 f   libucrt:ftell.obj
 0001:00012ba1       _ftell                     10013ba1 f   libucrt:ftell.obj
 0001:00012cb7       _rewind                    10013cb7 f   libucrt:rewind.obj
 0001:00012ce1       _free                      10013ce1 f   libucrt:free.obj
 0001:00012cfc       ??$is_overflow_condition@_K@__crt_strtox@@YA_NI_K@Z 10013cfc f i libucrt:atox.obj
 0001:00012d3d       ??$parse_integer@KV?$c_string_character_source@D@__crt_strtox@@$00@__crt_strtox@@YAKAAV__crt_cached_ptd_host@@V?$c_string_character_source@D@0@H_N@Z 10013d3d f i libucrt:atox.obj
 0001:00012f84       ??$parse_integer@_KV?$c_string_character_source@D@__crt_strtox@@$00@__crt_strtox@@YA_KAAV__crt_cached_ptd_host@@V?$c_string_character_source@D@0@H_N@Z 10013f84 f i libucrt:atox.obj
 0001:0001324c       __ischartype_l             1001424c f i libucrt:atox.obj
 0001:000132a3       _atoi                      100142a3 f   libucrt:atox.obj
 0001:0001333d       ??$assemble_floating_point_snan@N@__crt_strtox@@YAX_NAAN@Z 1001433d f i libucrt:input.obj
 0001:0001335e       ??$assemble_floating_point_value_t@M@__crt_strtox@@YA?AW4SLD_STATUS@@_NH_KAAM@Z 1001435e f i libucrt:input.obj
 0001:0001338e       ??$assemble_floating_point_value_t@N@__crt_strtox@@YA?AW4SLD_STATUS@@_NH_KAAN@Z 1001438e f i libucrt:input.obj
 0001:000133d0       ??$convert_decimal_string_to_floating_type@M@__crt_strtox@@YA?AW4SLD_STATUS@@ABUfloating_point_string@0@AAM@Z 100143d0 f i libucrt:input.obj
 0001:000133f1       ??$convert_decimal_string_to_floating_type@N@__crt_strtox@@YA?AW4SLD_STATUS@@ABUfloating_point_string@0@AAN@Z 100143f1 f i libucrt:input.obj
 0001:00013412       ??$convert_hexadecimal_string_to_floating_type@M@__crt_strtox@@YA?AW4SLD_STATUS@@ABUfloating_point_string@0@AAM@Z 10014412 f i libucrt:input.obj
 0001:00013433       ??$convert_hexadecimal_string_to_floating_type@N@__crt_strtox@@YA?AW4SLD_STATUS@@ABUfloating_point_string@0@AAN@Z 10014433 f i libucrt:input.obj
 0001:00013454       ??$make_input_adapter_character_source@V?$stream_input_adapter@D@__crt_stdio_input@@@__crt_strtox@@YA?AV?$input_adapter_character_source@V?$stream_input_adapter@D@__crt_stdio_input@@@0@QAV?$stream_input_adapter@D@__crt_stdio_input@@_KQA_N@Z 10014454 f i libucrt:input.obj
 0001:00013472       ??$parse_floating_point@V?$input_adapter_character_source@V?$stream_input_adapter@D@__crt_stdio_input@@@__crt_strtox@@M@__crt_strtox@@YA?AW4SLD_STATUS@@QAU__crt_locale_pointers@@V?$input_adapter_character_source@V?$stream_input_adapter@D@__crt_stdio_input@@@0@QAM@Z 10014472 f i libucrt:input.obj
 0001:000134fc       ??$parse_floating_point@V?$input_adapter_character_source@V?$stream_input_adapter@D@__crt_stdio_input@@@__crt_strtox@@N@__crt_strtox@@YA?AW4SLD_STATUS@@QAU__crt_locale_pointers@@V?$input_adapter_character_source@V?$stream_input_adapter@D@__crt_stdio_input@@@0@QAN@Z 100144fc f i libucrt:input.obj
 0001:00013586       ??$parse_floating_point_from_source@V?$input_adapter_character_source@V?$stream_input_adapter@D@__crt_stdio_input@@@__crt_strtox@@@__crt_strtox@@YA?AW4floating_point_parse_result@0@QAU__crt_locale_pointers@@AAV?$input_adapter_character_source@V?$stream_input_adapter@D@__crt_stdio_input@@@0@AAUfloating_point_string@0@@Z 10014586 f i libucrt:input.obj
 0001:000139d1       ??$parse_floating_point_possible_infinity@DV?$input_adapter_character_source@V?$stream_input_adapter@D@__crt_stdio_input@@@__crt_strtox@@_K@__crt_strtox@@YA?AW4floating_point_parse_result@0@AADAAV?$input_adapter_character_source@V?$stream_input_adapter@D@__crt_stdio_input@@@0@_K@Z 100149d1 f i libucrt:input.obj
 0001:00013a90       ??$parse_floating_point_possible_nan@DV?$input_adapter_character_source@V?$stream_input_adapter@D@__crt_stdio_input@@@__crt_strtox@@_K@__crt_strtox@@YA?AW4floating_point_parse_result@0@AADAAV?$input_adapter_character_source@V?$stream_input_adapter@D@__crt_stdio_input@@@0@_K@Z 10014a90 f i libucrt:input.obj
 0001:00013b98       ??$parse_floating_point_possible_nan_is_ind@DV?$input_adapter_character_source@V?$stream_input_adapter@D@__crt_stdio_input@@@__crt_strtox@@@__crt_strtox@@YA_NAADAAV?$input_adapter_character_source@V?$stream_input_adapter@D@__crt_stdio_input@@@0@@Z 10014b98 f i libucrt:input.obj
 0001:00013bd2       ??$parse_floating_point_possible_nan_is_snan@DV?$input_adapter_character_source@V?$stream_input_adapter@D@__crt_stdio_input@@@__crt_strtox@@@__crt_strtox@@YA_NAADAAV?$input_adapter_character_source@V?$stream_input_adapter@D@__crt_stdio_input@@@0@@Z 10014bd2 f i libucrt:input.obj
 0001:00013c0c       ??$parse_floating_point_write_result@M@__crt_strtox@@YA?AW4SLD_STATUS@@W4floating_point_parse_result@0@ABUfloating_point_string@0@QAM@Z 10014c0c f i libucrt:input.obj
 0001:00013d78       ??$parse_floating_point_write_result@N@__crt_strtox@@YA?AW4SLD_STATUS@@W4floating_point_parse_result@0@ABUfloating_point_string@0@QAN@Z 10014d78 f i libucrt:input.obj
 0001:00013e9c       ??$parse_integer@_KV?$input_adapter_character_source@V?$stream_input_adapter@D@__crt_stdio_input@@@__crt_strtox@@$00@__crt_strtox@@YA_KAAV__crt_cached_ptd_host@@V?$input_adapter_character_source@V?$stream_input_adapter@D@__crt_stdio_input@@@0@H_N@Z 10014e9c f i libucrt:input.obj
 0001:000141a0       ??$parse_integer@_KV?$input_adapter_character_source@V?$stream_input_adapter@D@__crt_stdio_input@@@__crt_strtox@@@__crt_strtox@@YA_KQAU__crt_locale_pointers@@V?$input_adapter_character_source@V?$stream_input_adapter@D@__crt_stdio_input@@@0@H_N@Z 100151a0 f i libucrt:input.obj
 0001:000141fc       ??$process_floating_point_specifier_t@M@?$input_processor@DV?$stream_input_adapter@D@__crt_stdio_input@@@__crt_stdio_input@@AAE_NXZ 100151fc f i libucrt:input.obj
 0001:00014265       ??$process_floating_point_specifier_t@N@?$input_processor@DV?$stream_input_adapter@D@__crt_stdio_input@@@__crt_stdio_input@@AAE_NXZ 10015265 f i libucrt:input.obj
 0001:000142ce       ??$process_string_specifier_tchar@D@?$input_processor@DV?$stream_input_adapter@D@__crt_stdio_input@@@__crt_stdio_input@@AAE_NW4conversion_mode@1@D@Z 100152ce f i libucrt:input.obj
 0001:00014445       ??$process_string_specifier_tchar@_W@?$input_processor@DV?$stream_input_adapter@D@__crt_stdio_input@@@__crt_stdio_input@@AAE_NW4conversion_mode@1@_W@Z 10015445 f i libucrt:input.obj
 0001:000145c8       ??$skip_whitespace@Vstream_input_adapter@__crt_stdio_input@@D@__crt_stdio_input@@YAHAAV?$stream_input_adapter@D@0@QAU__crt_locale_pointers@@@Z 100155c8 f i libucrt:input.obj
 0001:000145ff       ??$write_floating_point@M@?$input_processor@DV?$stream_input_adapter@D@__crt_stdio_input@@@__crt_stdio_input@@AAE_NABM@Z 100155ff f i libucrt:input.obj
 0001:00014633       ??$write_floating_point@N@?$input_processor@DV?$stream_input_adapter@D@__crt_stdio_input@@@__crt_stdio_input@@AAE_NABN@Z 10015633 f i libucrt:input.obj
 0001:0001466d       ??0?$format_string_parser@D@__crt_stdio_input@@QAE@_KQBE@Z 1001566d f i libucrt:input.obj
 0001:000146b7       ??0?$input_adapter_character_source@V?$stream_input_adapter@D@__crt_stdio_input@@@__crt_strtox@@QAE@$$QAV01@@Z 100156b7 f i libucrt:input.obj
 0001:000146f4       ??0?$input_adapter_character_source@V?$stream_input_adapter@D@__crt_stdio_input@@@__crt_strtox@@QAE@QAV?$stream_input_adapter@D@__crt_stdio_input@@_KQA_N@Z 100156f4 f i libucrt:input.obj
 0001:00014725       ??0?$input_processor@DV?$stream_input_adapter@D@__crt_stdio_input@@@__crt_stdio_input@@QAE@ABV?$stream_input_adapter@D@1@_KQBDQAU__crt_locale_pointers@@QAD@Z 10015725 f i libucrt:input.obj
 0001:0001476e       ??0_LocaleUpdate@@QAE@QAU__crt_locale_pointers@@@Z 1001576e f i libucrt:input.obj
 0001:000147f0       ??R<lambda_0b87716a0b73cdfba1cd37fcaaa20711>@@QBE_NXZ 100157f0 f i libucrt:input.obj
 0001:000147f0       ??R<lambda_c7c3f778895f47e7f4eff38a8fef279a>@@QBE_NXZ 100157f0 f i libucrt:input.obj
 0001:000147f0       ??R<lambda_e41f1170c8800e4a6fed1afad60fab6f>@@QBE_NXZ 100157f0 f i libucrt:input.obj
 0001:0001489a       ?advance@?$format_string_parser@D@__crt_stdio_input@@QAE_NXZ 1001589a f i libucrt:input.obj
 0001:000149b2       ?as_double@floating_point_value@__crt_strtox@@QBEAANXZ 100159b2 f i libucrt:input.obj
 0001:000149d7       ?as_float@floating_point_value@__crt_strtox@@QBEAAMXZ 100159d7 f i libucrt:input.obj
 0001:000149fc       ?assemble_floating_point_infinity@__crt_strtox@@YAX_NABVfloating_point_value@1@@Z 100159fc f i libucrt:input.obj
 0001:00014a3c       ?assemble_floating_point_value@__crt_strtox@@YA?AW4SLD_STATUS@@_KH_N1ABVfloating_point_value@1@@Z 10015a3c f i libucrt:input.obj
 0001:00014d8f       ?assemble_floating_point_value_from_big_integer@__crt_strtox@@YA?AW4SLD_STATUS@@ABUbig_integer@1@I_N1ABVfloating_point_value@1@@Z 10015d8f f i libucrt:input.obj
 0001:00014f21       ?assemble_floating_point_zero@__crt_strtox@@YAX_NABVfloating_point_value@1@@Z 10015f21 f i libucrt:input.obj
 0001:00014f56       ?convert_decimal_string_to_floating_type_common@__crt_strtox@@YA?AW4SLD_STATUS@@ABUfloating_point_string@1@ABVfloating_point_value@1@@Z 10015f56 f i libucrt:input.obj
 0001:00016c75       ?convert_hexadecimal_string_to_floating_type_common@__crt_strtox@@YA?AW4SLD_STATUS@@ABUfloating_point_string@1@ABVfloating_point_value@1@@Z 10017c75 f i libucrt:input.obj
 0001:00016d1b       ?denormal_mantissa_mask@floating_point_value@__crt_strtox@@QBE_KXZ 10017d1b f i libucrt:input.obj
 0001:00016d40       ?divide@__crt_strtox@@YA_KAAUbig_integer@1@ABU21@@Z 10017d40 f i libucrt:input.obj
 0001:000171c8       ?get@?$input_adapter_character_source@V?$stream_input_adapter@D@__crt_stdio_input@@@__crt_strtox@@QAEDXZ 100181c8 f i libucrt:input.obj
 0001:00017207       ?is_character_allowed_in_string@?$input_processor@DV?$stream_input_adapter@D@__crt_stdio_input@@@__crt_stdio_input@@ABE_NW4conversion_mode@2@H@Z 10018207 f i libucrt:input.obj
 0001:00017257       ?length@?$format_string_parser@D@__crt_stdio_input@@QBEIXZ 10018257 f i libucrt:input.obj
 0001:00017298       ?normal_mantissa_mask@floating_point_value@__crt_strtox@@QBE_KXZ 10018298 f i libucrt:input.obj
 0001:000172af       ?process@?$input_processor@DV?$stream_input_adapter@D@__crt_stdio_input@@@__crt_stdio_input@@QAEHXZ 100182af f i libucrt:input.obj
 0001:0001733a       ?process_character_count_specifier@?$input_processor@DV?$stream_input_adapter@D@__crt_stdio_input@@@__crt_stdio_input@@AAE_NXZ 1001833a f i libucrt:input.obj
 0001:0001734e       ?process_conversion_specifier@?$input_processor@DV?$stream_input_adapter@D@__crt_stdio_input@@@__crt_stdio_input@@AAE_NXZ 1001834e f i libucrt:input.obj
 0001:000173c2       ?process_floating_point_specifier@?$input_processor@DV?$stream_input_adapter@D@__crt_stdio_input@@@__crt_stdio_input@@AAE_NXZ 100183c2 f i libucrt:input.obj
 0001:000173f2       ?process_integer_specifier@?$input_processor@DV?$stream_input_adapter@D@__crt_stdio_input@@@__crt_stdio_input@@AAE_NI_N@Z 100183f2 f i libucrt:input.obj
 0001:00017457       ?process_literal_character@?$input_processor@DV?$stream_input_adapter@D@__crt_stdio_input@@@__crt_stdio_input@@AAE_NXZ 10018457 f i libucrt:input.obj
 0001:0001748d       ?process_literal_character_tchar@?$input_processor@DV?$stream_input_adapter@D@__crt_stdio_input@@@__crt_stdio_input@@AAE_ND@Z 1001848d f i libucrt:input.obj
 0001:000174e4       ?process_state@?$input_processor@DV?$stream_input_adapter@D@__crt_stdio_input@@@__crt_stdio_input@@AAE_NXZ 100184e4 f i libucrt:input.obj
 0001:00017526       ?process_string_specifier@?$input_processor@DV?$stream_input_adapter@D@__crt_stdio_input@@@__crt_stdio_input@@AAE_NW4conversion_mode@2@@Z 10018526 f i libucrt:input.obj
 0001:0001756e       ?process_whitespace@?$input_processor@DV?$stream_input_adapter@D@__crt_stdio_input@@@__crt_stdio_input@@AAE_NXZ 1001856e f i libucrt:input.obj
 0001:0001758b       ?restore_state@?$input_adapter_character_source@V?$stream_input_adapter@D@__crt_stdio_input@@@__crt_strtox@@QAE_N_K@Z 1001858b f i libucrt:input.obj
 0001:000175b0       ?scan_conversion_specifier@?$format_string_parser@D@__crt_stdio_input@@AAE_NXZ 100185b0 f i libucrt:input.obj
 0001:0001771b       ?scan_optional_field_width@?$format_string_parser@D@__crt_stdio_input@@AAE_NXZ 1001871b f i libucrt:input.obj
 0001:000177af       ?scan_optional_length_modifier@?$format_string_parser@D@__crt_stdio_input@@AAEXXZ 100187af f i libucrt:input.obj
 0001:000178c2       ?scan_optional_literal_character_trail_bytes_tchar@?$format_string_parser@D@__crt_stdio_input@@AAE_ND@Z 100188c2 f i libucrt:input.obj
 0001:00017914       ?scan_optional_wide_modifier@?$format_string_parser@D@__crt_stdio_input@@AAEXXZ 10018914 f i libucrt:input.obj
 0001:00017932       ?scan_scanset_range@?$format_string_parser@D@__crt_stdio_input@@AAE_NXZ 10018932 f i libucrt:input.obj
 0001:00017a73       ?set_wide_for_c_s_or_scanset@?$format_string_parser@D@__crt_stdio_input@@AAEXXZ 10018a73 f i libucrt:input.obj
 0001:00017a94       ?to_floating_point_length@__crt_stdio_input@@YAIW4length_modifier@1@@Z 10018a94 f i libucrt:input.obj
 0001:00017ab7       ?to_integer_length@__crt_stdio_input@@YAIW4length_modifier@1@@Z 10018ab7 f i libucrt:input.obj
 0001:00017b0a       ?unget@?$input_adapter_character_source@V?$stream_input_adapter@D@__crt_stdio_input@@@__crt_strtox@@QAEXD@Z 10018b0a f i libucrt:input.obj
 0001:00017b51       ?unget@?$stream_input_adapter@D@__crt_stdio_input@@QAEXH@Z 10018b51 f i libucrt:input.obj
 0001:00017b6f       ?validate@?$format_string_parser@D@__crt_stdio_input@@QBE_NXZ 10018b6f f i libucrt:input.obj
 0001:00017b8b       ?validate@?$input_adapter_character_source@V?$stream_input_adapter@D@__crt_stdio_input@@@__crt_strtox@@QBE_NXZ 10018b8b f i libucrt:input.obj
 0001:00017bac       ?validate@?$stream_input_adapter@D@__crt_stdio_input@@QBE_NXZ 10018bac f i libucrt:input.obj
 0001:00017bcd       ?write_character@?$input_processor@DV?$stream_input_adapter@D@__crt_stdio_input@@@__crt_stdio_input@@AAE_NQA_WIAAPA_WAAID@Z 10018bcd f i libucrt:input.obj
 0001:00017c43       ?write_integer@?$input_processor@DV?$stream_input_adapter@D@__crt_stdio_input@@@__crt_stdio_input@@AAE_N_K@Z 10018c43 f i libucrt:input.obj
 0001:00017cb1       ___stdio_common_vfscanf    10018cb1 f   libucrt:input.obj
 0001:00017d9a       ??$parse_floating_point@V?$c_string_character_source@D@__crt_strtox@@N@__crt_strtox@@YA?AW4SLD_STATUS@@QAU__crt_locale_pointers@@V?$c_string_character_source@D@0@QAN@Z 10018d9a f i libucrt:atof.obj
 0001:00017e1a       ??$parse_floating_point_from_source@V?$c_string_character_source@D@__crt_strtox@@@__crt_strtox@@YA?AW4floating_point_parse_result@0@QAU__crt_locale_pointers@@AAV?$c_string_character_source@D@0@AAUfloating_point_string@0@@Z 10018e1a f i libucrt:atof.obj
 0001:00018212       ??$parse_floating_point_possible_infinity@DV?$c_string_character_source@D@__crt_strtox@@PBD@__crt_strtox@@YA?AW4floating_point_parse_result@0@AADAAV?$c_string_character_source@D@0@PBD@Z 10019212 f i libucrt:atof.obj
 0001:000182c5       ??$parse_floating_point_possible_nan@DV?$c_string_character_source@D@__crt_strtox@@PBD@__crt_strtox@@YA?AW4floating_point_parse_result@0@AADAAV?$c_string_character_source@D@0@PBD@Z 100192c5 f i libucrt:atof.obj
 0001:000183c9       ??$parse_floating_point_possible_nan_is_ind@DV?$c_string_character_source@D@__crt_strtox@@@__crt_strtox@@YA_NAADAAV?$c_string_character_source@D@0@@Z 100193c9 f i libucrt:atof.obj
 0001:00018405       ??$parse_floating_point_possible_nan_is_snan@DV?$c_string_character_source@D@__crt_strtox@@@__crt_strtox@@YA_NAADAAV?$c_string_character_source@D@0@@Z 10019405 f i libucrt:atof.obj
 0001:00018441       ??R<lambda_32aa245da1b5b882fa96db788295c8b2>@@QBE_NXZ 10019441 f i libucrt:atof.obj
 0001:00018441       ??R<lambda_690cf26ff5d754c94c32cf642e9f01bc>@@QBE_NXZ 10019441 f i libucrt:atof.obj
 0001:00018441       ??R<lambda_e51f7abad2595a5950d3223319845217>@@QBE_NXZ 10019441 f i libucrt:atof.obj
 0001:00018467       _atof                      10019467 f   libucrt:atof.obj
 0001:0001847a       ??$__acrt_convert_wcs_mbs_cp@D_WV<lambda_62f6974d9771e494a5ea317cc32e971c>@@U__crt_win32_buffer_internal_dynamic_resizing@@@@YAHQBDAAV?$__crt_win32_buffer@_WU__crt_win32_buffer_internal_dynamic_resizing@@@@ABV<lambda_62f6974d9771e494a5ea317cc32e971c>@@I@Z 1001947a f i libucrt:access.obj
 0001:0001852c       ??$__acrt_mbs_to_wcs_cp@U__crt_win32_buffer_internal_dynamic_resizing@@@@YAHQBDAAV?$__crt_win32_buffer@_WU__crt_win32_buffer_internal_dynamic_resizing@@@@I@Z 1001952c f i libucrt:access.obj
 0001:00018549       ?__acrt_get_utf8_acp_compatibility_codepage@@YAIXZ 10019549 f i libucrt:access.obj
 0001:00018588       ?_deallocate@?$__crt_win32_buffer@DU__crt_win32_buffer_internal_dynamic_resizing@@@@AAEXXZ 10019588 f i libucrt:argv_wildcards.obj
 0001:00018588       ?_deallocate@?$__crt_win32_buffer@_WU__crt_win32_buffer_internal_dynamic_resizing@@@@AAEXXZ 10019588 f i libucrt:access.obj
 0001:000185a2       ?allocate@?$__crt_win32_buffer@_WU__crt_win32_buffer_internal_dynamic_resizing@@@@QAEHI@Z 100195a2 f i libucrt:access.obj
 0001:000185e1       ?allocate@__crt_win32_buffer_internal_dynamic_resizing@@SAHQAPAXIABV__crt_win32_buffer_empty_debug_info@@@Z 100195e1 f i libucrt:access.obj
 0001:00018600       __access                   10019600 f   libucrt:access.obj
 0001:00018618       __access_s                 10019618 f   libucrt:access.obj
 0001:0001868a       ___acrt_initialize_new_handler 1001968a f   libucrt:new_handler.obj
 0001:00018699       __callnewh                 10019699 f   libucrt:new_handler.obj
 0001:000186c6       __query_new_handler        100196c6 f   libucrt:new_handler.obj
 0001:00018722       __initterm                 10019722 f   libucrt:initterm.obj
 0001:0001874d       __initterm_e               1001974d f   libucrt:initterm.obj
 0001:0001877b       __seh_filter_dll           1001977b f   libucrt:exception_filter.obj
 0001:0001879b       __seh_filter_exe           1001979b f   libucrt:exception_filter.obj
 0001:00018bc8       ___acrt_initialize_thread_local_exit_callback 10019bc8 f   libucrt:exit.obj
 0001:00018bd7       __cexit                    10019bd7 f   libucrt:exit.obj
 0001:00018be6       __exit                     10019be6 f   libucrt:exit.obj
 0001:00018bfc       __is_c_termination_complete 10019bfc f   libucrt:exit.obj
 0001:00018eb4       ___acrt_allocate_buffer_for_argv 10019eb4 f   libucrt:argv_parsing.obj
 0001:00018f03       __configure_narrow_argv    10019f03 f   libucrt:argv_parsing.obj
 0001:000190af       ___dcrt_uninitialize_environments_nolock 1001a0af f   libucrt:environment_initialization.obj
 0001:00019100       __initialize_narrow_environment 1001a100 f   libucrt:environment_initialization.obj
 0001:0001923a       __execute_onexit_table     1001a23a f   libucrt:onexit.obj
 0001:00019278       __initialize_onexit_table  1001a278 f   libucrt:onexit.obj
 0001:000192f1       ___acrt_uninitialize_command_line 1001a2f1 f   libucrt:argv_data.obj
 0001:00019371       ??$__crt_fast_encode_pointer@PAX@@YAPAXQAX@Z 1001a371 f i libucrt:initialization.obj
 0001:000193be       ___acrt_initialize         1001a3be f   libucrt:initialization.obj
 0001:000193d0       ___acrt_thread_attach      1001a3d0 f   libucrt:initialization.obj
 0001:000193db       ___acrt_thread_detach      1001a3db f   libucrt:initialization.obj
 0001:000193e3       ___acrt_uninitialize       1001a3e3 f   libucrt:initialization.obj
 0001:00019413       ___acrt_uninitialize_critical 1001a413 f   libucrt:initialization.obj
 0001:00019425       _terminate                 1001a425 f   libucrt:terminate.obj
 0001:00019461       _abort                     1001a461 f   libucrt:abort.obj
 0001:000194a5       _calloc                    1001a4a5 f   libucrt:calloc.obj
 0001:000194b0       _strncmp                   1001a4b0 f   libucrt:strncmp.obj
 0001:00019528       _wcsncmp                   1001a528 f   libucrt:wcsncmp.obj
 0001:00019562       ___acrt_errno_from_os_error 1001a562 f   libucrt:errno.obj
 0001:000195a5       ___acrt_errno_map_os_error 1001a5a5 f   libucrt:errno.obj
 0001:000195c8       ___acrt_errno_map_os_error_ptd 1001a5c8 f   libucrt:errno.obj
 0001:000195ec       ___doserrno                1001a5ec f   libucrt:errno.obj
 0001:000195ff       __errno                    1001a5ff f   libucrt:errno.obj
 0001:00019612       __free_base                1001a612 f   libucrt:free_base.obj
 0001:0001964c       __malloc_base              1001a64c f   libucrt:malloc_base.obj
 0001:0001969a       _strnlen                   1001a69a f   libucrt:strnlen.obj
 0001:000197bc       _wcsnlen                   1001a7bc f   libucrt:strnlen.obj
 0001:0001996c       ___acrt_update_locale_info 1001a96c f   libucrt:locale_update.obj
 0001:00019999       ___acrt_update_locale_info_explicit 1001a999 f   libucrt:locale_update.obj
 0001:000199ca       ___acrt_update_multibyte_info 1001a9ca f   libucrt:locale_update.obj
 0001:000199f7       ___acrt_update_multibyte_info_explicit 1001a9f7 f   libucrt:locale_update.obj
 0001:00019a28       ?__acrt_fp_classify@@YA?AW4__acrt_fp_class@@ABN@Z 1001aa28 f i libucrt:cvt.obj
 0001:0001a3f1       ___acrt_fp_format          1001b3f1 f   libucrt:cvt.obj
 0001:0001a572       __wctomb_internal          1001b572 f   libucrt:wctomb.obj
 0001:0001a6dc       __mbtowc_internal          1001b6dc f   libucrt:mbtowc.obj
 0001:0001a80f       __mbtowc_l                 1001b80f f   libucrt:mbtowc.obj
 0001:0001a847       __fileno                   1001b847 f   libucrt:fileno.obj
 0001:0001a86e       ___acrt_initialize_stdio   1001b86e f   libucrt:_file.obj
 0001:0001a936       ___acrt_iob_func           1001b936 f   libucrt:_file.obj
 0001:0001a946       ___acrt_uninitialize_stdio 1001b946 f   libucrt:_file.obj
 0001:0001a992       __lock_file                1001b992 f   libucrt:_file.obj
 0001:0001a9a6       __unlock_file              1001b9a6 f   libucrt:_file.obj
 0001:0001a9ba       __get_printf_count_output  1001b9ba f   libucrt:printf_count_output.obj
 0001:0001a9cf       __fputc_nolock_internal    1001b9cf f   libucrt:fputc.obj
 0001:0001a9fc       ___acrt_should_use_temporary_buffer 1001b9fc f   libucrt:_sftbuf.obj
 0001:0001aa37       ___acrt_stdio_begin_temporary_buffering_nolock 1001ba37 f   libucrt:_sftbuf.obj
 0001:0001aae3       ___acrt_stdio_end_temporary_buffering_nolock 1001bae3 f   libucrt:_sftbuf.obj
 0001:0001ae5f       ___acrt_freeptd            1001be5f f   libucrt:per_thread_data.obj
 0001:0001ae8b       ___acrt_getptd             1001be8b f   libucrt:per_thread_data.obj
 0001:0001af46       ___acrt_getptd_head        1001bf46 f   libucrt:per_thread_data.obj
 0001:0001afdc       ___acrt_getptd_noexit      1001bfdc f   libucrt:per_thread_data.obj
 0001:0001b08d       ___acrt_getptd_noexit_explicit 1001c08d f   libucrt:per_thread_data.obj
 0001:0001b130       ___acrt_initialize_ptd     1001c130 f   libucrt:per_thread_data.obj
 0001:0001b15c       ___acrt_uninitialize_ptd   1001c15c f   libucrt:per_thread_data.obj
 0001:0001b1e4       ___acrt_set_locale_changed 1001c1e4 f   libucrt:wsetlocale.obj
 0001:0001b1ef       ___acrt_uninitialize_locale 1001c1ef f   libucrt:wsetlocale.obj
 0001:0001b37c       ___acrt_initialize_lowio   1001c37c f   libucrt:ioinit.obj
 0001:0001b3dc       ___acrt_uninitialize_lowio 1001c3dc f   libucrt:ioinit.obj
 0001:0001b499       __close_internal           1001c499 f   libucrt:close.obj
 0001:0001b53c       __close_nolock             1001c53c f   libucrt:close.obj
 0001:0001b56c       __close_nolock_internal    1001c56c f   libucrt:close.obj
 0001:0001b60c       ?__acrt_stdio_allocate_stream@@YA?AV__crt_stdio_stream@@XZ 1001c60c f   libucrt:stream.obj
 0001:0001b675       ?__acrt_stdio_free_stream@@YAXV__crt_stdio_stream@@@Z 1001c675 f   libucrt:stream.obj
 0001:0001b772       ___acrt_stdio_free_buffer_nolock 1001c772 f   libucrt:_freebuf.obj
 0001:0001b98f       ___acrt_stdio_flush_nolock 1001c98f f   libucrt:fflush.obj
 0001:0001b9f8       __fflush_nolock            1001c9f8 f   libucrt:fflush.obj
 0001:0001ba5d       __flushall                 1001ca5d f   libucrt:fflush.obj
 0001:0001ba66       ??$__acrt_stdio_parse_mode@D@@YA?AU__acrt_stdio_stream_mode@@QBD@Z 1001ca66 f i libucrt:openfile.obj
 0001:0001bd13       ?__acrt_stdio_parse_mode_D@@YA_NAAU__acrt_stdio_stream_mode@@@Z 1001cd13 f i libucrt:openfile.obj
 0001:0001bd2e       ?__acrt_stdio_parse_mode_T@@YA_NAAU__acrt_stdio_stream_mode@@@Z 1001cd2e f i libucrt:openfile.obj
 0001:0001bd4d       ?__acrt_stdio_parse_mode_b@@YA_NAAU__acrt_stdio_stream_mode@@@Z 1001cd4d f i libucrt:openfile.obj
 0001:0001bd6d       ?__acrt_stdio_parse_mode_c@@YA_NAAU__acrt_stdio_stream_mode@@AA_N@Z 1001cd6d f i libucrt:openfile.obj
 0001:0001bd8f       ?__acrt_stdio_parse_mode_n@@YA_NAAU__acrt_stdio_stream_mode@@AA_N@Z 1001cd8f f i libucrt:openfile.obj
 0001:0001bdb1       ?__acrt_stdio_parse_mode_plus@@YA_NAAU__acrt_stdio_stream_mode@@AA_N@Z 1001cdb1 f i libucrt:openfile.obj
 0001:0001bde7       ?__acrt_stdio_parse_mode_t@@YA_NAAU__acrt_stdio_stream_mode@@@Z 1001cde7 f i libucrt:openfile.obj
 0001:0001be07       ?__acrt_stdio_parse_mode_x@@YA_NAAU__acrt_stdio_stream_mode@@@Z 1001ce07 f i libucrt:openfile.obj
 0001:0001be27       __openfile                 1001ce27 f   libucrt:openfile.obj
 0001:0001c2f8       __read                     1001d2f8 f   libucrt:read.obj
 0001:0001c40c       __read_nolock              1001d40c f   libucrt:read.obj
 0001:0001c93a       ___acrt_stdio_refill_and_read_narrow_nolock 1001d93a f   libucrt:_filbuf.obj
 0001:0001ccdc       __lseek_internal           1001dcdc f   libucrt:lseek.obj
 0001:0001cce7       __lseeki64                 1001dce7 f   libucrt:lseek.obj
 0001:0001cd27       __lseeki64_internal        1001dd27 f   libucrt:lseek.obj
 0001:0001cd45       __lseeki64_nolock          1001dd45 f   libucrt:lseek.obj
 0001:0001cd85       __lseeki64_nolock_internal 1001dd85 f   libucrt:lseek.obj
 0001:0001cda3       ___pctype_func             1001dda3 f   libucrt:ctype.obj
 0001:0001cdc7       __isctype_l                1001ddc7 f   libucrt:isctype.obj
 0001:0001cea0       _isspace                   1001dea0 f   libucrt:_ctype.obj
 0001:0001cf24       __calloc_base              1001df24 f   libucrt:calloc_base.obj
 0001:0001cf81       _strtoull                  1001df81 f   libucrt:strtox.obj
 0001:0001cfcd       __fgetc_nolock             1001dfcd f   libucrt:fgetc.obj
 0001:0001d009       __getc_nolock              1001e009 f   libucrt:fgetc.obj
 0001:0001d014       __ungetc_nolock            1001e014 f   libucrt:ungetc.obj
 0001:0001d10d       _fegetround                1001e10d f   libucrt:fegetround.obj
 0001:0001d11a       ___acrt_MultiByteToWideChar 1001e11a f   libucrt:multibytetowidechar.obj
 0001:0001d332       ___acrt_AppPolicyGetProcessTerminationMethodInternal@4 1001e332 f   libucrt:winapi_thunks.obj
 0001:0001d372       ___acrt_AreFileApisANSI@0  1001e372 f   libucrt:winapi_thunks.obj
 0001:0001d391       ___acrt_FlsAlloc@4         1001e391 f   libucrt:winapi_thunks.obj
 0001:0001d3d0       ___acrt_FlsFree@4          1001e3d0 f   libucrt:winapi_thunks.obj
 0001:0001d40f       ___acrt_FlsGetValue@4      1001e40f f   libucrt:winapi_thunks.obj
 0001:0001d44e       ___acrt_FlsSetValue@8      1001e44e f   libucrt:winapi_thunks.obj
 0001:0001d490       ___acrt_InitializeCriticalSectionEx@12 1001e490 f   libucrt:winapi_thunks.obj
 0001:0001d4db       ___acrt_LCMapStringEx@36   1001e4db f   libucrt:winapi_thunks.obj
 0001:0001d538       ___acrt_LocaleNameToLCID@8 1001e538 f   libucrt:winapi_thunks.obj
 0001:0001d569       ___acrt_initialize_winapi_thunks 1001e569 f   libucrt:winapi_thunks.obj
 0001:0001d57d       ___acrt_uninitialize_winapi_thunks 1001e57d f   libucrt:winapi_thunks.obj
 0001:0001d5b3       __waccess_s                1001e5b3 f   libucrt:waccess.obj
 0001:0001d671       ___acrt_initialize_locks   1001e671 f   libucrt:locks.obj
 0001:0001d6b2       ___acrt_lock               1001e6b2 f   libucrt:locks.obj
 0001:0001d6c9       ___acrt_uninitialize_locks 1001e6c9 f   libucrt:locks.obj
 0001:0001d6fa       ___acrt_unlock             1001e6fa f   libucrt:locks.obj
 0001:0001d711       ___acrt_get_process_end_policy 1001e711 f   libucrt:win_policies.obj
 0001:0001d75a       ??$__acrt_convert_wcs_mbs_cp@_WDV<lambda_28bda7af82a03b66c1cb3803a755f95d>@@U__crt_win32_buffer_internal_dynamic_resizing@@@@YAHQB_WAAV?$__crt_win32_buffer@DU__crt_win32_buffer_internal_dynamic_resizing@@@@ABV<lambda_28bda7af82a03b66c1cb3803a755f95d>@@I@Z 1001e75a f i libucrt:argv_wildcards.obj
 0001:0001dcfc       ??R<lambda_0fec1a7b3f42a53036604e18c2d5e07e>@@QBEHIQB_WQADI@Z 1001ecfc f i libucrt:getmodulefilenamea.obj
 0001:0001dcfc       ??R<lambda_28bda7af82a03b66c1cb3803a755f95d>@@QBEHIQB_WQADI@Z 1001ecfc f i libucrt:argv_wildcards.obj
 0001:0001dd20       ?allocate@?$__crt_win32_buffer@DU__crt_win32_buffer_internal_dynamic_resizing@@@@QAEHI@Z 1001ed20 f i libucrt:argv_wildcards.obj
 0001:0001dde3       ___acrt_expand_narrow_argv_wildcards 1001ede3 f   libucrt:argv_wildcards.obj
 0001:0001ddee       ??$__acrt_convert_wcs_mbs_cp@_WDV<lambda_0fec1a7b3f42a53036604e18c2d5e07e>@@U__crt_win32_buffer_no_resizing@@@@YAHQB_WAAV?$__crt_win32_buffer@DU__crt_win32_buffer_no_resizing@@@@ABV<lambda_0fec1a7b3f42a53036604e18c2d5e07e>@@I@Z 1001edee f i libucrt:getmodulefilenamea.obj
 0001:0001deb0       ?allocate@?$__crt_win32_buffer@DU__crt_win32_buffer_no_resizing@@@@QAEHI@Z 1001eeb0 f i libucrt:getmodulefilenamea.obj
 0001:0001ded7       ?set_to_nullptr@?$__crt_win32_buffer@DU__crt_win32_buffer_no_resizing@@@@QAEXXZ 1001eed7 f i libucrt:getmodulefilenamea.obj
 0001:0001deeb       ___acrt_GetModuleFileNameA 1001eeeb f   libucrt:getmodulefilenamea.obj
 0001:0001e50f       ___acrt_initialize_multibyte 1001f50f f   libucrt:mbctype.obj
 0001:0001e557       ___acrt_update_thread_multibyte_data 1001f557 f   libucrt:mbctype.obj
 0001:0001e56a       __setmbcp_nolock           1001f56a f   libucrt:mbctype.obj
 0001:0001e7c2       __ismbblead                1001f7c2 f   libucrt:ismbbyte.obj
 0001:0001e7da       ___acrt_initialize_command_line 1001f7da f   libucrt:argv_data.obj
 0001:0001e7f3       ___acrt_WideCharToMultiByte 1001f7f3 f   libucrt:widechartomultibyte.obj
 0001:0001e8e1       ___dcrt_get_narrow_environment_from_os 1001f8e1 f   libucrt:get_environment_from_os.obj
 0001:0001e981       __recalloc_base            1001f981 f   libucrt:recalloc.obj
 0001:0001e9ee       ___acrt_initialize_heap    1001f9ee f   libucrt:heap_handle.obj
 0001:0001e9ff       ___acrt_uninitialize_heap  1001f9ff f   libucrt:heap_handle.obj
 0001:0001ea09       ___acrt_execute_initializers 1001fa09 f   libucrt:shared_initialization.obj
 0001:0001ea71       ___acrt_execute_uninitializers 1001fa71 f   libucrt:shared_initialization.obj
 0001:0001eb70       ___acrt_get_sigabrt_handler 1001fb70 f   libucrt:signal.obj
 0001:0001eb97       ___acrt_initialize_signal_handlers 1001fb97 f   libucrt:signal.obj
 0001:0001ebb5       _raise                     1001fbb5 f   libucrt:signal.obj
 0001:0001eda8       ___acrt_has_user_matherr   1001fda8 f   libucrt:matherr.obj
 0001:0001edc0       ___acrt_initialize_user_matherr 1001fdc0 f   libucrt:matherr.obj
 0001:0001edcf       ___acrt_invoke_user_matherr 1001fdcf f   libucrt:matherr.obj
 0001:0001ee01       __query_new_mode           1001fe01 f   libucrt:new_mode.obj
 0001:0001ee08       ___acrt_add_locale_ref     1001fe08 f   libucrt:locale_refcounting.obj
 0001:0001ee85       ___acrt_free_locale        1001fe85 f   libucrt:locale_refcounting.obj
 0001:0001efcd       ___acrt_locale_add_lc_time_reference 1001ffcd f   libucrt:locale_refcounting.obj
 0001:0001eff6       ___acrt_locale_free_lc_time_if_unreferenced 1001fff6 f   libucrt:locale_refcounting.obj
 0001:0001f027       ___acrt_locale_release_lc_time_reference 10020027 f   libucrt:locale_refcounting.obj
 0001:0001f050       ___acrt_release_locale_ref 10020050 f   libucrt:locale_refcounting.obj
 0001:0001f0d1       ___acrt_update_thread_locale_data 100200d1 f   libucrt:locale_refcounting.obj
 0001:0001f152       __updatetlocinfoEx_nolock  10020152 f   libucrt:locale_refcounting.obj
 0001:0001f220       ___acrt_fp_strflt_to_string 10020220 f   libucrt:_fptostr.obj
 0001:0001f31a       ___acrt_fltout             1002031a f   libucrt:cfout.obj
 0001:00020853       ?__c32rtomb_utf8@__crt_mbstring@@YAIPAD_UPAU_Mbstatet@@AAV__crt_cached_ptd_host@@@Z 10021853 f   libucrt:c32rtomb.obj
 0001:0002092f       ?__mbrtowc_utf8@__crt_mbstring@@YAIPA_WPBDIPAU_Mbstatet@@AAV__crt_cached_ptd_host@@@Z 1002192f f   libucrt:mbrtowc.obj
 0001:00020972       ?__mbsrtowcs_utf8@__crt_mbstring@@YAIPA_WPAPBDIPAU_Mbstatet@@AAV__crt_cached_ptd_host@@@Z 10021972 f   libucrt:mbrtowc.obj
 0001:00020a7a       __fcloseall                10021a7a f   libucrt:closeall.obj
 0001:00020d72       ___acrt_stdio_flush_and_write_narrow_nolock 10021d72 f   libucrt:_flsbuf.obj
 0001:00020d7d       __isatty                   10021d7d f   libucrt:isatty.obj
 0001:00020dd3       ___acrt_locale_free_monetary 10021dd3 f   libucrt:initmon.obj
 0001:00020ed1       ___acrt_locale_free_numeric 10021ed1 f   libucrt:initnum.obj
 0001:00020f5f       ___acrt_locale_free_time   10021f5f f   libucrt:inittime.obj
 0001:00021043       ___acrt_GetStringTypeA     10022043 f   libucrt:getstringtypea.obj
 0001:0002114c       __freea_crt                1002214c f i libucrt:getstringtypea.obj
 0001:0002116c       ___acrt_lowio_create_handle_array 1002216c f   libucrt:osfinfo.obj
 0001:000211e7       ___acrt_lowio_destroy_handle_array 100221e7 f   libucrt:osfinfo.obj
 0001:0002121c       ___acrt_lowio_ensure_fh_exists 1002221c f   libucrt:osfinfo.obj
 0001:000212ba       ___acrt_lowio_lock_fh      100222ba f   libucrt:osfinfo.obj
 0001:000212dd       ___acrt_lowio_set_os_handle 100222dd f   libucrt:osfinfo.obj
 0001:0002136f       ___acrt_lowio_unlock_fh    1002236f f   libucrt:osfinfo.obj
 0001:00021392       __alloc_osfhnd             10022392 f   libucrt:osfinfo.obj
 0001:000214a5       __free_osfhnd              100224a5 f   libucrt:osfinfo.obj
 0001:00021536       __get_osfhandle            10022536 f   libucrt:osfinfo.obj
 0001:00021642       __commit                   10022642 f   libucrt:commit.obj
 0001:00021e6d       __write                    10022e6d f   libucrt:write.obj
 0001:00021ea4       __write_internal           10022ea4 f   libucrt:write.obj
 0001:00021fac       __write_nolock             10022fac f   libucrt:write.obj
 0001:000221ac       ___ascii_wcsnicmp          100231ac f   libucrt:wcsnicmp.obj
 0001:000221fb       __strnicmp                 100231fb f   libucrt:strnicmp.obj
 0001:00022268       __strnicmp_l               10023268 f   libucrt:strnicmp.obj
 0001:000228fb       __sopen_nolock             100238fb f   libucrt:open.obj
 0001:00022969       __sopen_s                  10023969 f   libucrt:open.obj
 0001:00022989       __wsopen_nolock            10023989 f   libucrt:open.obj
 0001:00022cb3       ___acrt_stdio_allocate_buffer_nolock 10023cb3 f   libucrt:_getbuf.obj
 0001:00022fd8       ___acrt_fenv_get_common_round_control 10023fd8 f   libucrt:_fenvutils.obj
 0001:00022ffa       ___acrt_fenv_get_control   10023ffa f   libucrt:_fenvutils.obj
 0001:0002307a       ___acrt_fenv_get_status    1002407a f   libucrt:_fenvutils.obj
 0001:00023124       ___acrt_fenv_set_control   10024124 f   libucrt:_fenvutils.obj
 0001:0002319f       ___acrt_fenv_set_status    1002419f f   libucrt:_fenvutils.obj
 0001:000232e9       ___acrt_DownlevelLocaleNameToLCID 100242e9 f   libucrt:lcidtoname_downlevel.obj
 0001:00023320       _qsort                     10024320 f   libucrt:qsort.obj
 0001:000238c5       _strncpy_s                 100248c5 f   libucrt:strncpy_s.obj
 0001:000238d0       _strpbrk                   100248d0 f   libucrt:strpbrk.obj
 0001:00023910       __mbsdec                   10024910 f   libucrt:mbsdec.obj
 0001:00023927       __mbsdec_l                 10024927 f   libucrt:mbsdec.obj
 0001:00023ba2       ___acrt_LCMapStringA       10024ba2 f   libucrt:lcmapstringa.obj
 0001:00023bfa       __msize_base               10024bfa f   libucrt:msize.obj
 0001:00023c2d       __realloc_base             10024c2d f   libucrt:realloc_base.obj
 0001:00023c96       __controlfp_s              10024c96 f   libucrt:contrlfp.obj
 0001:00023cf5       _fegetenv                  10024cf5 f   libucrt:fegetenv.obj
 0001:00023d12       _fesetenv                  10024d12 f   libucrt:fesetenv.obj
 0001:00023d5d       _feholdexcept              10024d5d f   libucrt:feholdexcept.obj
 0001:00023db0       __CIlog10                  10024db0 f   libucrt:log10_impl.obj
 0001:00023deb       __CIlog10_default          10024deb f   libucrt:log10_impl.obj
 0001:00023dff       __log10_default            10024dff     libucrt:log10_impl.obj
 0001:00023ec0       _ceil                      10024ec0 f   libucrt:ceil_pentium4.obj
 0001:00023f00       __ceil_pentium4            10024f00 f   libucrt:ceil_pentium4.obj
 0001:00023fdd       ?reset_and_return@__crt_mbstring@@YAIIPAU_Mbstatet@@@Z 10024fdd f   libucrt:common_utf8.obj
 0001:00023ff1       ?return_illegal_sequence@__crt_mbstring@@YAIPAU_Mbstatet@@AAV__crt_cached_ptd_host@@@Z 10024ff1 f   libucrt:common_utf8.obj
 0001:00024013       ?__mbrtoc32_utf8@__crt_mbstring@@YAIPA_UPBDIPAU_Mbstatet@@AAV__crt_cached_ptd_host@@@Z 10025013 f   libucrt:mbrtoc32.obj
 0001:000241d1       __query_app_type           100251d1 f   libucrt:report_runtime_error.obj
 0001:000241d7       __putwch_nolock            100251d7 f   libucrt:putwch.obj
 0001:00024210       ___ascii_strnicmp          10025210 f   libucrt:_strnicm.obj
 0001:00024271       __get_fmode                10025271 f   libucrt:setmode.obj
 0001:0002429e       __setmode_nolock           1002529e f   libucrt:setmode.obj
 0001:0002436d       ??0__crt_seek_guard@@QAE@H_J@Z 1002536d f i libucrt:chsize.obj
 0001:000243ba       __chsize_nolock            100253ba f   libucrt:chsize.obj
 0001:000243f1       __chsize_nolock_internal   100253f1 f   libucrt:chsize.obj
 0001:00024594       ___strncnt                 10025594 f   libucrt:strncnt.obj
 0001:00024657       __clearfp                  10025657 f   libucrt:ieee87.obj
 0001:00024735       __control87                10025735 f   libucrt:ieee87.obj
 0001:00024ad4       ___acrt_initialize_sse2    10025ad4 f   libucrt:mathfcns.obj
 0001:00024af0       __CIlog10_pentium4         10025af0 f   libucrt:log10_pentium4.obj
 0001:00024b08       __log10_pentium4           10025b08     libucrt:log10_pentium4.obj
 0001:00024da0       __fFEXP                    10025da0 f   libucrt:87tran.obj
 0001:00024df7       __rtinfpopse               10025df7     libucrt:87tran.obj
 0001:00024df9       __rtinfnpopse              10025df9     libucrt:87tran.obj
 0001:00024e09       __fFLN                     10025e09     libucrt:87tran.obj
 0001:00024ebe       __rtinfpop                 10025ebe     libucrt:87tran.obj
 0001:00024ec0       __rtinfnpop                10025ec0     libucrt:87tran.obj
 0001:00024ed0       __rtforexpinf              10025ed0 f   libucrt:87tran.obj
 0001:00024edd       __ffexpm1                  10025edd     libucrt:87tran.obj
 0001:00024f90       __trandisp1                10025f90 f   libucrt:87disp.obj
 0001:00025005       __trandisp2                10026005 f   libucrt:87disp.obj
 0001:0002509f       __rttospopde               1002609f     libucrt:87disp.obj
 0001:000250a4       __rttospop                 100260a4     libucrt:87disp.obj
 0001:000250b0       __rtnospop                 100260b0 f   libucrt:87disp.obj
 0001:000250c0       __rttosnpop                100260c0 f   libucrt:87disp.obj
 0001:000250c1       __rtnospopde               100260c1     libucrt:87disp.obj
 0001:000250c8       __rtzeropop                100260c8     libucrt:87disp.obj
 0001:000250ca       __rtzeronpop               100260ca     libucrt:87disp.obj
 0001:000250d0       __rtzerospop               100260d0 f   libucrt:87disp.obj
 0001:000250dd       __rtonepop                 100260dd     libucrt:87disp.obj
 0001:000250e0       __rtonenpop                100260e0 f   libucrt:87disp.obj
 0001:000250f0       __tosnan1                  100260f0 f   libucrt:87disp.obj
 0001:00025120       __nosnan2                  10026120 f   libucrt:87disp.obj
 0001:00025130       __tosnan2                  10026130 f   libucrt:87disp.obj
 0001:00025160       __nan2                     10026160 f   libucrt:87disp.obj
 0001:000251a0       __rtindfpop                100261a0 f   libucrt:87disp.obj
 0001:000251a2       __rtindfnpop               100261a2     libucrt:87disp.obj
 0001:000251b3       __rttosnpopde              100261b3     libucrt:87disp.obj
 0001:000251c0       __rtatan2inf               100261c0 f   libucrt:87disp.obj
 0001:000251dd       __rtchsifneg               100261dd     libucrt:87disp.obj
 0001:000251f0       __twoToTOS                 100261f0 f   libucrt:common.obj
 0001:00025205       __load_CW                  10026205 f   libucrt:common.obj
 0001:0002521c       __convertTOStoQNaN         1002621c f   libucrt:common.obj
 0001:00025235       __fload_withFB             10026235 f   libucrt:common.obj
 0001:00025278       __checkTOS_withFB          10026278 f   libucrt:common.obj
 0001:0002528e       __fast_exit                1002628e f   libucrt:common.obj
 0001:0002529b       __math_exit                1002629b f   libucrt:common.obj
 0001:000252c5       __check_overflow_exit      100262c5 f   libucrt:common.obj
 0001:000252d9       __check_range_exit         100262d9 f   libucrt:common.obj
 0001:00025380       __startTwoArgErrorHandling 10026380 f   libucrt:genexcep.obj
 0001:00025397       __startOneArgErrorHandling 10026397 f   libucrt:genexcep.obj
 0001:000253d3       ___libm_error_support      100263d3 f   libucrt:libm_error.obj
 0001:000255c7       __ceil_default             100265c7 f   libucrt:ceil.obj
 0001:0002569b       ___dcrt_lowio_ensure_console_output_initialized 1002669b f   libucrt:initcon.obj
 0001:000256ba       ___dcrt_terminate_console_output 100266ba f   libucrt:initcon.obj
 0001:000256d1       ___dcrt_write_console      100266d1 f   libucrt:initcon.obj
 0001:00025726       ___acrt_initialize_fmode   10026726 f   libucrt:txtmode.obj
 0001:0002573c       ___set_fpsr_sse2           1002673c f   libucrt:fpctrl.obj
 0001:000257bc       __clrfp                    100267bc f   libucrt:fpctrl.obj
 0001:000257cd       __ctrlfp                   100267cd f   libucrt:fpctrl.obj
 0001:000257f7       __set_statfp               100267f7 f   libucrt:fpctrl.obj
 0001:00025850       __statfp                   10026850 f   libucrt:fpctrl.obj
 0001:00025860       __d_inttype                10026860 f   libucrt:powhlp.obj
 0001:000258c8       __powhlp                   100268c8 f   libucrt:powhlp.obj
 0001:000259f3       __87except                 100269f3 f   libucrt:87except.obj
 0001:00025afd       __frnd                     10026afd f   libucrt:frnd.obj
 0001:00025b11       __errcode                  10026b11 f   libucrt:fpexcept.obj
 0001:00025b45       __except1                  10026b45 f   libucrt:fpexcept.obj
 0001:00025c13       __handle_exc               10026c13 f   libucrt:fpexcept.obj
 0001:00025e8c       __raise_exc                10026e8c f   libucrt:fpexcept.obj
 0001:00025eaf       __raise_exc_ex             10026eaf f   libucrt:fpexcept.obj
 0001:000261a5       __set_errno_from_matherr   100271a5 f   libucrt:fpexcept.obj
 0001:000261d4       __umatherr                 100271d4 f   libucrt:fpexcept.obj
 0001:00026274       __decomp                   10027274 f   libucrt:util.obj
 0001:00026346       __set_exp                  10027346 f   libucrt:util.obj
 0001:00026373       __sptype                   10027373 f   libucrt:util.obj
 0001:000263d1       __fpclass                  100273d1 f   libucrt:ieeemisc.obj
 0001:00026475       @_guard_check_icall@4      10027475 f i LIBCMT:checkcfg.obj
 0001:00026480       __FindPESection            10027480 f   LIBCMT:pesect.obj
 0001:000264d0       __IsNonwritableInCurrentImage 100274d0 f   LIBCMT:pesect.obj
 0001:00026590       __ValidateImageBase        10027590 f   LIBCMT:pesect.obj
 0001:000265c1       __EH_epilog3               100275c1 f   LIBCMT:ehprolg3.obj
 0001:000265d5       __EH_prolog3               100275d5 f   LIBCMT:ehprolg3.obj
 0001:00026608       __EH_prolog3_catch         10027608 f   LIBCMT:ehprolg3.obj
 0001:00026640       __aulldvrm                 10027640 f   LIBCMT:ulldvrm.obj
 0001:000266e0       __alldiv                   100276e0 f   LIBCMT:lldiv.obj
 0001:00026790       __alloca_probe             10027790 f   LIBCMT:chkstk.obj
 0001:00026790       __chkstk                   10027790 f   LIBCMT:chkstk.obj
 0001:000267c0       __allmul                   100277c0 f   LIBCMT:llmul.obj
 0001:00026800       __aulldiv                  10027800 f   LIBCMT:ulldiv.obj
 0001:00026870       __allshl                   10027870 f   LIBCMT:llshl.obj
 0001:00026890       __aullshr                  10027890 f   LIBCMT:ullshr.obj
 0001:000268b0       __alldvrm                  100278b0 f   LIBCMT:lldvrm.obj
 0001:00026990       __ftol2_sse                10027990 f   LIBCMT:ftol2.obj
 0001:000269a0       __ftoi2                    100279a0 f   LIBCMT:ftol2.obj
 0001:00026a20       __alloca_probe_16          10027a20 f   LIBCMT:alloca16.obj
 0001:00026a36       __alloca_probe_8           10027a36     LIBCMT:alloca16.obj
 0001:00026a50       _strrchr                   10027a50 f   libvcruntime:strrchr.obj
 0001:00026b87       __filter_x86_sse2_floating_point_exception 10027b87 f   LIBCMT:x86_exception_filter.obj
 0001:00026b87       __filter_x86_sse2_floating_point_exception_default 10027b87 f   LIBCMT:x86_exception_filter.obj
 0002:00000000       __imp__GetModuleHandleW@4  10028000     kernel32:KERNEL32.dll
 0002:00000004       __imp__GetProcAddress@8    10028004     kernel32:KERNEL32.dll
 0002:00000008       __imp__LoadLibraryA@4      10028008     kernel32:KERNEL32.dll
 0002:0000000c       __imp__FindClose@4         1002800c     kernel32:KERNEL32.dll
 0002:00000010       __imp__FindFirstFileA@8    10028010     kernel32:KERNEL32.dll
 0002:00000014       __imp__FindNextFileA@8     10028014     kernel32:KERNEL32.dll
 0002:00000018       __imp__Sleep@4             10028018     kernel32:KERNEL32.dll
 0002:0000001c       __imp__DecodePointer@4     1002801c     kernel32:KERNEL32.dll
 0002:00000020       __imp__SetEndOfFile@4      10028020     kernel32:KERNEL32.dll
 0002:00000024       __imp__UnhandledExceptionFilter@4 10028024     kernel32:KERNEL32.dll
 0002:00000028       __imp__SetUnhandledExceptionFilter@4 10028028     kernel32:KERNEL32.dll
 0002:0000002c       __imp__GetCurrentProcess@0 1002802c     kernel32:KERNEL32.dll
 0002:00000030       __imp__TerminateProcess@8  10028030     kernel32:KERNEL32.dll
 0002:00000034       __imp__IsProcessorFeaturePresent@4 10028034     kernel32:KERNEL32.dll
 0002:00000038       __imp__QueryPerformanceCounter@4 10028038     kernel32:KERNEL32.dll
 0002:0000003c       __imp__GetCurrentProcessId@0 1002803c     kernel32:KERNEL32.dll
 0002:00000040       __imp__GetCurrentThreadId@0 10028040     kernel32:KERNEL32.dll
 0002:00000044       __imp__GetSystemTimeAsFileTime@4 10028044     kernel32:KERNEL32.dll
 0002:00000048       __imp__InitializeSListHead@4 10028048     kernel32:KERNEL32.dll
 0002:0000004c       __imp__IsDebuggerPresent@0 1002804c     kernel32:KERNEL32.dll
 0002:00000050       __imp__GetStartupInfoW@4   10028050     kernel32:KERNEL32.dll
 0002:00000054       __imp__RaiseException@16   10028054     kernel32:KERNEL32.dll
 0002:00000058       __imp__RtlUnwind@16        10028058     kernel32:KERNEL32.dll
 0002:0000005c       __imp__InterlockedFlushSList@4 1002805c     kernel32:KERNEL32.dll
 0002:00000060       __imp__GetLastError@0      10028060     kernel32:KERNEL32.dll
 0002:00000064       __imp__SetLastError@4      10028064     kernel32:KERNEL32.dll
 0002:00000068       __imp__EncodePointer@4     10028068     kernel32:KERNEL32.dll
 0002:0000006c       __imp__EnterCriticalSection@4 1002806c     kernel32:KERNEL32.dll
 0002:00000070       __imp__LeaveCriticalSection@4 10028070     kernel32:KERNEL32.dll
 0002:00000074       __imp__DeleteCriticalSection@4 10028074     kernel32:KERNEL32.dll
 0002:00000078       __imp__InitializeCriticalSectionAndSpinCount@8 10028078     kernel32:KERNEL32.dll
 0002:0000007c       __imp__TlsAlloc@0          1002807c     kernel32:KERNEL32.dll
 0002:00000080       __imp__TlsGetValue@4       10028080     kernel32:KERNEL32.dll
 0002:00000084       __imp__TlsSetValue@8       10028084     kernel32:KERNEL32.dll
 0002:00000088       __imp__TlsFree@4           10028088     kernel32:KERNEL32.dll
 0002:0000008c       __imp__FreeLibrary@4       1002808c     kernel32:KERNEL32.dll
 0002:00000090       __imp__LoadLibraryExW@12   10028090     kernel32:KERNEL32.dll
 0002:00000094       __imp__ReadFile@20         10028094     kernel32:KERNEL32.dll
 0002:00000098       __imp__ExitProcess@4       10028098     kernel32:KERNEL32.dll
 0002:0000009c       __imp__GetModuleHandleExW@12 1002809c     kernel32:KERNEL32.dll
 0002:000000a0       __imp__GetModuleFileNameW@12 100280a0     kernel32:KERNEL32.dll
 0002:000000a4       __imp__HeapFree@12         100280a4     kernel32:KERNEL32.dll
 0002:000000a8       __imp__HeapAlloc@12        100280a8     kernel32:KERNEL32.dll
 0002:000000ac       __imp__GetStdHandle@4      100280ac     kernel32:KERNEL32.dll
 0002:000000b0       __imp__GetFileType@4       100280b0     kernel32:KERNEL32.dll
 0002:000000b4       __imp__CloseHandle@4       100280b4     kernel32:KERNEL32.dll
 0002:000000b8       __imp__GetConsoleMode@8    100280b8     kernel32:KERNEL32.dll
 0002:000000bc       __imp__ReadConsoleW@20     100280bc     kernel32:KERNEL32.dll
 0002:000000c0       __imp__SetFilePointerEx@20 100280c0     kernel32:KERNEL32.dll
 0002:000000c4       __imp__MultiByteToWideChar@24 100280c4     kernel32:KERNEL32.dll
 0002:000000c8       __imp__LCMapStringW@24     100280c8     kernel32:KERNEL32.dll
 0002:000000cc       __imp__GetFileAttributesExW@12 100280cc     kernel32:KERNEL32.dll
 0002:000000d0       __imp__FindFirstFileExW@24 100280d0     kernel32:KERNEL32.dll
 0002:000000d4       __imp__FindNextFileW@8     100280d4     kernel32:KERNEL32.dll
 0002:000000d8       __imp__IsValidCodePage@4   100280d8     kernel32:KERNEL32.dll
 0002:000000dc       __imp__GetACP@0            100280dc     kernel32:KERNEL32.dll
 0002:000000e0       __imp__GetOEMCP@0          100280e0     kernel32:KERNEL32.dll
 0002:000000e4       __imp__GetCPInfo@8         100280e4     kernel32:KERNEL32.dll
 0002:000000e8       __imp__GetCommandLineA@0   100280e8     kernel32:KERNEL32.dll
 0002:000000ec       __imp__GetCommandLineW@0   100280ec     kernel32:KERNEL32.dll
 0002:000000f0       __imp__WideCharToMultiByte@32 100280f0     kernel32:KERNEL32.dll
 0002:000000f4       __imp__GetEnvironmentStringsW@0 100280f4     kernel32:KERNEL32.dll
 0002:000000f8       __imp__FreeEnvironmentStringsW@4 100280f8     kernel32:KERNEL32.dll
 0002:000000fc       __imp__GetProcessHeap@0    100280fc     kernel32:KERNEL32.dll
 0002:00000100       __imp__GetFileSizeEx@8     10028100     kernel32:KERNEL32.dll
 0002:00000104       __imp__GetStringTypeW@16   10028104     kernel32:KERNEL32.dll
 0002:00000108       __imp__SetStdHandle@8      10028108     kernel32:KERNEL32.dll
 0002:0000010c       __imp__FlushFileBuffers@4  1002810c     kernel32:KERNEL32.dll
 0002:00000110       __imp__WriteFile@20        10028110     kernel32:KERNEL32.dll
 0002:00000114       __imp__GetConsoleOutputCP@0 10028114     kernel32:KERNEL32.dll
 0002:00000118       __imp__CreateFileW@28      10028118     kernel32:KERNEL32.dll
 0002:0000011c       __imp__HeapSize@12         1002811c     kernel32:KERNEL32.dll
 0002:00000120       __imp__HeapReAlloc@16      10028120     kernel32:KERNEL32.dll
 0002:00000124       __imp__WriteConsoleW@20    10028124     kernel32:KERNEL32.dll
 0002:00000128       \177KERNEL32_NULL_THUNK_DATA 10028128     kernel32:KERNEL32.dll
 0002:0000012c       __imp__MessageBoxA@16      1002812c     user32:USER32.dll
 0002:00000130       \177USER32_NULL_THUNK_DATA 10028130     user32:USER32.dll
 0002:00000134       ___guard_check_icall_fptr  10028134     LIBCMT:guard_support.obj
 0002:00000138       ___castguard_check_failure_os_handled_fptr 10028138     LIBCMT:guard_support.obj
 0002:0000013c       ___xc_a                    1002813c     LIBCMT:initializers.obj
 0002:00000144       ___xc_z                    10028144     LIBCMT:initializers.obj
 0002:00000148       ___xi_a                    10028148     LIBCMT:initializers.obj
 0002:0000014c       ___acrt_stdio_initializer  1002814c     libucrt:stdio_initializer.obj
 0002:00000150       ___acrt_multibyte_initializer 10028150     libucrt:multibyte_initializer.obj
 0002:00000154       ___acrt_tran_sse2_initializer 10028154     libucrt:sse2_initializer.obj
 0002:00000158       ___acrt_fmode_initializer  10028158     libucrt:fmode_initializer.obj
 0002:0000015c       ___xi_z                    1002815c     LIBCMT:initializers.obj
 0002:00000160       ___xp_a                    10028160     LIBCMT:initializers.obj
 0002:00000164       ___acrt_locale_terminator  10028164     libucrt:locale_initializer.obj
 0002:00000168       ___dcrt_console_output_terminator 10028168     libucrt:console_output_initializer.obj
 0002:0000016c       ___acrt_stdio_terminator   1002816c     libucrt:stdio_initializer.obj
 0002:00000170       ___xp_z                    10028170     LIBCMT:initializers.obj
 0002:00000174       ___xt_a                    10028174     LIBCMT:initializers.obj
 0002:00000178       ___xt_z                    10028178     LIBCMT:initializers.obj
 0002:00000f2c       ??_7exception@std@@6B@     10028f2c     dllmain.obj
 0002:00000f34       ??_C@_0BC@EOODALEL@Unknown?5exception@ 10028f34     dllmain.obj
 0002:00000f48       ??_C@_0BA@FDLNIKIG@patcher_x86?4dll@ 10028f48     dllmain.obj
 0002:00000f58       ??_C@_0BB@CKHJKIEB@_GetPatcherX86?$EA0@ 10028f58     dllmain.obj
 0002:000021b4       __real@00000000            1002a1b4     tables.obj
 0002:000021b8       __real@3e4ccccd            1002a1b8     tables.obj
 0002:000021bc       __real@3f800000            1002a1bc     tables.obj
 0002:000021c0       __real@3f847ae147ae147b    1002a1c0     tables.obj
 0002:000021c8       __real@3ff0000000000000    1002a1c8     tables.obj
 0002:000021d0       __real@3ff028f5c28f5c29    1002a1d0     tables.obj
 0002:000021dc       ??_7type_info@@6B@         1002a1dc     LIBCMT:std_type_info_static.obj
 0002:000021e8       __pDefaultRawDllMain       1002a1e8     LIBCMT:dll_dllmain.obj
 0002:000021e8       __pRawDllMain              1002a1e8     LIBCMT:dll_dllmain.obj
 0002:000021ec       __pDestructExceptionObject 1002a1ec     libvcruntime:ehhelpers.obj
 0002:000021f4       ??_7bad_exception@std@@6B@ 1002a1f4     libvcruntime:frame.obj
 0002:000021fc       ??_C@_0O@DPKOEFFH@bad?5exception@ 1002a1fc     libvcruntime:frame.obj
 0002:00002598       ??_C@_08EHJDFFNH@__based?$CI@ 1002a598     libvcruntime:undname.obj
 0002:000025a4       ??_C@_07KOLFKCDI@__cdecl@  1002a5a4     libvcruntime:undname.obj
 0002:000025ac       ??_C@_08GHMPAG@__pascal@   1002a5ac     libvcruntime:undname.obj
 0002:000025b8       ??_C@_09IFJBGAPI@__stdcall@ 1002a5b8     libvcruntime:undname.obj
 0002:000025c4       ??_C@_0L@NPHFGOKO@__thiscall@ 1002a5c4     libvcruntime:undname.obj
 0002:000025d0       ??_C@_0L@JMKHOMEK@__fastcall@ 1002a5d0     libvcruntime:undname.obj
 0002:000025dc       ??_C@_0N@BCKKPABJ@__vectorcall@ 1002a5dc     libvcruntime:undname.obj
 0002:000025ec       ??_C@_09HIJEGCPM@__clrcall@ 1002a5ec     libvcruntime:undname.obj
 0002:000025f8       ??_C@_06GHPCKEAG@__eabi@   1002a5f8     libvcruntime:undname.obj
 0002:00002600       ??_C@_09IOPIDJLG@__swift_1@ 1002a600     libvcruntime:undname.obj
 0002:0000260c       ??_C@_09KFNFGKHF@__swift_2@ 1002a60c     libvcruntime:undname.obj
 0002:00002618       ??_C@_09LMMOFLDE@__swift_3@ 1002a618     libvcruntime:undname.obj
 0002:00002624       ??_C@_07JOMMBBKO@__ptr64@  1002a624     libvcruntime:undname.obj
 0002:0000262c       ??_C@_0L@PILCLIHE@__restrict@ 1002a62c     libvcruntime:undname.obj
 0002:00002638       ??_C@_0M@GFIIJFMG@__unaligned@ 1002a638     libvcruntime:undname.obj
 0002:00002644       ??_C@_09DHDLOLLB@restrict?$CI@ 1002a644     libvcruntime:undname.obj
 0002:0000264e       ??_C@_00CNPNBAHC@@         1002a64e     libvcruntime:undname.obj
 0002:00002650       ??_C@_04NIHEBCM@?5new@     1002a650     libvcruntime:undname.obj
 0002:00002658       ??_C@_07FPCDHGMM@?5delete@ 1002a658     libvcruntime:undname.obj
 0002:00002660       ??_C@_01NEMOKFLO@?$DN@     1002a660     libvcruntime:undname.obj
 0002:00002664       ??_C@_02GPIOPFAK@?$DO?$DO@ 1002a664     libvcruntime:undname.obj
 0002:00002668       ??_C@_02FODMEDOG@?$DM?$DM@ 1002a668     libvcruntime:undname.obj
 0002:0000266c       ??_C@_01DCLJPIOD@?$CB@     1002a66c     libvcruntime:undname.obj
 0002:00002670       ??_C@_02EGOFBIJA@?$DN?$DN@ 1002a670     libvcruntime:undname.obj
 0002:00002674       ??_C@_02FDNJECIE@?$CB?$DN@ 1002a674     libvcruntime:undname.obj
 0002:00002678       ??_C@_02GPECMEKF@?$FL?$FN@ 1002a678     libvcruntime:undname.obj
 0002:0000267c       ??_C@_08LHJFAFGD@operator@ 1002a67c     libvcruntime:undname.obj
 0002:00002688       ??_C@_02HBOOOICD@?9?$DO@   1002a688     libvcruntime:undname.obj
 0002:0000268c       ??_C@_01NBENCBCI@?$CK@     1002a68c     libvcruntime:undname.obj
 0002:00002690       ??_C@_02ECNGHCIF@?$CL?$CL@ 1002a690     libvcruntime:undname.obj
 0002:00002694       ??_C@_02BAABKJLB@?9?9@     1002a694     libvcruntime:undname.obj
 0002:00002698       ??_C@_01JOAMLHOP@?9@       1002a698     libvcruntime:undname.obj
 0002:0000269c       ??_C@_01MIFGBAGJ@?$CL@     1002a69c     libvcruntime:undname.obj
 0002:000026a0       ??_C@_01HNPIGOCE@?$CG@     1002a6a0     libvcruntime:undname.obj
 0002:000026a4       ??_C@_03MNHNFDLC@?9?$DO?$CK@ 1002a6a4     libvcruntime:undname.obj
 0002:000026a8       ??_C@_01KMDKNFGN@?1@       1002a6a8     libvcruntime:undname.obj
 0002:000026ac       ??_C@_01FGNFDNOH@?$CF@     1002a6ac     libvcruntime:undname.obj
 0002:000026b0       ??_C@_01MNNFJEPP@?$DM@     1002a6b0     libvcruntime:undname.obj
 0002:000026b4       ??_C@_02EHCHHCKH@?$DM?$DN@ 1002a6b4     libvcruntime:undname.obj
 0002:000026b8       ??_C@_01PPODPGHN@?$DO@     1002a6b8     libvcruntime:undname.obj
 0002:000026bc       ??_C@_02EEKDKGMJ@?$DO?$DN@ 1002a6bc     libvcruntime:undname.obj
 0002:000026c0       ??_C@_01IHBHIGKO@?0@       1002a6c0     libvcruntime:undname.obj
 0002:000026c4       ??_C@_02HCKGKOFO@?$CI?$CJ@ 1002a6c4     libvcruntime:undname.obj
 0002:000026c8       ??_C@_01PJKLJHI@?$HO@      1002a6c8     libvcruntime:undname.obj
 0002:000026cc       ??_C@_01JKBOJNNK@?$FO@     1002a6cc     libvcruntime:undname.obj
 0002:000026d0       ??_C@_01DNKMNLPK@?$HM@     1002a6d0     libvcruntime:undname.obj
 0002:000026d4       ??_C@_02PPKAJPJL@?$CG?$CG@ 1002a6d4     libvcruntime:undname.obj
 0002:000026d8       ??_C@_02NONPIBCD@?$HM?$HM@ 1002a6d8     libvcruntime:undname.obj
 0002:000026dc       ??_C@_02FPIMKNGF@?$CK?$DN@ 1002a6dc     libvcruntime:undname.obj
 0002:000026e0       ??_C@_02FOEOMHFC@?$CL?$DN@ 1002a6e0     libvcruntime:undname.obj
 0002:000026e4       ??_C@_02FKMDLLOA@?9?$DN@   1002a6e4     libvcruntime:undname.obj
 0002:000026e8       ??_C@_02FJEHGPIO@?1?$DN@   1002a6e8     libvcruntime:undname.obj
 0002:000026ec       ??_C@_02FENAOKFI@?$CF?$DN@ 1002a6ec     libvcruntime:undname.obj
 0002:000026f0       ??_C@_03IKFCCPFF@?$DO?$DO?$DN@ 1002a6f0     libvcruntime:undname.obj
 0002:000026f4       ??_C@_03CDNPDDLA@?$DM?$DM?$DN@ 1002a6f4     libvcruntime:undname.obj
 0002:000026f8       ??_C@_02FGJGFEAB@?$CG?$DN@ 1002a6f8     libvcruntime:undname.obj
 0002:000026fc       ??_C@_02DHLNPPGH@?$HM?$DN@ 1002a6fc     libvcruntime:undname.obj
 0002:00002700       ??_C@_02MHEGNOJ@?$FO?$DN@  1002a700     libvcruntime:undname.obj
 0002:00002704       ??_C@_09IFPLHPGF@?$GAvftable?8@ 1002a704     libvcruntime:undname.obj
 0002:00002710       ??_C@_09BLBHBJP@?$GAvbtable?8@ 1002a710     libvcruntime:undname.obj
 0002:0000271c       ??_C@_07FEEIOKP@?$GAvcall?8@ 1002a71c     libvcruntime:undname.obj
 0002:00002724       ??_C@_08LLFFHHDJ@?$GAtypeof?8@ 1002a724     libvcruntime:undname.obj
 0002:00002730       ??_C@_0BF@KDPPACIK@?$GAlocal?5static?5guard?8@ 1002a730     libvcruntime:undname.obj
 0002:00002748       ??_C@_08OBABFOLI@?$GAstring?8@ 1002a748     libvcruntime:undname.obj
 0002:00002754       ??_C@_0BD@JDLKDPAB@?$GAvbase?5destructor?8@ 1002a754     libvcruntime:undname.obj
 0002:00002768       ??_C@_0BN@DEGPLNFK@?$GAvector?5deleting?5destructor?8@ 1002a768     libvcruntime:undname.obj
 0002:00002788       ??_C@_0BO@OBMKPJIG@?$GAdefault?5constructor?5closure?8@ 1002a788     libvcruntime:undname.obj
 0002:000027a8       ??_C@_0BN@IMDCHIKM@?$GAscalar?5deleting?5destructor?8@ 1002a7a8     libvcruntime:undname.obj
 0002:000027c8       ??_C@_0BO@PFGOCPJJ@?$GAvector?5constructor?5iterator?8@ 1002a7c8     libvcruntime:undname.obj
 0002:000027e8       ??_C@_0BN@LFPFMEDL@?$GAvector?5destructor?5iterator?8@ 1002a7e8     libvcruntime:undname.obj
 0002:00002808       ??_C@_0CE@IKBNEHA@?$GAvector?5vbase?5constructor?5itera@ 1002a808     libvcruntime:undname.obj
 0002:0000282c       ??_C@_0BL@NILFHHPC@?$GAvirtual?5displacement?5map?8@ 1002a82c     libvcruntime:undname.obj
 0002:00002848       ??_C@_0CB@JONCMFFK@?$GAeh?5vector?5constructor?5iterator@ 1002a848     libvcruntime:undname.obj
 0002:0000286c       ??_C@_0CA@GCEOPDGL@?$GAeh?5vector?5destructor?5iterator?8@ 1002a86c     libvcruntime:undname.obj
 0002:0000288c       ??_C@_0CH@OOJPLCPH@?$GAeh?5vector?5vbase?5constructor?5it@ 1002a88c     libvcruntime:undname.obj
 0002:000028b4       ??_C@_0BL@LLKPOHJI@?$GAcopy?5constructor?5closure?8@ 1002a8b4     libvcruntime:undname.obj
 0002:000028d0       ??_C@_0BA@KBCDOMBN@?$GAudt?5returning?8@ 1002a8d0     libvcruntime:undname.obj
 0002:000028e0       ??_C@_03KLGMFNMG@?$GAEH@   1002a8e0     libvcruntime:undname.obj
 0002:000028e4       ??_C@_05KHLCHHI@?$GARTTI@  1002a8e4     libvcruntime:undname.obj
 0002:000028ec       ??_C@_0BA@KKLDJDLB@?$GAlocal?5vftable?8@ 1002a8ec     libvcruntime:undname.obj
 0002:000028fc       ??_C@_0CE@IIHCMGGL@?$GAlocal?5vftable?5constructor?5clos@ 1002a8fc     libvcruntime:undname.obj
 0002:00002920       ??_C@_06FHBGPFGH@?5new?$FL?$FN@ 1002a920     libvcruntime:undname.obj
 0002:00002928       ??_C@_09LBNFPBCA@?5delete?$FL?$FN@ 1002a928     libvcruntime:undname.obj
 0002:00002934       ??_C@_0P@HJKNJFNN@?$GAomni?5callsig?8@ 1002a934     libvcruntime:undname.obj
 0002:00002944       ??_C@_0BL@CNOONJFP@?$GAplacement?5delete?5closure?8@ 1002a944     libvcruntime:undname.obj
 0002:00002960       ??_C@_0BN@CKNJLHMB@?$GAplacement?5delete?$FL?$FN?5closure?8@ 1002a960     libvcruntime:undname.obj
 0002:00002980       ??_C@_0CG@CFDHKGGD@?$GAmanaged?5vector?5constructor?5ite@ 1002a980     libvcruntime:undname.obj
 0002:000029a8       ??_C@_0CF@IMGKMJNO@?$GAmanaged?5vector?5destructor?5iter@ 1002a9a8     libvcruntime:undname.obj
 0002:000029d0       ??_C@_0CG@HLDDJMAG@?$GAeh?5vector?5copy?5constructor?5ite@ 1002a9d0     libvcruntime:undname.obj
 0002:000029f8       ??_C@_0CM@FCBBDIGB@?$GAeh?5vector?5vbase?5copy?5construct@ 1002a9f8     libvcruntime:undname.obj
 0002:00002a24       ??_C@_0BL@CLIPGLGB@?$GAdynamic?5initializer?5for?5?8@ 1002aa24     libvcruntime:undname.obj
 0002:00002a40       ??_C@_0CB@PDBIFEP@?$GAdynamic?5atexit?5destructor?5for?5@ 1002aa40     libvcruntime:undname.obj
 0002:00002a64       ??_C@_0CD@CGAJBKEJ@?$GAvector?5copy?5constructor?5iterat@ 1002aa64     libvcruntime:undname.obj
 0002:00002a88       ??_C@_0CJ@GJELGAMM@?$GAvector?5vbase?5copy?5constructor?5@ 1002aa88     libvcruntime:undname.obj
 0002:00002ab4       ??_C@_0CL@FGIJHLCE@?$GAmanaged?5vector?5copy?5constructo@ 1002aab4     libvcruntime:undname.obj
 0002:00002ae0       ??_C@_0BM@PMGGMLDN@?$GAlocal?5static?5thread?5guard?8@ 1002aae0     libvcruntime:undname.obj
 0002:00002afc       ??_C@_0N@BDNMDMOL@operator?5?$CC?$CC?5@ 1002aafc     libvcruntime:undname.obj
 0002:00002b0c       ??_C@_0BC@GGEBGALA@operator?5co_await@ 1002ab0c     libvcruntime:undname.obj
 0002:00002b20       ??_C@_0M@GAAIMMOH@operator?$DM?$DN?$DO@ 1002ab20     libvcruntime:undname.obj
 0002:00002b2c       ??_C@_0BC@DAFEJGAK@?5Type?5Descriptor?8@ 1002ab2c     libvcruntime:undname.obj
 0002:00002b40       ??_C@_0BM@LDKODKLH@?5Base?5Class?5Descriptor?5at?5?$CI@ 1002ab40     libvcruntime:undname.obj
 0002:00002b5c       ??_C@_0BD@LGICGFMM@?5Base?5Class?5Array?8@ 1002ab5c     libvcruntime:undname.obj
 0002:00002b70       ??_C@_0BN@MECKDCOJ@?5Class?5Hierarchy?5Descriptor?8@ 1002ab70     libvcruntime:undname.obj
 0002:00002b90       ??_C@_0BK@CFCOFLF@?5Complete?5Object?5Locator?8@ 1002ab90     libvcruntime:undname.obj
 0002:00002bac       ??_C@_0BG@JNJLAMPM@?$GAanonymous?5namespace?8@ 1002abac     libvcruntime:undname.obj
 0002:00002bd0       ??_C@_1DM@KHCHBNEB@?$AAa?$AAp?$AAi?$AA?9?$AAm?$AAs?$AA?9?$AAw?$AAi?$AAn?$AA?9?$AAc?$AAo?$AAr?$AAe@ 1002abd0     libvcruntime:winapi_downlevel.obj
 0002:00002c0c       ??_C@_1DK@LPPGFMPP@?$AAa?$AAp?$AAi?$AA?9?$AAm?$AAs?$AA?9?$AAw?$AAi?$AAn?$AA?9?$AAc?$AAo?$AAr?$AAe@ 1002ac0c     libvcruntime:winapi_downlevel.obj
 0002:00002c48       ??_C@_1BC@GDMECMAK@?$AAk?$AAe?$AAr?$AAn?$AAe?$AAl?$AA3?$AA2@ 1002ac48     libvcruntime:winapi_downlevel.obj
 0002:00002c5c       ??_C@_1BA@PFFKHIOG@?$AAa?$AAp?$AAi?$AA?9?$AAm?$AAs?$AA?9@ 1002ac5c     libvcruntime:winapi_downlevel.obj
 0002:00002c74       ??_C@_08KNHFBNJ@FlsAlloc@  1002ac74     libvcruntime:winapi_downlevel.obj
 0002:00002c88       ??_C@_07PEJMOBNF@FlsFree@  1002ac88     libvcruntime:winapi_downlevel.obj
 0002:00002c98       ??_C@_0M@GDNOONDI@FlsGetValue@ 1002ac98     libvcruntime:winapi_downlevel.obj
 0002:00002cac       ??_C@_0M@JCPCPOEF@FlsSetValue@ 1002acac     libvcruntime:winapi_downlevel.obj
 0002:00002cc0       ??_C@_0BM@HCFOFFN@InitializeCriticalSectionEx@ 1002acc0     libvcruntime:winapi_downlevel.obj
 0002:00002ce0       ?standard_lookup_table_spectre@__crt_stdio_output@@3V?$spectre_mitigated_lookup_table@Ustate_transition_pair@__crt_stdio_output@@$0IA@@1@B 1002ace0     libucrt:output.obj
 0002:00002de0       ??_C@_1O@CEDCILHN@?$AA?$CI?$AAn?$AAu?$AAl?$AAl?$AA?$CJ@ 1002ade0     libucrt:output.obj
 0002:00002df0       ??_C@_06OJHGLDPL@?$CInull?$CJ@ 1002adf0     libucrt:output.obj
 0002:00002df8       ?large_power_data@?1??multiply_by_power_of_ten@__crt_strtox@@YA_NAAUbig_integer@2@I@Z@4QBIB 1002adf8     libucrt:input.obj
 0002:00003700       ?large_power_indices@?1??multiply_by_power_of_ten@__crt_strtox@@YA_NAAUbig_integer@2@I@Z@4QBUunpack_index@?1??12@YA_N0I@Z@B 1002b700     libucrt:input.obj
 0002:00003798       ?small_powers_of_ten@?1??multiply_by_power_of_ten@__crt_strtox@@YA_NAAUbig_integer@2@I@Z@4QBIB 1002b798     libucrt:input.obj
 0002:000037c0       ??_C@_1GE@DPGDJKLM@?$AAm?$AAi?$AAn?$AAk?$AAe?$AAr?$AAn?$AAe?$AAl?$AA?2?$AAc?$AAr?$AAt?$AAs?$AA?2@ 1002b7c0     libucrt:input.obj
 0002:00003828       ??_C@_1FM@FELNCOBF@?$AA_?$AA_?$AAc?$AAr?$AAt?$AA_?$AAs?$AAt?$AAr?$AAt?$AAo?$AAx?$AA?3?$AA?3?$AAf@ 1002b828     libucrt:input.obj
 0002:00003884       ??_C@_1BG@GEMHBGAF@?$AA_?$AAi?$AAs?$AA_?$AAd?$AAo?$AAu?$AAb?$AAl?$AAe@ 1002b884     libucrt:input.obj
 0002:000038a0       ??_C@_1FK@JOJELFFO@?$AA_?$AA_?$AAc?$AAr?$AAt?$AA_?$AAs?$AAt?$AAr?$AAt?$AAo?$AAx?$AA?3?$AA?3?$AAf@ 1002b8a0     libucrt:input.obj
 0002:000038fc       ??_C@_1BI@BANMPGJI@?$AA?$CB?$AA_?$AAi?$AAs?$AA_?$AAd?$AAo?$AAu?$AAb?$AAl?$AAe@ 1002b8fc     libucrt:input.obj
 0002:00003918       ?constraints@?1??is_length_valid@__crt_stdio_input@@YA_NW4conversion_mode@2@W4length_modifier@2@@Z@4QAY0M@$$CBEA 1002b918     libucrt:input.obj
 0002:00003990       ?inf_uppercase@?1???$parse_floating_point_possible_infinity@DV?$input_adapter_character_source@V?$stream_input_adapter@D@__crt_stdio_input@@@__crt_strtox@@_K@__crt_strtox@@YA?AW4floating_point_parse_result@1@AADAAV?$input_adapter_character_source@V?$stream_input_adapter@D@__crt_stdio_input@@@1@_K@Z@4QBDB 1002b990     libucrt:input.obj
 0002:00003994       ?inf_lowercase@?1???$parse_floating_point_possible_infinity@DV?$input_adapter_character_source@V?$stream_input_adapter@D@__crt_stdio_input@@@__crt_strtox@@_K@__crt_strtox@@YA?AW4floating_point_parse_result@1@AADAAV?$input_adapter_character_source@V?$stream_input_adapter@D@__crt_stdio_input@@@1@_K@Z@4QBDB 1002b994     libucrt:input.obj
 0002:00003998       ?inity_uppercase@?1???$parse_floating_point_possible_infinity@DV?$input_adapter_character_source@V?$stream_input_adapter@D@__crt_stdio_input@@@__crt_strtox@@_K@__crt_strtox@@YA?AW4floating_point_parse_result@1@AADAAV?$input_adapter_character_source@V?$stream_input_adapter@D@__crt_stdio_input@@@1@_K@Z@4QBDB 1002b998     libucrt:input.obj
 0002:000039a0       ?inity_lowercase@?1???$parse_floating_point_possible_infinity@DV?$input_adapter_character_source@V?$stream_input_adapter@D@__crt_stdio_input@@@__crt_strtox@@_K@__crt_strtox@@YA?AW4floating_point_parse_result@1@AADAAV?$input_adapter_character_source@V?$stream_input_adapter@D@__crt_stdio_input@@@1@_K@Z@4QBDB 1002b9a0     libucrt:input.obj
 0002:000039a8       ?uppercase@?1???$parse_floating_point_possible_nan@DV?$input_adapter_character_source@V?$stream_input_adapter@D@__crt_stdio_input@@@__crt_strtox@@_K@__crt_strtox@@YA?AW4floating_point_parse_result@1@AADAAV?$input_adapter_character_source@V?$stream_input_adapter@D@__crt_stdio_input@@@1@_K@Z@4QBDB 1002b9a8     libucrt:input.obj
 0002:000039ac       ?lowercase@?1???$parse_floating_point_possible_nan@DV?$input_adapter_character_source@V?$stream_input_adapter@D@__crt_stdio_input@@@__crt_strtox@@_K@__crt_strtox@@YA?AW4floating_point_parse_result@1@AADAAV?$input_adapter_character_source@V?$stream_input_adapter@D@__crt_stdio_input@@@1@_K@Z@4QBDB 1002b9ac     libucrt:input.obj
 0002:000039b0       ?uppercase@?1???$parse_floating_point_possible_nan_is_snan@DV?$input_adapter_character_source@V?$stream_input_adapter@D@__crt_stdio_input@@@__crt_strtox@@@__crt_strtox@@YA_NAADAAV?$input_adapter_character_source@V?$stream_input_adapter@D@__crt_stdio_input@@@1@@Z@4QBDB 1002b9b0     libucrt:input.obj
 0002:000039b8       ?lowercase@?1???$parse_floating_point_possible_nan_is_snan@DV?$input_adapter_character_source@V?$stream_input_adapter@D@__crt_stdio_input@@@__crt_strtox@@@__crt_strtox@@YA_NAADAAV?$input_adapter_character_source@V?$stream_input_adapter@D@__crt_stdio_input@@@1@@Z@4QBDB 1002b9b8     libucrt:input.obj
 0002:000039c0       ?uppercase@?1???$parse_floating_point_possible_nan_is_ind@DV?$input_adapter_character_source@V?$stream_input_adapter@D@__crt_stdio_input@@@__crt_strtox@@@__crt_strtox@@YA_NAADAAV?$input_adapter_character_source@V?$stream_input_adapter@D@__crt_stdio_input@@@1@@Z@4QBDB 1002b9c0     libucrt:input.obj
 0002:000039c4       ?lowercase@?1???$parse_floating_point_possible_nan_is_ind@DV?$input_adapter_character_source@V?$stream_input_adapter@D@__crt_stdio_input@@@__crt_strtox@@@__crt_strtox@@YA_NAADAAV?$input_adapter_character_source@V?$stream_input_adapter@D@__crt_stdio_input@@@1@@Z@4QBDB 1002b9c4     libucrt:input.obj
 0002:000039c8       ?inf_uppercase@?1???$parse_floating_point_possible_infinity@DV?$c_string_character_source@D@__crt_strtox@@PBD@__crt_strtox@@YA?AW4floating_point_parse_result@1@AADAAV?$c_string_character_source@D@1@PBD@Z@4QBDB 1002b9c8     libucrt:atof.obj
 0002:000039cc       ?inf_lowercase@?1???$parse_floating_point_possible_infinity@DV?$c_string_character_source@D@__crt_strtox@@PBD@__crt_strtox@@YA?AW4floating_point_parse_result@1@AADAAV?$c_string_character_source@D@1@PBD@Z@4QBDB 1002b9cc     libucrt:atof.obj
 0002:000039d0       ?inity_uppercase@?1???$parse_floating_point_possible_infinity@DV?$c_string_character_source@D@__crt_strtox@@PBD@__crt_strtox@@YA?AW4floating_point_parse_result@1@AADAAV?$c_string_character_source@D@1@PBD@Z@4QBDB 1002b9d0     libucrt:atof.obj
 0002:000039d8       ?inity_lowercase@?1???$parse_floating_point_possible_infinity@DV?$c_string_character_source@D@__crt_strtox@@PBD@__crt_strtox@@YA?AW4floating_point_parse_result@1@AADAAV?$c_string_character_source@D@1@PBD@Z@4QBDB 1002b9d8     libucrt:atof.obj
 0002:000039e0       ?uppercase@?1???$parse_floating_point_possible_nan@DV?$c_string_character_source@D@__crt_strtox@@PBD@__crt_strtox@@YA?AW4floating_point_parse_result@1@AADAAV?$c_string_character_source@D@1@PBD@Z@4QBDB 1002b9e0     libucrt:atof.obj
 0002:000039e4       ?lowercase@?1???$parse_floating_point_possible_nan@DV?$c_string_character_source@D@__crt_strtox@@PBD@__crt_strtox@@YA?AW4floating_point_parse_result@1@AADAAV?$c_string_character_source@D@1@PBD@Z@4QBDB 1002b9e4     libucrt:atof.obj
 0002:000039e8       ?uppercase@?1???$parse_floating_point_possible_nan_is_snan@DV?$c_string_character_source@D@__crt_strtox@@@__crt_strtox@@YA_NAADAAV?$c_string_character_source@D@1@@Z@4QBDB 1002b9e8     libucrt:atof.obj
 0002:000039f0       ?lowercase@?1???$parse_floating_point_possible_nan_is_snan@DV?$c_string_character_source@D@__crt_strtox@@@__crt_strtox@@YA_NAADAAV?$c_string_character_source@D@1@@Z@4QBDB 1002b9f0     libucrt:atof.obj
 0002:000039f8       ?uppercase@?1???$parse_floating_point_possible_nan_is_ind@DV?$c_string_character_source@D@__crt_strtox@@@__crt_strtox@@YA_NAADAAV?$c_string_character_source@D@1@@Z@4QBDB 1002b9f8     libucrt:atof.obj
 0002:000039fc       ?lowercase@?1???$parse_floating_point_possible_nan_is_ind@DV?$c_string_character_source@D@__crt_strtox@@@__crt_strtox@@YA_NAADAAV?$c_string_character_source@D@1@@Z@4QBDB 1002b9fc     libucrt:atof.obj
 0002:00003a00       ___acrt_exception_action_table 1002ba00     libucrt:exception_filter.obj
 0002:00003a90       ___acrt_signal_action_table_count 1002ba90     libucrt:exception_filter.obj
 0002:00003a94       ___acrt_signal_action_first_fpe_index 1002ba94     libucrt:exception_filter.obj
 0002:00003a98       ___acrt_signal_action_fpe_count 1002ba98     libucrt:exception_filter.obj
 0002:00003a9c       ??_C@_1BI@BGOHAHKC@?$AAm?$AAs?$AAc?$AAo?$AAr?$AAe?$AAe?$AA?4?$AAd?$AAl?$AAl@ 1002ba9c     libucrt:exit.obj
 0002:00003ab4       ??_C@_0P@MIGLKIOC@CorExitProcess@ 1002bab4     libucrt:exit.obj
 0002:00003cf0       ??_C@_03OEIAHPBN@INF@      1002bcf0     libucrt:cvt.obj
 0002:00003cf4       ??_C@_03OJHLLCGB@inf@      1002bcf4     libucrt:cvt.obj
 0002:00003cf8       ??_C@_03LKNCIKJB@NAN@      1002bcf8     libucrt:cvt.obj
 0002:00003cfc       ??_C@_03LHCJEHON@nan@      1002bcfc     libucrt:cvt.obj
 0002:00003d00       ??_C@_09OFJJIMPC@NAN?$CISNAN?$CJ@ 1002bd00     libucrt:cvt.obj
 0002:00003d0c       ??_C@_09IPFBKMDL@nan?$CIsnan?$CJ@ 1002bd0c     libucrt:cvt.obj
 0002:00003d18       ??_C@_08IKHNHAJ@NAN?$CIIND?$CJ@ 1002bd18     libucrt:cvt.obj
 0002:00003d24       ??_C@_08OFCDMILK@nan?$CIind?$CJ@ 1002bd24     libucrt:cvt.obj
 0002:00003d30       ??_C@_05KLBDPFGC@e?$CL000@ 1002bd30     libucrt:cvt.obj
 0002:00003d38       ___lc_time_c               1002bd38     libucrt:nlsdata.obj
 0002:00003e9c       ??_C@_03KOEHGMDN@Sun@      1002be9c     libucrt:nlsdata.obj
 0002:00003ea0       ??_C@_03PDAGKDH@Mon@       1002bea0     libucrt:nlsdata.obj
 0002:00003ea4       ??_C@_03NAGEINEP@Tue@      1002bea4     libucrt:nlsdata.obj
 0002:00003ea8       ??_C@_03MHOMLAJA@Wed@      1002bea8     libucrt:nlsdata.obj
 0002:00003eac       ??_C@_03IOFIKPDN@Thu@      1002beac     libucrt:nlsdata.obj
 0002:00003eb0       ??_C@_03IDIOELNC@Fri@      1002beb0     libucrt:nlsdata.obj
 0002:00003eb4       ??_C@_03FEFJNEK@Sat@       1002beb4     libucrt:nlsdata.obj
 0002:00003eb8       ??_C@_06OOPIFAJ@Sunday@    1002beb8     libucrt:nlsdata.obj
 0002:00003ec0       ??_C@_06JLEDEDGH@Monday@   1002bec0     libucrt:nlsdata.obj
 0002:00003ec8       ??_C@_07BAAGCFCM@Tuesday@  1002bec8     libucrt:nlsdata.obj
 0002:00003ed0       ??_C@_09DLIGFAKA@Wednesday@ 1002bed0     libucrt:nlsdata.obj
 0002:00003edc       ??_C@_08HACCIKIA@Thursday@ 1002bedc     libucrt:nlsdata.obj
 0002:00003ee8       ??_C@_06JECMNKMI@Friday@   1002bee8     libucrt:nlsdata.obj
 0002:00003ef0       ??_C@_08INBOOONO@Saturday@ 1002bef0     libucrt:nlsdata.obj
 0002:00003efc       ??_C@_03JIHJHPIE@Jan@      1002befc     libucrt:nlsdata.obj
 0002:00003f00       ??_C@_03HJBDCHOM@Feb@      1002bf00     libucrt:nlsdata.obj
 0002:00003f04       ??_C@_03ODNJBKGA@Mar@      1002bf04     libucrt:nlsdata.obj
 0002:00003f08       ??_C@_03LEOLGMJP@Apr@      1002bf08     libucrt:nlsdata.obj
 0002:00003f0c       ??_C@_03CNMDKL@May@        1002bf0c     libucrt:nlsdata.obj
 0002:00003f10       ??_C@_03IDFGHECI@Jun@      1002bf10     libucrt:nlsdata.obj
 0002:00003f14       ??_C@_03LBGABGKK@Jul@      1002bf14     libucrt:nlsdata.obj
 0002:00003f18       ??_C@_03IFJFEIGA@Aug@      1002bf18     libucrt:nlsdata.obj
 0002:00003f1c       ??_C@_03GGCAPAJC@Sep@      1002bf1c     libucrt:nlsdata.obj
 0002:00003f20       ??_C@_03BMAOKBAD@Oct@      1002bf20     libucrt:nlsdata.obj
 0002:00003f24       ??_C@_03JPJOFNIA@Nov@      1002bf24     libucrt:nlsdata.obj
 0002:00003f28       ??_C@_03MKABNOCG@Dec@      1002bf28     libucrt:nlsdata.obj
 0002:00003f2c       ??_C@_07CGJPFGJA@January@  1002bf2c     libucrt:nlsdata.obj
 0002:00003f34       ??_C@_08GNJGEPFN@February@ 1002bf34     libucrt:nlsdata.obj
 0002:00003f40       ??_C@_05HPCKOFNC@March@    1002bf40     libucrt:nlsdata.obj
 0002:00003f48       ??_C@_05DMJDNLEJ@April@    1002bf48     libucrt:nlsdata.obj
 0002:00003f50       ??_C@_04CNLMGBGM@June@     1002bf50     libucrt:nlsdata.obj
 0002:00003f58       ??_C@_04MIEPOIFP@July@     1002bf58     libucrt:nlsdata.obj
 0002:00003f60       ??_C@_06LBBHFDDG@August@   1002bf60     libucrt:nlsdata.obj
 0002:00003f68       ??_C@_09BHHEALKD@September@ 1002bf68     libucrt:nlsdata.obj
 0002:00003f74       ??_C@_07JJNFCEND@October@  1002bf74     libucrt:nlsdata.obj
 0002:00003f7c       ??_C@_08HCHEGEOA@November@ 1002bf7c     libucrt:nlsdata.obj
 0002:00003f88       ??_C@_08EDHMEBNP@December@ 1002bf88     libucrt:nlsdata.obj
 0002:00003f94       ??_C@_02DEDBPAFC@AM@       1002bf94     libucrt:nlsdata.obj
 0002:00003f98       ??_C@_02CJNFDJBF@PM@       1002bf98     libucrt:nlsdata.obj
 0002:00003f9c       ??_C@_08BPBNCDIB@MM?1dd?1yy@ 1002bf9c     libucrt:nlsdata.obj
 0002:00003fa8       ??_C@_0BE@CKGJFCPC@dddd?0?5MMMM?5dd?0?5yyyy@ 1002bfa8     libucrt:nlsdata.obj
 0002:00003fbc       ??_C@_08JCCMCCIL@HH?3mm?3ss@ 1002bfbc     libucrt:nlsdata.obj
 0002:00003fc8       ??_C@_17MBGCMIPB@?$AAS?$AAu?$AAn@ 1002bfc8     libucrt:nlsdata.obj
 0002:00003fd0       ??_C@_17KBOMKBF@?$AAM?$AAo?$AAn@ 1002bfd0     libucrt:nlsdata.obj
 0002:00003fd8       ??_C@_17BMKGEGOJ@?$AAT?$AAu?$AAe@ 1002bfd8     libucrt:nlsdata.obj
 0002:00003fe0       ??_C@_17CJEDCEPE@?$AAW?$AAe?$AAd@ 1002bfe0     libucrt:nlsdata.obj
 0002:00003fe8       ??_C@_17PDPHAADD@?$AAT?$AAh?$AAu@ 1002bfe8     libucrt:nlsdata.obj
 0002:00003ff0       ??_C@_17HFOLPPLP@?$AAF?$AAr?$AAi@ 1002bff0     libucrt:nlsdata.obj
 0002:00003ff8       ??_C@_17GGIBDPIH@?$AAS?$AAa?$AAt@ 1002bff8     libucrt:nlsdata.obj
 0002:00004000       ??_C@_1O@IHNHDHPB@?$AAS?$AAu?$AAn?$AAd?$AAa?$AAy@ 1002c000     libucrt:nlsdata.obj
 0002:00004010       ??_C@_1O@MMNBFLIA@?$AAM?$AAo?$AAn?$AAd?$AAa?$AAy@ 1002c010     libucrt:nlsdata.obj
 0002:00004020       ??_C@_1BA@ENFBFFEK@?$AAT?$AAu?$AAe?$AAs?$AAd?$AAa?$AAy@ 1002c020     libucrt:nlsdata.obj
 0002:00004030       ??_C@_1BE@EBOGMDOH@?$AAW?$AAe?$AAd?$AAn?$AAe?$AAs?$AAd?$AAa?$AAy@ 1002c030     libucrt:nlsdata.obj
 0002:00004044       ??_C@_1BC@HHMNLIHE@?$AAT?$AAh?$AAu?$AAr?$AAs?$AAd?$AAa?$AAy@ 1002c044     libucrt:nlsdata.obj
 0002:00004058       ??_C@_1O@PDICJHAG@?$AAF?$AAr?$AAi?$AAd?$AAa?$AAy@ 1002c058     libucrt:nlsdata.obj
 0002:00004068       ??_C@_1BC@ENMNNPAJ@?$AAS?$AAa?$AAt?$AAu?$AAr?$AAd?$AAa?$AAy@ 1002c068     libucrt:nlsdata.obj
 0002:0000407c       ??_C@_17DKNBKCHM@?$AAJ?$AAa?$AAn@ 1002c07c     libucrt:nlsdata.obj
 0002:00004084       ??_C@_17LMDJEKJN@?$AAF?$AAe?$AAb@ 1002c084     libucrt:nlsdata.obj
 0002:0000408c       ??_C@_17CKNLEDEC@?$AAM?$AAa?$AAr@ 1002c08c     libucrt:nlsdata.obj
 0002:00004094       ??_C@_17LFPOIHDD@?$AAA?$AAp?$AAr@ 1002c094     libucrt:nlsdata.obj
 0002:0000409c       ??_C@_17PNNKMEED@?$AAM?$AAa?$AAy@ 1002c09c     libucrt:nlsdata.obj
 0002:000040a4       ??_C@_17KCJGOCPB@?$AAJ?$AAu?$AAn@ 1002c0a4     libucrt:nlsdata.obj
 0002:000040ac       ??_C@_17IJPCKHK@?$AAJ?$AAu?$AAl@ 1002c0ac     libucrt:nlsdata.obj
 0002:000040b4       ??_C@_17ICPELBCN@?$AAA?$AAu?$AAg@ 1002c0b4     libucrt:nlsdata.obj
 0002:000040bc       ??_C@_17HCHCOKMG@?$AAS?$AAe?$AAp@ 1002c0bc     libucrt:nlsdata.obj
 0002:000040c4       ??_C@_17FNLKOI@?$AAO?$AAc?$AAt@ 1002c0c4     libucrt:nlsdata.obj
 0002:000040cc       ??_C@_17BBDMLCIG@?$AAN?$AAo?$AAv@ 1002c0cc     libucrt:nlsdata.obj
 0002:000040d4       ??_C@_17EGKACKIF@?$AAD?$AAe?$AAc@ 1002c0d4     libucrt:nlsdata.obj
 0002:000040dc       ??_C@_1BA@EFMEIEBA@?$AAJ?$AAa?$AAn?$AAu?$AAa?$AAr?$AAy@ 1002c0dc     libucrt:nlsdata.obj
 0002:000040ec       ??_C@_1BC@JGDDFFAM@?$AAF?$AAe?$AAb?$AAr?$AAu?$AAa?$AAr?$AAy@ 1002c0ec     libucrt:nlsdata.obj
 0002:00004100       ??_C@_1M@IKEENEDF@?$AAM?$AAa?$AAr?$AAc?$AAh@ 1002c100     libucrt:nlsdata.obj
 0002:0000410c       ??_C@_1M@GJNLMHFD@?$AAA?$AAp?$AAr?$AAi?$AAl@ 1002c10c     libucrt:nlsdata.obj
 0002:00004118       ??_C@_19EPFLPGAP@?$AAJ?$AAu?$AAn?$AAe@ 1002c118     libucrt:nlsdata.obj
 0002:00004124       ??_C@_19BIFMLPCD@?$AAJ?$AAu?$AAl?$AAy@ 1002c124     libucrt:nlsdata.obj
 0002:00004130       ??_C@_1O@PAHLKOAC@?$AAA?$AAu?$AAg?$AAu?$AAs?$AAt@ 1002c130     libucrt:nlsdata.obj
 0002:00004140       ??_C@_1BE@DKAAMBJL@?$AAS?$AAe?$AAp?$AAt?$AAe?$AAm?$AAb?$AAe?$AAr@ 1002c140     libucrt:nlsdata.obj
 0002:00004154       ??_C@_1BA@EPANDLNG@?$AAO?$AAc?$AAt?$AAo?$AAb?$AAe?$AAr@ 1002c154     libucrt:nlsdata.obj
 0002:00004164       ??_C@_1BC@BGLIFPF@?$AAN?$AAo?$AAv?$AAe?$AAm?$AAb?$AAe?$AAr@ 1002c164     libucrt:nlsdata.obj
 0002:00004178       ??_C@_1BC@FEMKIFH@?$AAD?$AAe?$AAc?$AAe?$AAm?$AAb?$AAe?$AAr@ 1002c178     libucrt:nlsdata.obj
 0002:0000418c       ??_C@_15ODEHAHHF@?$AAA?$AAM@ 1002c18c     libucrt:nlsdata.obj
 0002:00004194       ??_C@_15CLMNNGEL@?$AAP?$AAM@ 1002c194     libucrt:nlsdata.obj
 0002:0000419c       ??_C@_1BC@IEBCMHCM@?$AAM?$AAM?$AA?1?$AAd?$AAd?$AA?1?$AAy?$AAy@ 1002c19c     libucrt:nlsdata.obj
 0002:000041b0       ??_C@_1CI@KNAKOEBC@?$AAd?$AAd?$AAd?$AAd?$AA?0?$AA?5?$AAM?$AAM?$AAM?$AAM?$AA?5?$AAd?$AAd?$AA?0?$AA?5@ 1002c1b0     libucrt:nlsdata.obj
 0002:000041d8       ??_C@_1BC@GDGBMEMK@?$AAH?$AAH?$AA?3?$AAm?$AAm?$AA?3?$AAs?$AAs@ 1002c1d8     libucrt:nlsdata.obj
 0002:000041ec       ??_C@_1M@BMHNFIME@?$AAe?$AAn?$AA?9?$AAU?$AAS@ 1002c1ec     libucrt:nlsdata.obj
 0002:000041f8       ?ccs@?1???$__acrt_stdio_parse_mode@D@@YA?AU__acrt_stdio_stream_mode@@QBD@Z@4QBDB 1002c1f8     libucrt:openfile.obj
 0002:000041fc       ?utf8_encoding@?1???$__acrt_stdio_parse_mode@D@@YA?AU__acrt_stdio_stream_mode@@QBD@Z@4QBDB 1002c1fc     libucrt:openfile.obj
 0002:00004204       ?utf16_encoding@?1???$__acrt_stdio_parse_mode@D@@YA?AU__acrt_stdio_stream_mode@@QBD@Z@4QBDB 1002c204     libucrt:openfile.obj
 0002:0000420c       ?unicode_encoding@?1???$__acrt_stdio_parse_mode@D@@YA?AU__acrt_stdio_stream_mode@@QBD@Z@4QBDB 1002c20c     libucrt:openfile.obj
 0002:00004218       ___newctype                1002c218     libucrt:ctype.obj
 0002:00004518       ___newclmap                1002c518     libucrt:ctype.obj
 0002:00004698       ___newcumap                1002c698     libucrt:ctype.obj
 0002:00004868       ??_C@_1EA@JGEFHKEI@?$AAa?$AAp?$AAi?$AA?9?$AAm?$AAs?$AA?9?$AAw?$AAi?$AAn?$AA?9?$AAc?$AAo?$AAr?$AAe@ 1002c868     libucrt:winapi_thunks.obj
 0002:000048a8       ??_C@_1DI@IJCEHOCB@?$AAa?$AAp?$AAi?$AA?9?$AAm?$AAs?$AA?9?$AAw?$AAi?$AAn?$AA?9?$AAc?$AAo?$AAr?$AAe@ 1002c8a8     libucrt:winapi_thunks.obj
 0002:000048e0       ??_C@_1EI@MPIAOHOC@?$AAa?$AAp?$AAi?$AA?9?$AAm?$AAs?$AA?9?$AAw?$AAi?$AAn?$AA?9?$AAc?$AAo?$AAr?$AAe@ 1002c8e0     libucrt:winapi_thunks.obj
 0002:00004928       ??_C@_1FK@FPHCKFIE@?$AAa?$AAp?$AAi?$AA?9?$AAm?$AAs?$AA?9?$AAw?$AAi?$AAn?$AA?9?$AAc?$AAo?$AAr?$AAe@ 1002c928     libucrt:winapi_thunks.obj
 0002:00004988       ??_C@_1EM@DILCGIIO@?$AAa?$AAp?$AAi?$AA?9?$AAm?$AAs?$AA?9?$AAw?$AAi?$AAn?$AA?9?$AAc?$AAo?$AAr?$AAe@ 1002c988     libucrt:winapi_thunks.obj
 0002:000049d4       ??_C@_1DM@LNCGDDPN@?$AAa?$AAp?$AAi?$AA?9?$AAm?$AAs?$AA?9?$AAw?$AAi?$AAn?$AA?9?$AAc?$AAo?$AAr?$AAe@ 1002c9d4     libucrt:winapi_thunks.obj
 0002:00004a10       ??_C@_1DO@FPAPJEMD@?$AAa?$AAp?$AAi?$AA?9?$AAm?$AAs?$AA?9?$AAw?$AAi?$AAn?$AA?9?$AAc?$AAo?$AAr?$AAe@ 1002ca10     libucrt:winapi_thunks.obj
 0002:00004a50       ??_C@_1DK@NDHNAHIO@?$AAa?$AAp?$AAi?$AA?9?$AAm?$AAs?$AA?9?$AAw?$AAi?$AAn?$AA?9?$AAc?$AAo?$AAr?$AAe@ 1002ca50     libucrt:winapi_thunks.obj
 0002:00004a8c       ??_C@_1DM@KGHDGBCM@?$AAa?$AAp?$AAi?$AA?9?$AAm?$AAs?$AA?9?$AAw?$AAi?$AAn?$AA?9?$AAc?$AAo?$AAr?$AAe@ 1002ca8c     libucrt:winapi_thunks.obj
 0002:00004ac8       ??_C@_1EO@IJIOEFOH@?$AAa?$AAp?$AAi?$AA?9?$AAm?$AAs?$AA?9?$AAw?$AAi?$AAn?$AA?9?$AAr?$AAt?$AAc?$AAo@ 1002cac8     libucrt:winapi_thunks.obj
 0002:00004b18       ??_C@_1FG@HHGEKANL@?$AAa?$AAp?$AAi?$AA?9?$AAm?$AAs?$AA?9?$AAw?$AAi?$AAn?$AA?9?$AAs?$AAe?$AAc?$AAu@ 1002cb18     libucrt:winapi_thunks.obj
 0002:00004b70       ??_C@_1EG@DBIOJECG@?$AAe?$AAx?$AAt?$AA?9?$AAm?$AAs?$AA?9?$AAw?$AAi?$AAn?$AA?9?$AAn?$AAt?$AAu?$AAs@ 1002cb70     libucrt:winapi_thunks.obj
 0002:00004bb8       ??_C@_1EO@FIHMJCLF@?$AAe?$AAx?$AAt?$AA?9?$AAm?$AAs?$AA?9?$AAw?$AAi?$AAn?$AA?9?$AAn?$AAt?$AAu?$AAs@ 1002cbb8     libucrt:winapi_thunks.obj
 0002:00004c08       ??_C@_1BC@DNHGCMLG@?$AAa?$AAd?$AAv?$AAa?$AAp?$AAi?$AA3?$AA2@ 1002cc08     libucrt:winapi_thunks.obj
 0002:00004c1c       ??_C@_1M@OAIMIKLP@?$AAn?$AAt?$AAd?$AAl?$AAl@ 1002cc1c     libucrt:winapi_thunks.obj
 0002:00004c28       ??_C@_1EG@DPGNFKGC@?$AAa?$AAp?$AAi?$AA?9?$AAm?$AAs?$AA?9?$AAw?$AAi?$AAn?$AA?9?$AAa?$AAp?$AAp?$AAm@ 1002cc28     libucrt:winapi_thunks.obj
 0002:00004c70       ??_C@_1O@BCCLBEOE@?$AAu?$AAs?$AAe?$AAr?$AA3?$AA2@ 1002cc70     libucrt:winapi_thunks.obj
 0002:00004c80       ??_C@_1DM@BPJLHKCE@?$AAa?$AAp?$AAi?$AA?9?$AAm?$AAs?$AA?9?$AAw?$AAi?$AAn?$AA?9?$AAc?$AAo?$AAr?$AAe@ 1002cc80     libucrt:winapi_thunks.obj
 0002:00004cbc       ??_C@_1BA@IAIFMGEF@?$AAe?$AAx?$AAt?$AA?9?$AAm?$AAs?$AA?9@ 1002ccbc     libucrt:winapi_thunks.obj
 0002:00004cd0       ??_C@_0BA@FHFNEAED@AreFileApisANSI@ 1002ccd0     libucrt:winapi_thunks.obj
 0002:00004cf0       ??_C@_0O@KKBNKAPF@LCMapStringEx@ 1002ccf0     libucrt:winapi_thunks.obj
 0002:00004d08       ??_C@_0BB@HBDEELFH@LocaleNameToLCID@ 1002cd08     libucrt:winapi_thunks.obj
 0002:00004d20       ??_C@_0CF@OJOFEIGO@AppPolicyGetProcessTerminationM@ 1002cd20     libucrt:winapi_thunks.obj
 0002:00004d78       ??_C@_1M@HPNHIDJI@?$AAj?$AAa?$AA?9?$AAJ?$AAP@ 1002cd78     libucrt:mbctype.obj
 0002:00004d84       ??_C@_1M@BIBDDEMK@?$AAz?$AAh?$AA?9?$AAC?$AAN@ 1002cd84     libucrt:mbctype.obj
 0002:00004d90       ??_C@_1M@JLOOOEGK@?$AAk?$AAo?$AA?9?$AAK?$AAR@ 1002cd90     libucrt:mbctype.obj
 0002:00004d9c       ??_C@_1M@CLNBBOPM@?$AAz?$AAh?$AA?9?$AAT?$AAW@ 1002cd9c     libucrt:mbctype.obj
 0002:00004da8       ??_C@_01GBGANLPD@0@        1002cda8     libucrt:cfout.obj
 0002:00004dac       ??_C@_05DNEBIAHO@1?$CDINF@ 1002cdac     libucrt:cfout.obj
 0002:00004db4       ??_C@_06IMKFLFPG@1?$CDQNAN@ 1002cdb4     libucrt:cfout.obj
 0002:00004dbc       ??_C@_06PGGFOGJG@1?$CDSNAN@ 1002cdbc     libucrt:cfout.obj
 0002:00004dc4       ??_C@_05PHHOCPM@1?$CDIND@  1002cdc4     libucrt:cfout.obj
 0002:00004dcc       ??_C@_15PJPFLCCM@?$AAu?$AAk@ 1002cdcc     libucrt:get_qualified_locale.obj
 0002:000054f8       ??_C@_15EMKDOKLE@?$AAa?$AAr@ 1002d4f8     libucrt:lcidtoname_downlevel.obj
 0002:00005500       ??_C@_15KNPADPLH@?$AAb?$AAg@ 1002d500     libucrt:lcidtoname_downlevel.obj
 0002:00005508       ??_C@_15EDMHLDMO@?$AAc?$AAa@ 1002d508     libucrt:lcidtoname_downlevel.obj
 0002:00005510       ??_C@_1O@BPEAJADD@?$AAz?$AAh?$AA?9?$AAC?$AAH?$AAS@ 1002d510     libucrt:lcidtoname_downlevel.obj
 0002:00005520       ??_C@_15LJNHCMNK@?$AAc?$AAs@ 1002d520     libucrt:lcidtoname_downlevel.obj
 0002:00005528       ??_C@_15FOMCIDHG@?$AAd?$AAa@ 1002d528     libucrt:lcidtoname_downlevel.obj
 0002:00005530       ??_C@_15NBKABECB@?$AAd?$AAe@ 1002d530     libucrt:lcidtoname_downlevel.obj
 0002:00005538       ??_C@_15GHPEIIAO@?$AAe?$AAl@ 1002d538     libucrt:lcidtoname_downlevel.obj
 0002:00005540       ??_C@_15MNPNEAIF@?$AAe?$AAn@ 1002d540     libucrt:lcidtoname_downlevel.obj
 0002:00005548       ??_C@_15GPIOMPMH@?$AAe?$AAs@ 1002d548     libucrt:lcidtoname_downlevel.obj
 0002:00005550       ??_C@_15NGLOAKJC@?$AAf?$AAi@ 1002d550     libucrt:lcidtoname_downlevel.obj
 0002:00005558       ??_C@_15FBKGNKAM@?$AAf?$AAr@ 1002d558     libucrt:lcidtoname_downlevel.obj
 0002:00005560       ??_C@_15KGGCNEFK@?$AAh?$AAe@ 1002d560     libucrt:lcidtoname_downlevel.obj
 0002:00005568       ??_C@_15PGHLIDMF@?$AAh?$AAu@ 1002d568     libucrt:lcidtoname_downlevel.obj
 0002:00005570       ??_C@_15BIEMAPLM@?$AAi?$AAs@ 1002d570     libucrt:lcidtoname_downlevel.obj
 0002:00005578       ??_C@_15IFJLDHAF@?$AAi?$AAt@ 1002d578     libucrt:lcidtoname_downlevel.obj
 0002:00005580       ??_C@_15GEMIOCAG@?$AAj?$AAa@ 1002d580     libucrt:lcidtoname_downlevel.obj
 0002:00005588       ??_C@_15EPELEGJA@?$AAk?$AAo@ 1002d588     libucrt:lcidtoname_downlevel.obj
 0002:00005590       ??_C@_15NDDHIMN@?$AAn?$AAl@ 1002d590     libucrt:lcidtoname_downlevel.obj
 0002:00005598       ??_C@_15BPIGNHCD@?$AAn?$AAo@ 1002d598     libucrt:lcidtoname_downlevel.obj
 0002:000055a0       ??_C@_15DEOPBLCG@?$AAp?$AAl@ 1002d5a0     libucrt:lcidtoname_downlevel.obj
 0002:000055a8       ??_C@_15KBECGEFG@?$AAp?$AAt@ 1002d5a8     libucrt:lcidtoname_downlevel.obj
 0002:000055b0       ??_C@_15GLJCBFMD@?$AAr?$AAo@ 1002d5b0     libucrt:lcidtoname_downlevel.obj
 0002:000055b8       ??_C@_15FEDGKCDI@?$AAr?$AAu@ 1002d5b8     libucrt:lcidtoname_downlevel.obj
 0002:000055c0       ??_C@_15GLKMLLHM@?$AAh?$AAr@ 1002d5c0     libucrt:lcidtoname_downlevel.obj
 0002:000055c8       ??_C@_15CPKMFBDB@?$AAs?$AAk@ 1002d5c8     libucrt:lcidtoname_downlevel.obj
 0002:000055d0       ??_C@_15BAAIOGMK@?$AAs?$AAq@ 1002d5d0     libucrt:lcidtoname_downlevel.obj
 0002:000055d8       ??_C@_15INNPNOHD@?$AAs?$AAv@ 1002d5d8     libucrt:lcidtoname_downlevel.obj
 0002:000055e0       ??_C@_15CABMMOGH@?$AAt?$AAh@ 1002d5e0     libucrt:lcidtoname_downlevel.obj
 0002:000055e8       ??_C@_15BPLIHJJM@?$AAt?$AAr@ 1002d5e8     libucrt:lcidtoname_downlevel.obj
 0002:000055f0       ??_C@_15NEOEKKDJ@?$AAu?$AAr@ 1002d5f0     libucrt:lcidtoname_downlevel.obj
 0002:000055f8       ??_C@_15NFICGAJK@?$AAi?$AAd@ 1002d5f8     libucrt:lcidtoname_downlevel.obj
 0002:00005600       ??_C@_15HPJPHDM@?$AAb?$AAe@ 1002d600     libucrt:lcidtoname_downlevel.obj
 0002:00005608       ??_C@_15LCHLGJII@?$AAs?$AAl@ 1002d608     libucrt:lcidtoname_downlevel.obj
 0002:00005610       ??_C@_15PCFJPHHO@?$AAe?$AAt@ 1002d610     libucrt:lcidtoname_downlevel.obj
 0002:00005618       ??_C@_15HPFPGODN@?$AAl?$AAv@ 1002d618     libucrt:lcidtoname_downlevel.obj
 0002:00005620       ??_C@_15NFFGKGLG@?$AAl?$AAt@ 1002d620     libucrt:lcidtoname_downlevel.obj
 0002:00005628       ??_C@_15BDAKCCHN@?$AAf?$AAa@ 1002d628     libucrt:lcidtoname_downlevel.obj
 0002:00005630       ??_C@_15NFGIAIAJ@?$AAv?$AAi@ 1002d630     libucrt:lcidtoname_downlevel.obj
 0002:00005638       ??_C@_15LMKNDMHN@?$AAh?$AAy@ 1002d638     libucrt:lcidtoname_downlevel.obj
 0002:00005640       ??_C@_15IJBHMCFL@?$AAa?$AAz@ 1002d640     libucrt:lcidtoname_downlevel.obj
 0002:00005648       ??_C@_15EKOFJABL@?$AAe?$AAu@ 1002d648     libucrt:lcidtoname_downlevel.obj
 0002:00005650       ??_C@_15BGHADCNK@?$AAm?$AAk@ 1002d650     libucrt:lcidtoname_downlevel.obj
 0002:00005658       ??_C@_15JDNICKHM@?$AAa?$AAf@ 1002d658     libucrt:lcidtoname_downlevel.obj
 0002:00005660       ??_C@_15KPJEDBKD@?$AAk?$AAa@ 1002d660     libucrt:lcidtoname_downlevel.obj
 0002:00005668       ??_C@_15PDNFFFEO@?$AAf?$AAo@ 1002d668     libucrt:lcidtoname_downlevel.obj
 0002:00005670       ??_C@_15OMLEGLOC@?$AAh?$AAi@ 1002d670     libucrt:lcidtoname_downlevel.obj
 0002:00005678       ??_C@_15IDNNENKK@?$AAm?$AAs@ 1002d678     libucrt:lcidtoname_downlevel.obj
 0002:00005680       ??_C@_15MACJNBMH@?$AAk?$AAk@ 1002d680     libucrt:lcidtoname_downlevel.obj
 0002:00005688       ??_C@_15DKDJEOND@?$AAk?$AAy@ 1002d688     libucrt:lcidtoname_downlevel.obj
 0002:00005690       ??_C@_15DFGDLJBG@?$AAs?$AAw@ 1002d690     libucrt:lcidtoname_downlevel.obj
 0002:00005698       ??_C@_15BBFAICNG@?$AAu?$AAz@ 1002d698     libucrt:lcidtoname_downlevel.obj
 0002:000056a0       ??_C@_15DKNDCGEA@?$AAt?$AAt@ 1002d6a0     libucrt:lcidtoname_downlevel.obj
 0002:000056a8       ??_C@_15MGIFMDPL@?$AAp?$AAa@ 1002d6a8     libucrt:lcidtoname_downlevel.obj
 0002:000056b0       ??_C@_15HCNDBBA@?$AAg?$AAu@ 1002d6b0     libucrt:lcidtoname_downlevel.obj
 0002:000056b8       ??_C@_15FNBEIBON@?$AAt?$AAa@ 1002d6b8     libucrt:lcidtoname_downlevel.obj
 0002:000056c0       ??_C@_15NCHGBGLK@?$AAt?$AAe@ 1002d6c0     libucrt:lcidtoname_downlevel.obj
 0002:000056c8       ??_C@_15PHPHCBPF@?$AAk?$AAn@ 1002d6c8     libucrt:lcidtoname_downlevel.obj
 0002:000056d0       ??_C@_15DLGBCKMP@?$AAm?$AAr@ 1002d6d0     libucrt:lcidtoname_downlevel.obj
 0002:000056d8       ??_C@_15EABBLBFF@?$AAs?$AAa@ 1002d6d8     libucrt:lcidtoname_downlevel.obj
 0002:000056e0       ??_C@_15CBKOMCOI@?$AAm?$AAn@ 1002d6e0     libucrt:lcidtoname_downlevel.obj
 0002:000056e8       ??_C@_15CKDMCJAF@?$AAg?$AAl@ 1002d6e8     libucrt:lcidtoname_downlevel.obj
 0002:000056f0       ??_C@_17CNJFBPG@?$AAk?$AAo?$AAk@ 1002d6f0     libucrt:lcidtoname_downlevel.obj
 0002:000056f8       ??_C@_17FFBJICPL@?$AAs?$AAy?$AAr@ 1002d6f8     libucrt:lcidtoname_downlevel.obj
 0002:00005700       ??_C@_17KPNDCPAF@?$AAd?$AAi?$AAv@ 1002d700     libucrt:lcidtoname_downlevel.obj
 0002:00005708       ??_C@_11LOCGONAA@@         1002d708     libucrt:lcidtoname_downlevel.obj
 0002:0000570c       ??_C@_1M@OKAHONE@?$AAa?$AAr?$AA?9?$AAS?$AAA@ 1002d70c     libucrt:lcidtoname_downlevel.obj
 0002:00005718       ??_C@_1M@FFFIGIGK@?$AAb?$AAg?$AA?9?$AAB?$AAG@ 1002d718     libucrt:lcidtoname_downlevel.obj
 0002:00005724       ??_C@_1M@BJNKEDC@?$AAc?$AAa?$AA?9?$AAE?$AAS@ 1002d724     libucrt:lcidtoname_downlevel.obj
 0002:00005730       ??_C@_1M@IJJHFJHA@?$AAc?$AAs?$AA?9?$AAC?$AAZ@ 1002d730     libucrt:lcidtoname_downlevel.obj
 0002:0000573c       ??_C@_1M@CLPEOBGI@?$AAd?$AAa?$AA?9?$AAD?$AAK@ 1002d73c     libucrt:lcidtoname_downlevel.obj
 0002:00005748       ??_C@_1M@MCMADGCB@?$AAd?$AAe?$AA?9?$AAD?$AAE@ 1002d748     libucrt:lcidtoname_downlevel.obj
 0002:00005754       ??_C@_1M@OOCKEMAM@?$AAe?$AAl?$AA?9?$AAG?$AAR@ 1002d754     libucrt:lcidtoname_downlevel.obj
 0002:00005760       ??_C@_1M@DDNJFGID@?$AAf?$AAi?$AA?9?$AAF?$AAI@ 1002d760     libucrt:lcidtoname_downlevel.obj
 0002:0000576c       ??_C@_1M@GLIPPMAC@?$AAf?$AAr?$AA?9?$AAF?$AAR@ 1002d76c     libucrt:lcidtoname_downlevel.obj
 0002:00005778       ??_C@_1M@GFMCHPE@?$AAh?$AAe?$AA?9?$AAI?$AAL@ 1002d778     libucrt:lcidtoname_downlevel.obj
 0002:00005784       ??_C@_1M@MHLPGNKM@?$AAh?$AAu?$AA?9?$AAH?$AAU@ 1002d784     libucrt:lcidtoname_downlevel.obj
 0002:00005790       ??_C@_1M@LPDDNNPN@?$AAi?$AAs?$AA?9?$AAI?$AAS@ 1002d790     libucrt:lcidtoname_downlevel.obj
 0002:0000579c       ??_C@_1M@MADIPODN@?$AAi?$AAt?$AA?9?$AAI?$AAT@ 1002d79c     libucrt:lcidtoname_downlevel.obj
 0002:000057a8       ??_C@_1M@IHBJJGG@?$AAn?$AAl?$AA?9?$AAN?$AAL@ 1002d7a8     libucrt:lcidtoname_downlevel.obj
 0002:000057b4       ??_C@_1M@EANAGDL@?$AAn?$AAb?$AA?9?$AAN?$AAO@ 1002d7b4     libucrt:lcidtoname_downlevel.obj
 0002:000057c0       ??_C@_1M@NEIEMEGP@?$AAp?$AAl?$AA?9?$AAP?$AAL@ 1002d7c0     libucrt:lcidtoname_downlevel.obj
 0002:000057cc       ??_C@_1M@BOCFIGEP@?$AAp?$AAt?$AA?9?$AAB?$AAR@ 1002d7cc     libucrt:lcidtoname_downlevel.obj
 0002:000057d8       ??_C@_1M@IMPFOPBG@?$AAr?$AAo?$AA?9?$AAR?$AAO@ 1002d7d8     libucrt:lcidtoname_downlevel.obj
 0002:000057e4       ??_C@_1M@IDNNEJMM@?$AAr?$AAu?$AA?9?$AAR?$AAU@ 1002d7e4     libucrt:lcidtoname_downlevel.obj
 0002:000057f0       ??_C@_1M@LILEEOGM@?$AAh?$AAr?$AA?9?$AAH?$AAR@ 1002d7f0     libucrt:lcidtoname_downlevel.obj
 0002:000057fc       ??_C@_1M@FKIFEHPB@?$AAs?$AAk?$AA?9?$AAS?$AAK@ 1002d7fc     libucrt:lcidtoname_downlevel.obj
 0002:00005808       ??_C@_1M@LJMAMNPJ@?$AAs?$AAq?$AA?9?$AAA?$AAL@ 1002d808     libucrt:lcidtoname_downlevel.obj
 0002:00005814       ??_C@_1M@GIAKDKJK@?$AAs?$AAv?$AA?9?$AAS?$AAE@ 1002d814     libucrt:lcidtoname_downlevel.obj
 0002:00005820       ??_C@_1M@MKJKIKCL@?$AAt?$AAh?$AA?9?$AAT?$AAH@ 1002d820     libucrt:lcidtoname_downlevel.obj
 0002:0000582c       ??_C@_1M@MFLCCMPB@?$AAt?$AAr?$AA?9?$AAT?$AAR@ 1002d82c     libucrt:lcidtoname_downlevel.obj
 0002:00005838       ??_C@_1M@OIJHDKJN@?$AAu?$AAr?$AA?9?$AAP?$AAK@ 1002d838     libucrt:lcidtoname_downlevel.obj
 0002:00005844       ??_C@_1M@LHIPCIEK@?$AAi?$AAd?$AA?9?$AAI?$AAD@ 1002d844     libucrt:lcidtoname_downlevel.obj
 0002:00005850       ??_C@_1M@MFMOBGI@?$AAu?$AAk?$AA?9?$AAU?$AAA@ 1002d850     libucrt:lcidtoname_downlevel.obj
 0002:0000585c       ??_C@_1M@OBGLJIPL@?$AAb?$AAe?$AA?9?$AAB?$AAY@ 1002d85c     libucrt:lcidtoname_downlevel.obj
 0002:00005868       ??_C@_1M@BCFAJEAD@?$AAs?$AAl?$AA?9?$AAS?$AAI@ 1002d868     libucrt:lcidtoname_downlevel.obj
 0002:00005874       ??_C@_1M@FKFFEDDN@?$AAe?$AAt?$AA?9?$AAE?$AAE@ 1002d874     libucrt:lcidtoname_downlevel.obj
 0002:00005880       ??_C@_1M@KGKKAACI@?$AAl?$AAv?$AA?9?$AAL?$AAV@ 1002d880     libucrt:lcidtoname_downlevel.obj
 0002:0000588c       ??_C@_1M@IFGBIJO@?$AAl?$AAt?$AA?9?$AAL?$AAT@ 1002d88c     libucrt:lcidtoname_downlevel.obj
 0002:00005898       ??_C@_1M@FGEAHEDM@?$AAf?$AAa?$AA?9?$AAI?$AAR@ 1002d898     libucrt:lcidtoname_downlevel.obj
 0002:000058a4       ??_C@_1M@KBMAIBFN@?$AAv?$AAi?$AA?9?$AAV?$AAN@ 1002d8a4     libucrt:lcidtoname_downlevel.obj
 0002:000058b0       ??_C@_1M@GPCBKDJK@?$AAh?$AAy?$AA?9?$AAA?$AAM@ 1002d8b0     libucrt:lcidtoname_downlevel.obj
 0002:000058bc       ??_C@_1BG@BECMDDJB@?$AAa?$AAz?$AA?9?$AAA?$AAZ?$AA?9?$AAL?$AAa?$AAt?$AAn@ 1002d8bc     libucrt:lcidtoname_downlevel.obj
 0002:000058d4       ??_C@_1M@MAOFCAEA@?$AAe?$AAu?$AA?9?$AAE?$AAS@ 1002d8d4     libucrt:lcidtoname_downlevel.obj
 0002:000058e0       ??_C@_1M@IGHABKPI@?$AAm?$AAk?$AA?9?$AAM?$AAK@ 1002d8e0     libucrt:lcidtoname_downlevel.obj
 0002:000058ec       ??_C@_1M@IAIGNEJG@?$AAt?$AAn?$AA?9?$AAZ?$AAA@ 1002d8ec     libucrt:lcidtoname_downlevel.obj
 0002:000058f8       ??_C@_1M@IIJCOJFA@?$AAx?$AAh?$AA?9?$AAZ?$AAA@ 1002d8f8     libucrt:lcidtoname_downlevel.obj
 0002:00005904       ??_C@_1M@LGPJHNJH@?$AAz?$AAu?$AA?9?$AAZ?$AAA@ 1002d904     libucrt:lcidtoname_downlevel.obj
 0002:00005910       ??_C@_1M@HOKAOIO@?$AAa?$AAf?$AA?9?$AAZ?$AAA@ 1002d910     libucrt:lcidtoname_downlevel.obj
 0002:0000591c       ??_C@_1M@DPCLHLIE@?$AAk?$AAa?$AA?9?$AAG?$AAE@ 1002d91c     libucrt:lcidtoname_downlevel.obj
 0002:00005928       ??_C@_1M@BLKMHJBI@?$AAf?$AAo?$AA?9?$AAF?$AAO@ 1002d928     libucrt:lcidtoname_downlevel.obj
 0002:00005934       ??_C@_1M@LGGJAPPB@?$AAh?$AAi?$AA?9?$AAI?$AAN@ 1002d934     libucrt:lcidtoname_downlevel.obj
 0002:00005940       ??_C@_1M@FIKPIHFE@?$AAm?$AAt?$AA?9?$AAM?$AAT@ 1002d940     libucrt:lcidtoname_downlevel.obj
 0002:0000594c       ??_C@_1M@HEGGPBFA@?$AAs?$AAe?$AA?9?$AAN?$AAO@ 1002d94c     libucrt:lcidtoname_downlevel.obj
 0002:00005958       ??_C@_1M@EIBJEEPA@?$AAm?$AAs?$AA?9?$AAM?$AAY@ 1002d958     libucrt:lcidtoname_downlevel.obj
 0002:00005964       ??_C@_1M@FHLBGMPP@?$AAk?$AAk?$AA?9?$AAK?$AAZ@ 1002d964     libucrt:lcidtoname_downlevel.obj
 0002:00005970       ??_C@_1M@NGJJLCGI@?$AAk?$AAy?$AA?9?$AAK?$AAG@ 1002d970     libucrt:lcidtoname_downlevel.obj
 0002:0000597c       ??_C@_1M@GIENNBFC@?$AAs?$AAw?$AA?9?$AAK?$AAE@ 1002d97c     libucrt:lcidtoname_downlevel.obj
 0002:00005988       ??_C@_1BG@NDGMJIMJ@?$AAu?$AAz?$AA?9?$AAU?$AAZ?$AA?9?$AAL?$AAa?$AAt?$AAn@ 1002d988     libucrt:lcidtoname_downlevel.obj
 0002:000059a0       ??_C@_1M@IDCCIHBC@?$AAt?$AAt?$AA?9?$AAR?$AAU@ 1002d9a0     libucrt:lcidtoname_downlevel.obj
 0002:000059ac       ??_C@_1M@LOICPMOJ@?$AAb?$AAn?$AA?9?$AAI?$AAN@ 1002d9ac     libucrt:lcidtoname_downlevel.obj
 0002:000059b8       ??_C@_1M@KPKKNEAH@?$AAp?$AAa?$AA?9?$AAI?$AAN@ 1002d9b8     libucrt:lcidtoname_downlevel.obj
 0002:000059c4       ??_C@_1M@PJGPPBOG@?$AAg?$AAu?$AA?9?$AAI?$AAN@ 1002d9c4     libucrt:lcidtoname_downlevel.obj
 0002:000059d0       ??_C@_1M@KMKMOPHI@?$AAt?$AAa?$AA?9?$AAI?$AAN@ 1002d9d0     libucrt:lcidtoname_downlevel.obj
 0002:000059dc       ??_C@_1M@KFEHEPAC@?$AAt?$AAe?$AA?9?$AAI?$AAN@ 1002d9dc     libucrt:lcidtoname_downlevel.obj
 0002:000059e8       ??_C@_1M@CDCLMGHI@?$AAk?$AAn?$AA?9?$AAI?$AAN@ 1002d9e8     libucrt:lcidtoname_downlevel.obj
 0002:000059f4       ??_C@_1M@MIODLDKF@?$AAm?$AAl?$AA?9?$AAI?$AAN@ 1002d9f4     libucrt:lcidtoname_downlevel.obj
 0002:00005a00       ??_C@_1M@PBIEACPO@?$AAm?$AAr?$AA?9?$AAI?$AAN@ 1002da00     libucrt:lcidtoname_downlevel.obj
 0002:00005a0c       ??_C@_1M@NIDEAGPH@?$AAs?$AAa?$AA?9?$AAI?$AAN@ 1002da0c     libucrt:lcidtoname_downlevel.obj
 0002:00005a18       ??_C@_1M@FHIHCBIO@?$AAm?$AAn?$AA?9?$AAM?$AAN@ 1002da18     libucrt:lcidtoname_downlevel.obj
 0002:00005a24       ??_C@_1M@JAIJPENP@?$AAc?$AAy?$AA?9?$AAG?$AAB@ 1002da24     libucrt:lcidtoname_downlevel.obj
 0002:00005a30       ??_C@_1M@PHGFBEPN@?$AAg?$AAl?$AA?9?$AAE?$AAS@ 1002da30     libucrt:lcidtoname_downlevel.obj
 0002:00005a3c       ??_C@_1O@KPIPDNCP@?$AAk?$AAo?$AAk?$AA?9?$AAI?$AAN@ 1002da3c     libucrt:lcidtoname_downlevel.obj
 0002:00005a4c       ??_C@_1O@KNHJLDJA@?$AAs?$AAy?$AAr?$AA?9?$AAS?$AAY@ 1002da4c     libucrt:lcidtoname_downlevel.obj
 0002:00005a5c       ??_C@_1O@MKEKBLAH@?$AAd?$AAi?$AAv?$AA?9?$AAM?$AAV@ 1002da5c     libucrt:lcidtoname_downlevel.obj
 0002:00005a6c       ??_C@_1O@OHDCKDDF@?$AAq?$AAu?$AAz?$AA?9?$AAB?$AAO@ 1002da6c     libucrt:lcidtoname_downlevel.obj
 0002:00005a7c       ??_C@_1M@LEPJNLFD@?$AAn?$AAs?$AA?9?$AAZ?$AAA@ 1002da7c     libucrt:lcidtoname_downlevel.obj
 0002:00005a88       ??_C@_1M@OMLEIIJB@?$AAm?$AAi?$AA?9?$AAN?$AAZ@ 1002da88     libucrt:lcidtoname_downlevel.obj
 0002:00005a94       ??_C@_1M@PMPEAILG@?$AAa?$AAr?$AA?9?$AAI?$AAQ@ 1002da94     libucrt:lcidtoname_downlevel.obj
 0002:00005aa0       ??_C@_1M@CNKPNOEE@?$AAd?$AAe?$AA?9?$AAC?$AAH@ 1002daa0     libucrt:lcidtoname_downlevel.obj
 0002:00005aac       ??_C@_1M@LKMGMLKO@?$AAe?$AAn?$AA?9?$AAG?$AAB@ 1002daac     libucrt:lcidtoname_downlevel.obj
 0002:00005ab8       ??_C@_1M@PGKJFFGL@?$AAe?$AAs?$AA?9?$AAM?$AAX@ 1002dab8     libucrt:lcidtoname_downlevel.obj
 0002:00005ac4       ??_C@_1M@DNNANBDC@?$AAf?$AAr?$AA?9?$AAB?$AAE@ 1002dac4     libucrt:lcidtoname_downlevel.obj
 0002:00005ad0       ??_C@_1M@HLGMDFHM@?$AAi?$AAt?$AA?9?$AAC?$AAH@ 1002dad0     libucrt:lcidtoname_downlevel.obj
 0002:00005adc       ??_C@_1M@CLLBGJH@?$AAn?$AAl?$AA?9?$AAB?$AAE@ 1002dadc     libucrt:lcidtoname_downlevel.obj
 0002:00005ae8       ??_C@_1M@BODBOGLF@?$AAn?$AAn?$AA?9?$AAN?$AAO@ 1002dae8     libucrt:lcidtoname_downlevel.obj
 0002:00005af4       ??_C@_1M@HFFAHKAD@?$AAp?$AAt?$AA?9?$AAP?$AAT@ 1002daf4     libucrt:lcidtoname_downlevel.obj
 0002:00005b00       ??_C@_1BG@LNOAKHIE@?$AAs?$AAr?$AA?9?$AAS?$AAP?$AA?9?$AAL?$AAa?$AAt?$AAn@ 1002db00     libucrt:lcidtoname_downlevel.obj
 0002:00005b18       ??_C@_1M@HBMHBGAK@?$AAs?$AAv?$AA?9?$AAF?$AAI@ 1002db18     libucrt:lcidtoname_downlevel.obj
 0002:00005b24       ??_C@_1BG@DGCJGJBE@?$AAa?$AAz?$AA?9?$AAA?$AAZ?$AA?9?$AAC?$AAy?$AAr?$AAl@ 1002db24     libucrt:lcidtoname_downlevel.obj
 0002:00005b3c       ??_C@_1M@KEJDAAHB@?$AAs?$AAe?$AA?9?$AAS?$AAE@ 1002db3c     libucrt:lcidtoname_downlevel.obj
 0002:00005b48       ??_C@_1M@HEIBJJAD@?$AAm?$AAs?$AA?9?$AAB?$AAN@ 1002db48     libucrt:lcidtoname_downlevel.obj
 0002:00005b54       ??_C@_1BG@PBGJMCEM@?$AAu?$AAz?$AA?9?$AAU?$AAZ?$AA?9?$AAC?$AAy?$AAr?$AAl@ 1002db54     libucrt:lcidtoname_downlevel.obj
 0002:00005b6c       ??_C@_1O@LAOBCMDF@?$AAq?$AAu?$AAz?$AA?9?$AAE?$AAC@ 1002db6c     libucrt:lcidtoname_downlevel.obj
 0002:00005b7c       ??_C@_1M@POEEMAIO@?$AAa?$AAr?$AA?9?$AAE?$AAG@ 1002db7c     libucrt:lcidtoname_downlevel.obj
 0002:00005b88       ??_C@_1M@EFAKDEDL@?$AAz?$AAh?$AA?9?$AAH?$AAK@ 1002db88     libucrt:lcidtoname_downlevel.obj
 0002:00005b94       ??_C@_1M@HKKIJHGI@?$AAd?$AAe?$AA?9?$AAA?$AAT@ 1002db94     libucrt:lcidtoname_downlevel.obj
 0002:00005ba0       ??_C@_1M@KBFBEHJF@?$AAe?$AAn?$AA?9?$AAA?$AAU@ 1002dba0     libucrt:lcidtoname_downlevel.obj
 0002:00005bac       ??_C@_1M@MNPLFAAH@?$AAe?$AAs?$AA?9?$AAE?$AAS@ 1002dbac     libucrt:lcidtoname_downlevel.obj
 0002:00005bb8       ??_C@_1M@HJOOJFMA@?$AAf?$AAr?$AA?9?$AAC?$AAA@ 1002dbb8     libucrt:lcidtoname_downlevel.obj
 0002:00005bc4       ??_C@_1BG@JPOFPNAB@?$AAs?$AAr?$AA?9?$AAS?$AAP?$AA?9?$AAC?$AAy?$AAr?$AAl@ 1002dbc4     libucrt:lcidtoname_downlevel.obj
 0002:00005bdc       ??_C@_1M@LNFOCMOB@?$AAs?$AAe?$AA?9?$AAF?$AAI@ 1002dbdc     libucrt:lcidtoname_downlevel.obj
 0002:00005be8       ??_C@_1O@MGJBOAMB@?$AAq?$AAu?$AAz?$AA?9?$AAP?$AAE@ 1002dbe8     libucrt:lcidtoname_downlevel.obj
 0002:00005bf8       ??_C@_1M@GJINLBOK@?$AAa?$AAr?$AA?9?$AAL?$AAY@ 1002dbf8     libucrt:lcidtoname_downlevel.obj
 0002:00005c04       ??_C@_1M@GGMNHJNL@?$AAz?$AAh?$AA?9?$AAS?$AAG@ 1002dc04     libucrt:lcidtoname_downlevel.obj
 0002:00005c10       ??_C@_1M@HOIKODND@?$AAd?$AAe?$AA?9?$AAL?$AAU@ 1002dc10     libucrt:lcidtoname_downlevel.obj
 0002:00005c1c       ??_C@_1M@DDOCCGFG@?$AAe?$AAn?$AA?9?$AAC?$AAA@ 1002dc1c     libucrt:lcidtoname_downlevel.obj
 0002:00005c28       ??_C@_1M@BNOEMJLF@?$AAe?$AAs?$AA?9?$AAG?$AAT@ 1002dc28     libucrt:lcidtoname_downlevel.obj
 0002:00005c34       ??_C@_1M@EOGNKEK@?$AAf?$AAr?$AA?9?$AAC?$AAH@ 1002dc34     libucrt:lcidtoname_downlevel.obj
 0002:00005c40       ??_C@_1M@FLIDJFHL@?$AAh?$AAr?$AA?9?$AAB?$AAA@ 1002dc40     libucrt:lcidtoname_downlevel.obj
 0002:00005c4c       ??_C@_1O@FMCELNAJ@?$AAs?$AAm?$AAj?$AA?9?$AAN?$AAO@ 1002dc4c     libucrt:lcidtoname_downlevel.obj
 0002:00005c5c       ??_C@_1M@JHGLJMGJ@?$AAa?$AAr?$AA?9?$AAD?$AAZ@ 1002dc5c     libucrt:lcidtoname_downlevel.obj
 0002:00005c68       ??_C@_1M@JKKFDCNP@?$AAz?$AAh?$AA?9?$AAM?$AAO@ 1002dc68     libucrt:lcidtoname_downlevel.obj
 0002:00005c74       ??_C@_1M@GEEFALPE@?$AAd?$AAe?$AA?9?$AAL?$AAI@ 1002dc74     libucrt:lcidtoname_downlevel.obj
 0002:00005c80       ??_C@_1M@IGEOFBG@?$AAe?$AAn?$AA?9?$AAN?$AAZ@ 1002dc80     libucrt:lcidtoname_downlevel.obj
 0002:00005c8c       ??_C@_1M@KDBONEHP@?$AAe?$AAs?$AA?9?$AAC?$AAR@ 1002dc8c     libucrt:lcidtoname_downlevel.obj
 0002:00005c98       ??_C@_1M@FHMDOHNN@?$AAf?$AAr?$AA?9?$AAL?$AAU@ 1002dc98     libucrt:lcidtoname_downlevel.obj
 0002:00005ca4       ??_C@_1BG@NFKKMAFG@?$AAb?$AAs?$AA?9?$AAB?$AAA?$AA?9?$AAL?$AAa?$AAt?$AAn@ 1002dca4     libucrt:lcidtoname_downlevel.obj
 0002:00005cbc       ??_C@_1O@IMNBEMCI@?$AAs?$AAm?$AAj?$AA?9?$AAS?$AAE@ 1002dcbc     libucrt:lcidtoname_downlevel.obj
 0002:00005ccc       ??_C@_1M@DHHMBNDP@?$AAa?$AAr?$AA?9?$AAM?$AAA@ 1002dccc     libucrt:lcidtoname_downlevel.obj
 0002:00005cd8       ??_C@_1M@BNBLJCGH@?$AAe?$AAn?$AA?9?$AAI?$AAE@ 1002dcd8     libucrt:lcidtoname_downlevel.obj
 0002:00005ce4       ??_C@_1M@GEPAFMDL@?$AAe?$AAs?$AA?9?$AAP?$AAA@ 1002dce4     libucrt:lcidtoname_downlevel.obj
 0002:00005cf0       ??_C@_1M@OJONDMDL@?$AAf?$AAr?$AA?9?$AAM?$AAC@ 1002dcf0     libucrt:lcidtoname_downlevel.obj
 0002:00005cfc       ??_C@_1BG@OBCNFJB@?$AAs?$AAr?$AA?9?$AAB?$AAA?$AA?9?$AAL?$AAa?$AAt?$AAn@ 1002dcfc     libucrt:lcidtoname_downlevel.obj
 0002:00005d14       ??_C@_1O@KEMEEGPO@?$AAs?$AAm?$AAa?$AA?9?$AAN?$AAO@ 1002dd14     libucrt:lcidtoname_downlevel.obj
 0002:00005d24       ??_C@_1M@ELMGFODK@?$AAa?$AAr?$AA?9?$AAT?$AAN@ 1002dd24     libucrt:lcidtoname_downlevel.obj
 0002:00005d30       ??_C@_1M@BHDLHFAF@?$AAe?$AAn?$AA?9?$AAZ?$AAA@ 1002dd30     libucrt:lcidtoname_downlevel.obj
 0002:00005d3c       ??_C@_1M@BMGIGLIF@?$AAe?$AAs?$AA?9?$AAD?$AAO@ 1002dd3c     libucrt:lcidtoname_downlevel.obj
 0002:00005d48       ??_C@_1BG@CMBHIPBE@?$AAs?$AAr?$AA?9?$AAB?$AAA?$AA?9?$AAC?$AAy?$AAr?$AAl@ 1002dd48     libucrt:lcidtoname_downlevel.obj
 0002:00005d60       ??_C@_1O@HEDBLHNP@?$AAs?$AAm?$AAa?$AA?9?$AAS?$AAE@ 1002dd60     libucrt:lcidtoname_downlevel.obj
 0002:00005d70       ??_C@_1M@DAGCADIM@?$AAa?$AAr?$AA?9?$AAO?$AAM@ 1002dd70     libucrt:lcidtoname_downlevel.obj
 0002:00005d7c       ??_C@_1M@FODLMICG@?$AAe?$AAn?$AA?9?$AAJ?$AAM@ 1002dd7c     libucrt:lcidtoname_downlevel.obj
 0002:00005d88       ??_C@_1M@DNMLCIHB@?$AAe?$AAs?$AA?9?$AAV?$AAE@ 1002dd88     libucrt:lcidtoname_downlevel.obj
 0002:00005d94       ??_C@_1O@EOKHMKJK@?$AAs?$AAm?$AAs?$AA?9?$AAF?$AAI@ 1002dd94     libucrt:lcidtoname_downlevel.obj
 0002:00005da4       ??_C@_1M@CAFJMKOF@?$AAa?$AAr?$AA?9?$AAY?$AAE@ 1002dda4     libucrt:lcidtoname_downlevel.obj
 0002:00005db0       ??_C@_1M@CBFHIJLI@?$AAe?$AAn?$AA?9?$AAC?$AAB@ 1002ddb0     libucrt:lcidtoname_downlevel.obj
 0002:00005dbc       ??_C@_1M@BGNFLDN@?$AAe?$AAs?$AA?9?$AAC?$AAO@ 1002ddbc     libucrt:lcidtoname_downlevel.obj
 0002:00005dc8       ??_C@_1O@JMPHMAMC@?$AAs?$AAm?$AAn?$AA?9?$AAF?$AAI@ 1002ddc8     libucrt:lcidtoname_downlevel.obj
 0002:00005dd8       ??_C@_1M@JLANABKE@?$AAa?$AAr?$AA?9?$AAS?$AAY@ 1002ddd8     libucrt:lcidtoname_downlevel.obj
 0002:00005de4       ??_C@_1M@HPKGCFGN@?$AAe?$AAn?$AA?9?$AAB?$AAZ@ 1002dde4     libucrt:lcidtoname_downlevel.obj
 0002:00005df0       ??_C@_1M@OLJCMLGM@?$AAe?$AAs?$AA?9?$AAP?$AAE@ 1002ddf0     libucrt:lcidtoname_downlevel.obj
 0002:00005dfc       ??_C@_1M@MKKGFKLE@?$AAa?$AAr?$AA?9?$AAJ?$AAO@ 1002ddfc     libucrt:lcidtoname_downlevel.obj
 0002:00005e08       ??_C@_1M@EKPGLDNI@?$AAe?$AAn?$AA?9?$AAT?$AAT@ 1002de08     libucrt:lcidtoname_downlevel.obj
 0002:00005e14       ??_C@_1M@OONGHFHE@?$AAe?$AAs?$AA?9?$AAA?$AAR@ 1002de14     libucrt:lcidtoname_downlevel.obj
 0002:00005e20       ??_C@_1M@OOJFGBHE@?$AAa?$AAr?$AA?9?$AAL?$AAB@ 1002de20     libucrt:lcidtoname_downlevel.obj
 0002:00005e2c       ??_C@_1M@GCEJHNEG@?$AAe?$AAn?$AA?9?$AAZ?$AAW@ 1002de2c     libucrt:lcidtoname_downlevel.obj
 0002:00005e38       ??_C@_1M@JNOCAHJI@?$AAe?$AAs?$AA?9?$AAE?$AAC@ 1002de38     libucrt:lcidtoname_downlevel.obj
 0002:00005e44       ??_C@_1M@JEFHPGGB@?$AAa?$AAr?$AA?9?$AAK?$AAW@ 1002de44     libucrt:lcidtoname_downlevel.obj
 0002:00005e50       ??_C@_1M@MLKIBJOJ@?$AAe?$AAn?$AA?9?$AAP?$AAH@ 1002de50     libucrt:lcidtoname_downlevel.obj
 0002:00005e5c       ??_C@_1M@BDNIPEND@?$AAe?$AAs?$AA?9?$AAC?$AAL@ 1002de5c     libucrt:lcidtoname_downlevel.obj
 0002:00005e68       ??_C@_1M@MPNMEKBD@?$AAa?$AAr?$AA?9?$AAA?$AAE@ 1002de68     libucrt:lcidtoname_downlevel.obj
 0002:00005e74       ??_C@_1M@KBJALCPI@?$AAe?$AAs?$AA?9?$AAU?$AAY@ 1002de74     libucrt:lcidtoname_downlevel.obj
 0002:00005e80       ??_C@_1M@LLCCOAGA@?$AAa?$AAr?$AA?9?$AAB?$AAH@ 1002de80     libucrt:lcidtoname_downlevel.obj
 0002:00005e8c       ??_C@_1M@PBFNCDEL@?$AAe?$AAs?$AA?9?$AAP?$AAY@ 1002de8c     libucrt:lcidtoname_downlevel.obj
 0002:00005e98       ??_C@_1M@EDGINPNP@?$AAa?$AAr?$AA?9?$AAQ?$AAA@ 1002de98     libucrt:lcidtoname_downlevel.obj
 0002:00005ea4       ??_C@_1M@MKDBIIJI@?$AAe?$AAs?$AA?9?$AAB?$AAO@ 1002dea4     libucrt:lcidtoname_downlevel.obj
 0002:00005eb0       ??_C@_1M@CPKKEBLD@?$AAe?$AAs?$AA?9?$AAS?$AAV@ 1002deb0     libucrt:lcidtoname_downlevel.obj
 0002:00005ebc       ??_C@_1M@NDBGMMJL@?$AAe?$AAs?$AA?9?$AAH?$AAN@ 1002debc     libucrt:lcidtoname_downlevel.obj
 0002:00005ec8       ??_C@_1M@JIJIBHDP@?$AAe?$AAs?$AA?9?$AAN?$AAI@ 1002dec8     libucrt:lcidtoname_downlevel.obj
 0002:00005ed4       ??_C@_1M@CGFMKEEK@?$AAe?$AAs?$AA?9?$AAP?$AAR@ 1002ded4     libucrt:lcidtoname_downlevel.obj
 0002:00005ee0       ??_C@_1O@ICJHKIIK@?$AAz?$AAh?$AA?9?$AAC?$AAH?$AAT@ 1002dee0     libucrt:lcidtoname_downlevel.obj
 0002:00005ef0       ??_C@_15CLNEJCE@?$AAs?$AAr@ 1002def0     libucrt:lcidtoname_downlevel.obj
 0002:00006618       ??_C@_1M@KAHEKEIG@?$AAa?$AAf?$AA?9?$AAz?$AAa@ 1002e618     libucrt:lcidtoname_downlevel.obj
 0002:00006624       ??_C@_1M@GIECOABL@?$AAa?$AAr?$AA?9?$AAa?$AAe@ 1002e624     libucrt:lcidtoname_downlevel.obj
 0002:00006630       ??_C@_1M@BMLMEKGI@?$AAa?$AAr?$AA?9?$AAb?$AAh@ 1002e630     libucrt:lcidtoname_downlevel.obj
 0002:0000663c       ??_C@_1M@DAPFDGGB@?$AAa?$AAr?$AA?9?$AAd?$AAz@ 1002e63c     libucrt:lcidtoname_downlevel.obj
 0002:00006648       ??_C@_1M@FJNKGKIG@?$AAa?$AAr?$AA?9?$AAe?$AAg@ 1002e648     libucrt:lcidtoname_downlevel.obj
 0002:00006654       ??_C@_1M@FLGKKCLO@?$AAa?$AAr?$AA?9?$AAi?$AAq@ 1002e654     libucrt:lcidtoname_downlevel.obj
 0002:00006660       ??_C@_1M@GNDIPALM@?$AAa?$AAr?$AA?9?$AAj?$AAo@ 1002e660     libucrt:lcidtoname_downlevel.obj
 0002:0000666c       ??_C@_1M@DDMJFMGJ@?$AAa?$AAr?$AA?9?$AAk?$AAw@ 1002e66c     libucrt:lcidtoname_downlevel.obj
 0002:00006678       ??_C@_1M@EJALMLHM@?$AAa?$AAr?$AA?9?$AAl?$AAb@ 1002e678     libucrt:lcidtoname_downlevel.obj
 0002:00006684       ??_C@_1M@MOBDBLOC@?$AAa?$AAr?$AA?9?$AAl?$AAy@ 1002e684     libucrt:lcidtoname_downlevel.obj
 0002:00006690       ??_C@_1M@JAOCLHDH@?$AAa?$AAr?$AA?9?$AAm?$AAa@ 1002e690     libucrt:lcidtoname_downlevel.obj
 0002:0000669c       ??_C@_1M@JHPMKJIE@?$AAa?$AAr?$AA?9?$AAo?$AAm@ 1002e69c     libucrt:lcidtoname_downlevel.obj
 0002:000066a8       ??_C@_1M@OEPGHFNH@?$AAa?$AAr?$AA?9?$AAq?$AAa@ 1002e6a8     libucrt:lcidtoname_downlevel.obj
 0002:000066b4       ??_C@_1M@KJDONENM@?$AAa?$AAr?$AA?9?$AAs?$AAa@ 1002e6b4     libucrt:lcidtoname_downlevel.obj
 0002:000066c0       ??_C@_1M@DMJDKLKM@?$AAa?$AAr?$AA?9?$AAs?$AAy@ 1002e6c0     libucrt:lcidtoname_downlevel.obj
 0002:000066cc       ??_C@_1M@OMFIPEDC@?$AAa?$AAr?$AA?9?$AAt?$AAn@ 1002e6cc     libucrt:lcidtoname_downlevel.obj
 0002:000066d8       ??_C@_1M@IHMHGAON@?$AAa?$AAr?$AA?9?$AAy?$AAe@ 1002e6d8     libucrt:lcidtoname_downlevel.obj
 0002:000066e4       ??_C@_1BG@KDCPGJGB@?$AAa?$AAz?$AA?9?$AAa?$AAz?$AA?9?$AAc?$AAy?$AAr?$AAl@ 1002e6e4     libucrt:lcidtoname_downlevel.obj
 0002:000066fc       ??_C@_1BG@IBCKDDOE@?$AAa?$AAz?$AA?9?$AAa?$AAz?$AA?9?$AAl?$AAa?$AAt?$AAn@ 1002e6fc     libucrt:lcidtoname_downlevel.obj
 0002:00006714       ??_C@_1M@EGPFDCPD@?$AAb?$AAe?$AA?9?$AAb?$AAy@ 1002e714     libucrt:lcidtoname_downlevel.obj
 0002:00006720       ??_C@_1M@PCMGMCGC@?$AAb?$AAg?$AA?9?$AAb?$AAg@ 1002e720     libucrt:lcidtoname_downlevel.obj
 0002:0000672c       ??_C@_1M@BJBMFGOB@?$AAb?$AAn?$AA?9?$AAi?$AAn@ 1002e72c     libucrt:lcidtoname_downlevel.obj
 0002:00006738       ??_C@_1BG@EAKMMACD@?$AAb?$AAs?$AA?9?$AAb?$AAa?$AA?9?$AAl?$AAa?$AAt?$AAn@ 1002e738     libucrt:lcidtoname_downlevel.obj
 0002:00006750       ??_C@_1M@KGADAODK@?$AAc?$AAa?$AA?9?$AAe?$AAs@ 1002e750     libucrt:lcidtoname_downlevel.obj
 0002:0000675c       ??_C@_1M@COAJPDHI@?$AAc?$AAs?$AA?9?$AAc?$AAz@ 1002e75c     libucrt:lcidtoname_downlevel.obj
 0002:00006768       ??_C@_1M@DHBHFONH@?$AAc?$AAy?$AA?9?$AAg?$AAb@ 1002e768     libucrt:lcidtoname_downlevel.obj
 0002:00006774       ??_C@_1M@IMGKELGA@?$AAd?$AAa?$AA?9?$AAd?$AAk@ 1002e774     libucrt:lcidtoname_downlevel.obj
 0002:00006780       ??_C@_1M@NNDGDNGA@?$AAd?$AAe?$AA?9?$AAa?$AAt@ 1002e780     libucrt:lcidtoname_downlevel.obj
 0002:0000678c       ??_C@_1M@IKDBHEEM@?$AAd?$AAe?$AA?9?$AAc?$AAh@ 1002e78c     libucrt:lcidtoname_downlevel.obj
 0002:00006798       ??_C@_1M@GFFOJMCJ@?$AAd?$AAe?$AA?9?$AAd?$AAe@ 1002e798     libucrt:lcidtoname_downlevel.obj
 0002:000067a4       ??_C@_1M@MDNLKBPM@?$AAd?$AAe?$AA?9?$AAl?$AAi@ 1002e7a4     libucrt:lcidtoname_downlevel.obj
 0002:000067b0       ??_C@_1M@NJBEEJNL@?$AAd?$AAe?$AA?9?$AAl?$AAu@ 1002e7b0     libucrt:lcidtoname_downlevel.obj
 0002:000067bc       ??_C@_1O@GNNELBAP@?$AAd?$AAi?$AAv?$AA?9?$AAm?$AAv@ 1002e7bc     libucrt:lcidtoname_downlevel.obj
 0002:000067cc       ??_C@_1M@EJLEOGAE@?$AAe?$AAl?$AA?9?$AAg?$AAr@ 1002e7cc     libucrt:lcidtoname_downlevel.obj
 0002:000067d8       ??_C@_1M@GMPONJN@?$AAe?$AAn?$AA?9?$AAa?$AAu@ 1002e7d8     libucrt:lcidtoname_downlevel.obj
 0002:000067e4       ??_C@_1M@NIDIIPGF@?$AAe?$AAn?$AA?9?$AAb?$AAz@ 1002e7e4     libucrt:lcidtoname_downlevel.obj
 0002:000067f0       ??_C@_1M@JEHMIMFO@?$AAe?$AAn?$AA?9?$AAc?$AAa@ 1002e7f0     libucrt:lcidtoname_downlevel.obj
 0002:000067fc       ??_C@_1M@IGMJCDLA@?$AAe?$AAn?$AA?9?$AAc?$AAb@ 1002e7fc     libucrt:lcidtoname_downlevel.obj
 0002:00006808       ??_C@_1M@BNFIGBKG@?$AAe?$AAn?$AA?9?$AAg?$AAb@ 1002e808     libucrt:lcidtoname_downlevel.obj
 0002:00006814       ??_C@_1M@LKIFDIGP@?$AAe?$AAn?$AA?9?$AAi?$AAe@ 1002e814     libucrt:lcidtoname_downlevel.obj
 0002:00006820       ??_C@_1M@PJKFGCCO@?$AAe?$AAn?$AA?9?$AAj?$AAm@ 1002e820     libucrt:lcidtoname_downlevel.obj
 0002:0000682c       ??_C@_1M@KPPKEPBO@?$AAe?$AAn?$AA?9?$AAn?$AAz@ 1002e82c     libucrt:lcidtoname_downlevel.obj
 0002:00006838       ??_C@_1M@GMDGLDOB@?$AAe?$AAn?$AA?9?$AAp?$AAh@ 1002e838     libucrt:lcidtoname_downlevel.obj
 0002:00006844       ??_C@_1M@ONGIBJNA@?$AAe?$AAn?$AA?9?$AAt?$AAt@ 1002e844     libucrt:lcidtoname_downlevel.obj
 0002:00006850       ??_C@_1M@LLODPCMM@?$AAe?$AAn?$AA?9?$AAu?$AAs@ 1002e850     libucrt:lcidtoname_downlevel.obj
 0002:0000685c       ??_C@_1M@LAKFNPAN@?$AAe?$AAn?$AA?9?$AAz?$AAa@ 1002e85c     libucrt:lcidtoname_downlevel.obj
 0002:00006868       ??_C@_1M@MFNHNHEO@?$AAe?$AAn?$AA?9?$AAz?$AAw@ 1002e868     libucrt:lcidtoname_downlevel.obj
 0002:00006874       ??_C@_1M@EJEINPHM@?$AAe?$AAs?$AA?9?$AAa?$AAr@ 1002e874     libucrt:lcidtoname_downlevel.obj
 0002:00006880       ??_C@_1M@GNKPCCJA@?$AAe?$AAs?$AA?9?$AAb?$AAo@ 1002e880     libucrt:lcidtoname_downlevel.obj
 0002:0000688c       ??_C@_1M@LEEGFONL@?$AAe?$AAs?$AA?9?$AAc?$AAl@ 1002e88c     libucrt:lcidtoname_downlevel.obj
 0002:00006898       ??_C@_1M@KGPDPBDF@?$AAe?$AAs?$AA?9?$AAc?$AAo@ 1002e898     libucrt:lcidtoname_downlevel.obj
 0002:000068a4       ??_C@_1M@EIAHOHH@?$AAe?$AAs?$AA?9?$AAc?$AAr@ 1002e8a4     libucrt:lcidtoname_downlevel.obj
 0002:000068b0       ??_C@_1M@LLPGMBIN@?$AAe?$AAs?$AA?9?$AAd?$AAo@ 1002e8b0     libucrt:lcidtoname_downlevel.obj
 0002:000068bc       ??_C@_1M@DKHMKNJA@?$AAe?$AAs?$AA?9?$AAe?$AAc@ 1002e8bc     libucrt:lcidtoname_downlevel.obj
 0002:000068c8       ??_C@_1M@GKGFPKAP@?$AAe?$AAs?$AA?9?$AAe?$AAs@ 1002e8c8     libucrt:lcidtoname_downlevel.obj
 0002:000068d4       ??_C@_1M@LKHKGDLN@?$AAe?$AAs?$AA?9?$AAg?$AAt@ 1002e8d4     libucrt:lcidtoname_downlevel.obj
 0002:000068e0       ??_C@_1M@HEIIGGJD@?$AAe?$AAs?$AA?9?$AAh?$AAn@ 1002e8e0     libucrt:lcidtoname_downlevel.obj
 0002:000068ec       ??_C@_1M@FBDHPPGD@?$AAe?$AAs?$AA?9?$AAm?$AAx@ 1002e8ec     libucrt:lcidtoname_downlevel.obj
 0002:000068f8       ??_C@_1M@DPAGLNDH@?$AAe?$AAs?$AA?9?$AAn?$AAi@ 1002e8f8     libucrt:lcidtoname_downlevel.obj
 0002:00006904       ??_C@_1M@MDGOPGDD@?$AAe?$AAs?$AA?9?$AAp?$AAa@ 1002e904     libucrt:lcidtoname_downlevel.obj
 0002:00006910       ??_C@_1M@EMAMGBGE@?$AAe?$AAs?$AA?9?$AAp?$AAe@ 1002e910     libucrt:lcidtoname_downlevel.obj
 0002:0000691c       ??_C@_1M@IBMCAOEC@?$AAe?$AAs?$AA?9?$AAp?$AAr@ 1002e91c     libucrt:lcidtoname_downlevel.obj
 0002:00006928       ??_C@_1M@FGMDIJED@?$AAe?$AAs?$AA?9?$AAp?$AAy@ 1002e928     libucrt:lcidtoname_downlevel.obj
 0002:00006934       ??_C@_1M@IIDEOLLL@?$AAe?$AAs?$AA?9?$AAs?$AAv@ 1002e934     libucrt:lcidtoname_downlevel.obj
 0002:00006940       ??_C@_1M@GAOBIPA@?$AAe?$AAs?$AA?9?$AAu?$AAy@ 1002e940     libucrt:lcidtoname_downlevel.obj
 0002:0000694c       ??_C@_1M@JKFFICHJ@?$AAe?$AAs?$AA?9?$AAv?$AAe@ 1002e94c     libucrt:lcidtoname_downlevel.obj
 0002:00006958       ??_C@_1M@PNMLOJDF@?$AAe?$AAt?$AA?9?$AAe?$AAe@ 1002e958     libucrt:lcidtoname_downlevel.obj
 0002:00006964       ??_C@_1M@GHHLIKEI@?$AAe?$AAu?$AA?9?$AAe?$AAs@ 1002e964     libucrt:lcidtoname_downlevel.obj
 0002:00006970       ??_C@_1M@PBNONODE@?$AAf?$AAa?$AA?9?$AAi?$AAr@ 1002e970     libucrt:lcidtoname_downlevel.obj
 0002:0000697c       ??_C@_1M@JEEHPMIL@?$AAf?$AAi?$AA?9?$AAf?$AAi@ 1002e97c     libucrt:lcidtoname_downlevel.obj
 0002:00006988       ??_C@_1M@LMDCNDBA@?$AAf?$AAo?$AA?9?$AAf?$AAo@ 1002e988     libucrt:lcidtoname_downlevel.obj
 0002:00006994       ??_C@_1M@JKEOHLDK@?$AAf?$AAr?$AA?9?$AAb?$AAe@ 1002e994     libucrt:lcidtoname_downlevel.obj
 0002:000069a0       ??_C@_1M@NOHADPMI@?$AAf?$AAr?$AA?9?$AAc?$AAa@ 1002e9a0     libucrt:lcidtoname_downlevel.obj
 0002:000069ac       ??_C@_1M@KDHIHAEC@?$AAf?$AAr?$AA?9?$AAc?$AAh@ 1002e9ac     libucrt:lcidtoname_downlevel.obj
 0002:000069b8       ??_C@_1M@MMBBFGAK@?$AAf?$AAr?$AA?9?$AAf?$AAr@ 1002e9b8     libucrt:lcidtoname_downlevel.obj
 0002:000069c4       ??_C@_1M@PAFNENNF@?$AAf?$AAr?$AA?9?$AAl?$AAu@ 1002e9c4     libucrt:lcidtoname_downlevel.obj
 0002:000069d0       ??_C@_1M@EOHDJGDD@?$AAf?$AAr?$AA?9?$AAm?$AAc@ 1002e9d0     libucrt:lcidtoname_downlevel.obj
 0002:000069dc       ??_C@_1M@FAPLLOPF@?$AAg?$AAl?$AA?9?$AAe?$AAs@ 1002e9dc     libucrt:lcidtoname_downlevel.obj
 0002:000069e8       ??_C@_1M@FOPBFLOO@?$AAg?$AAu?$AA?9?$AAi?$AAn@ 1002e9e8     libucrt:lcidtoname_downlevel.obj
 0002:000069f4       ??_C@_1M@KBMCINPM@?$AAh?$AAe?$AA?9?$AAi?$AAl@ 1002e9f4     libucrt:lcidtoname_downlevel.obj
 0002:00006a00       ??_C@_1M@BBPHKFPJ@?$AAh?$AAi?$AA?9?$AAi?$AAn@ 1002ea00     libucrt:lcidtoname_downlevel.obj
 0002:00006a0c       ??_C@_1M@PMBNDPHD@?$AAh?$AAr?$AA?9?$AAb?$AAa@ 1002ea0c     libucrt:lcidtoname_downlevel.obj
 0002:00006a18       ??_C@_1M@BPCKOEGE@?$AAh?$AAr?$AA?9?$AAh?$AAr@ 1002ea18     libucrt:lcidtoname_downlevel.obj
 0002:00006a24       ??_C@_1M@GACBMHKE@?$AAh?$AAu?$AA?9?$AAh?$AAu@ 1002ea24     libucrt:lcidtoname_downlevel.obj
 0002:00006a30       ??_C@_1M@MILPAJJC@?$AAh?$AAy?$AA?9?$AAa?$AAm@ 1002ea30     libucrt:lcidtoname_downlevel.obj
 0002:00006a3c       ??_C@_1M@BABBICEC@?$AAi?$AAd?$AA?9?$AAi?$AAd@ 1002ea3c     libucrt:lcidtoname_downlevel.obj
 0002:00006a48       ??_C@_1M@BIKNHHPF@?$AAi?$AAs?$AA?9?$AAi?$AAs@ 1002ea48     libucrt:lcidtoname_downlevel.obj
 0002:00006a54       ??_C@_1M@NMPCJPHE@?$AAi?$AAt?$AA?9?$AAc?$AAh@ 1002ea54     libucrt:lcidtoname_downlevel.obj
 0002:00006a60       ??_C@_1M@GHKGFEDF@?$AAi?$AAt?$AA?9?$AAi?$AAt@ 1002ea60     libucrt:lcidtoname_downlevel.obj
 0002:00006a6c       ??_C@_1M@NIEJCJJA@?$AAj?$AAa?$AA?9?$AAj?$AAp@ 1002ea6c     libucrt:lcidtoname_downlevel.obj
 0002:00006a78       ??_C@_1M@JILFNBIM@?$AAk?$AAa?$AA?9?$AAg?$AAe@ 1002ea78     libucrt:lcidtoname_downlevel.obj
 0002:00006a84       ??_C@_1M@PACPMGPH@?$AAk?$AAk?$AA?9?$AAk?$AAz@ 1002ea84     libucrt:lcidtoname_downlevel.obj
 0002:00006a90       ??_C@_1M@IELFGMHA@?$AAk?$AAn?$AA?9?$AAi?$AAn@ 1002ea90     libucrt:lcidtoname_downlevel.obj
 0002:00006a9c       ??_C@_1O@IBBJHCH@?$AAk?$AAo?$AAk?$AA?9?$AAi?$AAn@ 1002ea9c     libucrt:lcidtoname_downlevel.obj
 0002:00006aac       ??_C@_1M@DMHAEOGC@?$AAk?$AAo?$AA?9?$AAk?$AAr@ 1002eaac     libucrt:lcidtoname_downlevel.obj
 0002:00006ab8       ??_C@_1M@HBAHBIGA@?$AAk?$AAy?$AA?9?$AAk?$AAg@ 1002eab8     libucrt:lcidtoname_downlevel.obj
 0002:00006ac4       ??_C@_1M@KPMILCJG@?$AAl?$AAt?$AA?9?$AAl?$AAt@ 1002eac4     libucrt:lcidtoname_downlevel.obj
 0002:00006ad0       ??_C@_1M@BDEKKCA@?$AAl?$AAv?$AA?9?$AAl?$AAv@ 1002ead0     libucrt:lcidtoname_downlevel.obj
 0002:00006adc       ??_C@_1M@ELCKCCJJ@?$AAm?$AAi?$AA?9?$AAn?$AAz@ 1002eadc     libucrt:lcidtoname_downlevel.obj
 0002:00006ae8       ??_C@_1M@CBOOLAPA@?$AAm?$AAk?$AA?9?$AAm?$AAk@ 1002eae8     libucrt:lcidtoname_downlevel.obj
 0002:00006af4       ??_C@_1M@GPHNBJKN@?$AAm?$AAl?$AA?9?$AAi?$AAn@ 1002eaf4     libucrt:lcidtoname_downlevel.obj
 0002:00006b00       ??_C@_1M@PABJILIG@?$AAm?$AAn?$AA?9?$AAm?$AAn@ 1002eb00     libucrt:lcidtoname_downlevel.obj
 0002:00006b0c       ??_C@_1M@FGBKKIPG@?$AAm?$AAr?$AA?9?$AAi?$AAn@ 1002eb0c     libucrt:lcidtoname_downlevel.obj
 0002:00006b18       ??_C@_1M@NDBPDDAL@?$AAm?$AAs?$AA?9?$AAb?$AAn@ 1002eb18     libucrt:lcidtoname_downlevel.obj
 0002:00006b24       ??_C@_1M@OPIHOOPI@?$AAm?$AAs?$AA?9?$AAm?$AAy@ 1002eb24     libucrt:lcidtoname_downlevel.obj
 0002:00006b30       ??_C@_1M@PPDBCNFM@?$AAm?$AAt?$AA?9?$AAm?$AAt@ 1002eb30     libucrt:lcidtoname_downlevel.obj
 0002:00006b3c       ??_C@_1M@KDJDKMDD@?$AAn?$AAb?$AA?9?$AAn?$AAo@ 1002eb3c     libucrt:lcidtoname_downlevel.obj
 0002:00006b48       ??_C@_1M@KFCFLMJP@?$AAn?$AAl?$AA?9?$AAb?$AAe@ 1002eb48     libucrt:lcidtoname_downlevel.obj
 0002:00006b54       ??_C@_1M@KPOPDDGO@?$AAn?$AAl?$AA?9?$AAn?$AAl@ 1002eb54     libucrt:lcidtoname_downlevel.obj
 0002:00006b60       ??_C@_1M@LJKPEMLN@?$AAn?$AAn?$AA?9?$AAn?$AAo@ 1002eb60     libucrt:lcidtoname_downlevel.obj
 0002:00006b6c       ??_C@_1M@BDGHHBFL@?$AAn?$AAs?$AA?9?$AAz?$AAa@ 1002eb6c     libucrt:lcidtoname_downlevel.obj
 0002:00006b78       ??_C@_1M@IDEHOAP@?$AAp?$AAa?$AA?9?$AAi?$AAn@ 1002eb78     libucrt:lcidtoname_downlevel.obj
 0002:00006b84       ??_C@_1M@HDBKGOGH@?$AAp?$AAl?$AA?9?$AAp?$AAl@ 1002eb84     libucrt:lcidtoname_downlevel.obj
 0002:00006b90       ??_C@_1M@LJLLCMEH@?$AAp?$AAt?$AA?9?$AAb?$AAr@ 1002eb90     libucrt:lcidtoname_downlevel.obj
 0002:00006b9c       ??_C@_1M@NCMONAAL@?$AAp?$AAt?$AA?9?$AAp?$AAt@ 1002eb9c     libucrt:lcidtoname_downlevel.obj
 0002:00006ba8       ??_C@_1O@EAKMAJDN@?$AAq?$AAu?$AAz?$AA?9?$AAb?$AAo@ 1002eba8     libucrt:lcidtoname_downlevel.obj
 0002:00006bb8       ??_C@_1O@BHHPIGDN@?$AAq?$AAu?$AAz?$AA?9?$AAe?$AAc@ 1002ebb8     libucrt:lcidtoname_downlevel.obj
 0002:00006bc8       ??_C@_1O@GBAPEKMJ@?$AAq?$AAu?$AAz?$AA?9?$AAp?$AAe@ 1002ebc8     libucrt:lcidtoname_downlevel.obj
 0002:00006bd8       ??_C@_1M@CLGLEFBO@?$AAr?$AAo?$AA?9?$AAr?$AAo@ 1002ebd8     libucrt:lcidtoname_downlevel.obj
 0002:00006be4       ??_C@_1M@CEEDODME@?$AAr?$AAu?$AA?9?$AAr?$AAu@ 1002ebe4     libucrt:lcidtoname_downlevel.obj
 0002:00006bf0       ??_C@_1M@HPKKKMPP@?$AAs?$AAa?$AA?9?$AAi?$AAn@ 1002ebf0     libucrt:lcidtoname_downlevel.obj
 0002:00006bfc       ??_C@_1M@BKMAIGOJ@?$AAs?$AAe?$AA?9?$AAf?$AAi@ 1002ebfc     libucrt:lcidtoname_downlevel.obj
 0002:00006c08       ??_C@_1M@NDPIFLFI@?$AAs?$AAe?$AA?9?$AAn?$AAo@ 1002ec08     libucrt:lcidtoname_downlevel.obj
 0002:00006c14       ??_C@_1M@DANKKHJ@?$AAs?$AAe?$AA?9?$AAs?$AAe@ 1002ec14     libucrt:lcidtoname_downlevel.obj
 0002:00006c20       ??_C@_1M@PNBLONPJ@?$AAs?$AAk?$AA?9?$AAs?$AAk@ 1002ec20     libucrt:lcidtoname_downlevel.obj
 0002:00006c2c       ??_C@_1M@LFMODOAL@?$AAs?$AAl?$AA?9?$AAs?$AAi@ 1002ec2c     libucrt:lcidtoname_downlevel.obj
 0002:00006c38       ??_C@_1O@DFKOMPG@?$AAs?$AAm?$AAa?$AA?9?$AAn?$AAo@ 1002ec38     libucrt:lcidtoname_downlevel.obj
 0002:00006c48       ??_C@_1O@NDKPBNNH@?$AAs?$AAm?$AAa?$AA?9?$AAs?$AAe@ 1002ec48     libucrt:lcidtoname_downlevel.obj
 0002:00006c58       ??_C@_1O@PLLKBHAB@?$AAs?$AAm?$AAj?$AA?9?$AAn?$AAo@ 1002ec58     libucrt:lcidtoname_downlevel.obj
 0002:00006c68       ??_C@_1O@CLEPOGCA@?$AAs?$AAm?$AAj?$AA?9?$AAs?$AAe@ 1002ec68     libucrt:lcidtoname_downlevel.obj
 0002:00006c78       ??_C@_1O@DLGJGKMK@?$AAs?$AAm?$AAn?$AA?9?$AAf?$AAi@ 1002ec78     libucrt:lcidtoname_downlevel.obj
 0002:00006c88       ??_C@_1O@OJDJGAJC@?$AAs?$AAm?$AAs?$AA?9?$AAf?$AAi@ 1002ec88     libucrt:lcidtoname_downlevel.obj
 0002:00006c98       ??_C@_1M@BOFOGHPB@?$AAs?$AAq?$AA?9?$AAa?$AAl@ 1002ec98     libucrt:lcidtoname_downlevel.obj
 0002:00006ca4       ??_C@_1BG@LJBBIPGB@?$AAs?$AAr?$AA?9?$AAb?$AAa?$AA?9?$AAc?$AAy?$AAr?$AAl@ 1002eca4     libucrt:lcidtoname_downlevel.obj
 0002:00006cbc       ??_C@_1BG@JLBENFOE@?$AAs?$AAr?$AA?9?$AAb?$AAa?$AA?9?$AAl?$AAa?$AAt?$AAn@ 1002ecbc     libucrt:lcidtoname_downlevel.obj
 0002:00006cd4       ??_C@_1BG@KODPNHE@?$AAs?$AAr?$AA?9?$AAs?$AAp?$AA?9?$AAc?$AAy?$AAr?$AAl@ 1002ecd4     libucrt:lcidtoname_downlevel.obj
 0002:00006cec       ??_C@_1BG@CIOGKHPB@?$AAs?$AAr?$AA?9?$AAs?$AAp?$AA?9?$AAl?$AAa?$AAt?$AAn@ 1002ecec     libucrt:lcidtoname_downlevel.obj
 0002:00006d04       ??_C@_1M@NGFJLMAC@?$AAs?$AAv?$AA?9?$AAf?$AAi@ 1002ed04     libucrt:lcidtoname_downlevel.obj
 0002:00006d10       ??_C@_1M@MPJEJAJC@?$AAs?$AAv?$AA?9?$AAs?$AAe@ 1002ed10     libucrt:lcidtoname_downlevel.obj
 0002:00006d1c       ??_C@_1M@MPNDHLFK@?$AAs?$AAw?$AA?9?$AAk?$AAe@ 1002ed1c     libucrt:lcidtoname_downlevel.obj
 0002:00006d28       ??_C@_1O@KOHBJJI@?$AAs?$AAy?$AAr?$AA?9?$AAs?$AAy@ 1002ed28     libucrt:lcidtoname_downlevel.obj
 0002:00006d38       ??_C@_1M@LDCEFHA@?$AAt?$AAa?$AA?9?$AAi?$AAn@ 1002ed38     libucrt:lcidtoname_downlevel.obj
 0002:00006d44       ??_C@_1M@CNJOFAK@?$AAt?$AAe?$AA?9?$AAi?$AAn@ 1002ed44     libucrt:lcidtoname_downlevel.obj
 0002:00006d50       ??_C@_1M@GNAECACD@?$AAt?$AAh?$AA?9?$AAt?$AAh@ 1002ed50     libucrt:lcidtoname_downlevel.obj
 0002:00006d5c       ??_C@_1M@CHBIHOJO@?$AAt?$AAn?$AA?9?$AAz?$AAa@ 1002ed5c     libucrt:lcidtoname_downlevel.obj
 0002:00006d68       ??_C@_1M@GCCMIGPJ@?$AAt?$AAr?$AA?9?$AAt?$AAr@ 1002ed68     libucrt:lcidtoname_downlevel.obj
 0002:00006d74       ??_C@_1M@CELMCNBK@?$AAt?$AAt?$AA?9?$AAr?$AAu@ 1002ed74     libucrt:lcidtoname_downlevel.obj
 0002:00006d80       ??_C@_1M@KLMCELGA@?$AAu?$AAk?$AA?9?$AAu?$AAa@ 1002ed80     libucrt:lcidtoname_downlevel.obj
 0002:00006d8c       ??_C@_1M@EPAJJAJF@?$AAu?$AAr?$AA?9?$AAp?$AAk@ 1002ed8c     libucrt:lcidtoname_downlevel.obj
 0002:00006d98       ??_C@_1BG@GEGPMCDJ@?$AAu?$AAz?$AA?9?$AAu?$AAz?$AA?9?$AAc?$AAy?$AAr?$AAl@ 1002ed98     libucrt:lcidtoname_downlevel.obj
 0002:00006db0       ??_C@_1BG@EGGKJILM@?$AAu?$AAz?$AA?9?$AAu?$AAz?$AA?9?$AAl?$AAa?$AAt?$AAn@ 1002edb0     libucrt:lcidtoname_downlevel.obj
 0002:00006dc8       ??_C@_1M@GFOCLFF@?$AAv?$AAi?$AA?9?$AAv?$AAn@ 1002edc8     libucrt:lcidtoname_downlevel.obj
 0002:00006dd4       ??_C@_1M@CPAMEDFI@?$AAx?$AAh?$AA?9?$AAz?$AAa@ 1002edd4     libucrt:lcidtoname_downlevel.obj
 0002:00006de0       ??_C@_1O@EBKIFIGN@?$AAz?$AAh?$AA?9?$AAc?$AAh?$AAs@ 1002ede0     libucrt:lcidtoname_downlevel.obj
 0002:00006df0       ??_C@_1O@NMHPGANE@?$AAz?$AAh?$AA?9?$AAc?$AAh?$AAt@ 1002edf0     libucrt:lcidtoname_downlevel.obj
 0002:00006e00       ??_C@_1M@LPINJOMC@?$AAz?$AAh?$AA?9?$AAc?$AAn@ 1002ee00     libucrt:lcidtoname_downlevel.obj
 0002:00006e0c       ??_C@_1M@OCJEJODD@?$AAz?$AAh?$AA?9?$AAh?$AAk@ 1002ee0c     libucrt:lcidtoname_downlevel.obj
 0002:00006e18       ??_C@_1M@DNDLJINH@?$AAz?$AAh?$AA?9?$AAm?$AAo@ 1002ee18     libucrt:lcidtoname_downlevel.obj
 0002:00006e24       ??_C@_1M@MBFDNDND@?$AAz?$AAh?$AA?9?$AAs?$AAg@ 1002ee24     libucrt:lcidtoname_downlevel.obj
 0002:00006e30       ??_C@_1M@IMEPLEPE@?$AAz?$AAh?$AA?9?$AAt?$AAw@ 1002ee30     libucrt:lcidtoname_downlevel.obj
 0002:00006e3c       ??_C@_1M@BBGHNHJP@?$AAz?$AAu?$AA?9?$AAz?$AAa@ 1002ee3c     libucrt:lcidtoname_downlevel.obj
 0002:00006fc0       __infinity                 1002efc0     libucrt:87tran.obj
 0002:00006fca       __minfinity                1002efca     libucrt:87tran.obj
 0002:00006fd4       __logemax                  1002efd4     libucrt:87tran.obj
 0002:00006ffa       __OP_EXPjmptab             1002effa     libucrt:87tran.obj
 0002:00007020       __indefinite               1002f020     libucrt:87disp.obj
 0002:0000702a       __piby2                    1002f02a     libucrt:87disp.obj
 0002:00007034       __piby4                    1002f034     libucrt:87disp.obj
 0002:00007068       __DEFAULT_CW_in_mem        1002f068     libucrt:common.obj
 0002:0000706a       __pi_by_2_to_61            1002f06a     libucrt:common.obj
 0002:000070a4       ??_C@_03MGHMBJCF@log@      1002f0a4     libucrt:libm_error.obj
 0002:000070a8       ??_C@_05HGHHAHAP@log10@    1002f0a8     libucrt:libm_error.obj
 0002:000070b0       ??_C@_03KHJOGHMM@exp@      1002f0b0     libucrt:libm_error.obj
 0002:000070b4       ??_C@_03JGHBODFD@pow@      1002f0b4     libucrt:libm_error.obj
 0002:000070b8       ??_C@_04FIHNOPOL@asin@     1002f0b8     libucrt:libm_error.obj
 0002:000070c0       ??_C@_04PDIFKINK@acos@     1002f0c0     libucrt:libm_error.obj
 0002:000070c8       ??_C@_04EIAKFFMI@sqrt@     1002f0c8     libucrt:libm_error.obj
 0002:000070d0       ??_C@_1BA@BALFACEM@?$AAC?$AAO?$AAN?$AAO?$AAU?$AAT?$AA$@ 1002f0d0     libucrt:initcon.obj
 0002:00007100       ___acrt_log10_table_t      1002f100     libucrt:log10_tables.obj
 0002:00007510       ___acrt_log10_table_cb     1002f510     libucrt:log10_tables.obj
 0002:00007920       __real@3fe0000000000000    1002f920     libucrt:powhlp.obj
 0002:00007a10       ??_C@_04COOMCNPB@sinh@     1002fa10     libucrt:fpexcept.obj
 0002:00007a18       ??_C@_04HPJJNFIM@cosh@     1002fa18     libucrt:fpexcept.obj
 0002:00007a20       ??_C@_04FJHINJAO@tanh@     1002fa20     libucrt:fpexcept.obj
 0002:00007a28       ??_C@_04MLLJIGOK@atan@     1002fa28     libucrt:fpexcept.obj
 0002:00007a30       ??_C@_05KNGEOGJB@atan2@    1002fa30     libucrt:fpexcept.obj
 0002:00007a38       ??_C@_03BLEJJJBH@sin@      1002fa38     libucrt:fpexcept.obj
 0002:00007a3c       ??_C@_03LALBNOCG@cos@      1002fa3c     libucrt:fpexcept.obj
 0002:00007a40       ??_C@_03IIINPABG@tan@      1002fa40     libucrt:fpexcept.obj
 0002:00007a44       ??_C@_04GFPJNGEK@ceil@     1002fa44     libucrt:fpexcept.obj
 0002:00007a4c       ??_C@_05PBJFFIGL@floor@    1002fa4c     libucrt:fpexcept.obj
 0002:00007a54       ??_C@_04ODHECPBC@fabs@     1002fa54     libucrt:fpexcept.obj
 0002:00007a5c       ??_C@_04EHEDPDJG@modf@     1002fa5c     libucrt:fpexcept.obj
 0002:00007a64       ??_C@_05CEJMAHNP@ldexp@    1002fa64     libucrt:fpexcept.obj
 0002:00007a6c       ??_C@_05KBKMEMPO@_cabs@    1002fa6c     libucrt:fpexcept.obj
 0002:00007a74       ??_C@_06MEIMCGCF@_hypot@   1002fa74     libucrt:fpexcept.obj
 0002:00007a7c       ??_C@_04KEPJIHGP@fmod@     1002fa7c     libucrt:fpexcept.obj
 0002:00007a84       ??_C@_05GKKHEGJL@frexp@    1002fa84     libucrt:fpexcept.obj
 0002:00007a8c       ??_C@_03MJLDFKDL@_y0@      1002fa8c     libucrt:fpexcept.obj
 0002:00007a90       ??_C@_03NAKIGLHK@_y1@      1002fa90     libucrt:fpexcept.obj
 0002:00007a94       ??_C@_03ONILCKOB@_yn@      1002fa94     libucrt:fpexcept.obj
 0002:00007a98       ??_C@_05JGDBENOH@_logb@    1002fa98     libucrt:fpexcept.obj
 0002:00007aa0       ??_C@_0L@KDOEJCKC@_nextafter@ 1002faa0     libucrt:fpexcept.obj
 0002:00007ab0       __d_inf                    1002fab0     libucrt:util.obj
 0002:00007ab8       __d_max                    1002fab8     libucrt:util.obj
 0002:00007ac0       __d_mzero                  1002fac0     libucrt:util.obj
 0002:00007ae0       __load_config_used         1002fae0     LIBCMT:loadcfg.obj
 0002:00007c40       ??_R4exception@std@@6B@    1002fc40     dllmain.obj
 0002:00007c54       ??_R3exception@std@@8      1002fc54     dllmain.obj
 0002:00007c64       ??_R2exception@std@@8      1002fc64     dllmain.obj
 0002:00007c6c       ??_R1A@?0A@EA@exception@std@@8 1002fc6c     dllmain.obj
 0002:00007c88       ??_R4type_info@@6B@        1002fc88     LIBCMT:std_type_info_static.obj
 0002:00007c9c       ??_R3type_info@@8          1002fc9c     LIBCMT:std_type_info_static.obj
 0002:00007cac       ??_R2type_info@@8          1002fcac     LIBCMT:std_type_info_static.obj
 0002:00007cb4       ??_R1A@?0A@EA@type_info@@8 1002fcb4     LIBCMT:std_type_info_static.obj
 0002:00007cd0       ??_R4bad_exception@std@@6B@ 1002fcd0     libvcruntime:frame.obj
 0002:00007ce4       ??_R3bad_exception@std@@8  1002fce4     libvcruntime:frame.obj
 0002:00007cf4       ??_R2bad_exception@std@@8  1002fcf4     libvcruntime:frame.obj
 0002:00007d00       ??_R1A@?0A@EA@bad_exception@std@@8 1002fd00     libvcruntime:frame.obj
 0002:00007d1c       ___safe_se_handler_table   1002fd1c     <linker-defined>
 0002:00007d44       ___volatile_metadata       1002fd44     <linker-defined>
 0002:000081a8       ___rtc_iaa                 100301a8     LIBCMT:initsect.obj
 0002:000081ac       ___rtc_izz                 100301ac     LIBCMT:initsect.obj
 0002:000081b0       ___rtc_taa                 100301b0     LIBCMT:initsect.obj
 0002:000081b4       ___rtc_tzz                 100301b4     LIBCMT:initsect.obj
 0002:000081b8       __CT??_R0?AVexception@std@@@8??0exception@std@@QAE@ABV01@@Z12 100301b8     dllmain.obj
 0002:00008364       __TI2?AVbad_exception@std@@ 10030364     libvcruntime:frame.obj
 0002:00008374       __CTA2?AVbad_exception@std@@ 10030374     libvcruntime:frame.obj
 0002:00008380       __CT??_R0?AVbad_exception@std@@@8??0bad_exception@std@@QAE@ABV01@@Z12 10030380     libvcruntime:frame.obj
 0002:00008a40       __IMPORT_DESCRIPTOR_KERNEL32 10030a40     kernel32:KERNEL32.dll
 0002:00008a54       __IMPORT_DESCRIPTOR_USER32 10030a54     user32:USER32.dll
 0002:00008a68       __NULL_IMPORT_DESCRIPTOR   10030a68     kernel32:KERNEL32.dll
 0003:00000000       ?HasArtifact@@3P6EHPAXH@ZA 10032000     heroes.obj
 0003:00000004       ?HasArtifactInBackpack@@3P6EHPAXH@ZA 10032004     heroes.obj
 0003:00000008       ?HasCreature@@3P6EHPAXH@ZA 10032008     heroes.obj
 0003:0000000c       ?ShowGrailMap@@3P6EHPAX@ZA 1003200c     heroes.obj
 0003:00000010       ?ShowThiefGuild@@3P6EHPAXH@ZA 10032010     heroes.obj
 0003:00000014       ?RandArtGenerator@@3P6EHHH@ZA 10032014     heroes.obj
 0003:00000018       ?sub_5A43E0@@3P6EDPAXHHHHH@ZA 10032018     heroes.obj
 0003:0000001c       ?CastBattleSpell@@3P6EHPAXHHIHHH@ZA 1003201c     heroes.obj
 0003:00000020       ?SummonCreature@@3P6EHPAXHHHH@ZA 10032020     heroes.obj
 0003:00000024       ?ShowMSG@@3P6IHPBDHHHHHHHHHHH@ZA 10032024     heroes.obj
 0003:00000028       ?CallERM@@3P6AXH@ZA        10032028     heroes.obj
 0003:0000002c       ?hprintf@@3P6AXHPADZZA     1003202c     heroes.obj
 0003:00000030       ?_alldiv__nonpatched@@3P6GH_JIH@ZA 10032030     BugFix.obj
 0003:00000038       ?__dummy_ptr@@3HA          10032038     core.obj
 0003:0000003c       ?FindDefOrMskInAllLods@@3P6IPAXPBD@ZA 1003203c     core.obj
 0003:00000040       ?experience_0x0085EB54_table@@3PADA 10032040     core.obj
 0003:00000044       ?experience_0x0085EB58_table@@3PADA 10032044     core.obj
 0003:00000048       ?experience_0x0085EB5C_table@@3PADA 10032048     core.obj
 0003:0000004c       ?experience_0x0085EB60_table@@3PADA 1003204c     core.obj
 0003:00000050       ?i_ExistingMonstr@@3HA     10032050     core.obj
 0003:00000054       ?p_AddressOfPatchAtack@@3PAHA 10032054     core.obj
 0003:00000058       ?p_AddressOfPatchStrMonstr@@3PAHA 10032058     core.obj
 0003:000000ac       ?p_AddressOfPatchCrAnim@@3PAHA 100320ac     core.obj
 0003:000000b4       ?p_AddressOfPatchDefend@@3PAHA 100320b4     core.obj
 0003:000000b8       ?p_AddressOfPatchOption@@3PAHA 100320b8     core.obj
 0003:000000bc       ?dummydef@@3PBDB           100320bc     core.obj
 0003:000000c0       ?p_AddressOfERMLimit@@3PAHA 100320c0     core.obj
 0003:000003e0       ?p_AddressOfERMLimit2@@3PAHA 100323e0     core.obj
 0003:000003f0       ?p_AddressOfERM@@3PAHA     100323f0     core.obj
 0003:00000658       ?i_OffERM@@3PAHA           10032658     core.obj
 0003:000008c0       ?p_AddressOfNames@@3PAHA   100328c0     core.obj
 0003:000008e4       ?p_AddressOfPlNames@@3PAHA 100328e4     core.obj
 0003:00000910       ?p_AddressOfDesc@@3PAHA    10032910     core.obj
 0003:00000934       ?p_Experience_0x00847f08_Table@@3PAHA 10032934     core.obj
 0003:00000954       ?dummysnd@@3PBDB           10032954     core.obj
 0003:00000958       ?p_CURMON_table@@3PAHA     10032958     core.obj
 0003:000009b4       ?p_experience_0x0085EB50_table@@3PAHA 100329b4     core.obj
 0003:000009cc       ?p_experience_0x0085EB54_table@@3PAHA 100329cc     core.obj
 0003:000009d4       ?p_experience_0x0085EB58_table@@3PAHA 100329d4     core.obj
 0003:000009e0       ?p_experience_0x0085EB5C_table@@3PAHA 100329e0     core.obj
 0003:000009e8       ?p_experience_0x0085EB60_table@@3PAHA 100329e8     core.obj
 0003:000009f0       ?LoadCrTraitsRow_lastmon@@3HA 100329f0     core.obj
 0003:000009f4       ?LoadDef@@3P6IHPAD@ZA      100329f4     core.obj
 0003:000009f8       ?SearchFileFromLod@@3P6IEPAXHPAD@ZA 100329f8     core.obj
 0003:00000a00       ?replace_CrState@@3PAUreplace_dword@@A 10032a00     core.obj
 0003:00000b2c       ?v@Era@@3PAHA              10032b2c     dllmain.obj
 0003:00000b30       ?z@Era@@3PAY0CAA@DA        10032b30     dllmain.obj
 0003:00000b34       ?y@Era@@3PAHA              10032b34     dllmain.obj
 0003:00000b38       ?x@Era@@3PAHA              10032b38     dllmain.obj
 0003:00000b3c       ?f@Era@@3PA_NA             10032b3c     dllmain.obj
 0003:00000b40       ?e@Era@@3PAMA              10032b40     dllmain.obj
 0003:00000b44       ?CurrentPlayer@@3PBKB      10032b44     dllmain.obj
 0003:00000b48       ?Hook_0x00705450_error_message@@3PADA 10032b48     dllmain.obj
 0003:00000b4c       ?Hook_0x00705450_BUMP_message@@3PADA 10032b4c     dllmain.obj
 0003:00000b50       ?CRExpBon__BFBody@@3HA     10032b50     majaczek.obj
 0003:00000b54       ?CRExpBon__Cur@@3HA        10032b54     majaczek.obj
 0003:00000b58       ?CRExpBon__Body@@3HA       10032b58     majaczek.obj
 0003:00000b5c       ?CRExpBon__Dummy@@3HA      10032b5c     majaczek.obj
 0003:00000b60       ?CrExpMod__BFBody@@3HA     10032b60     majaczek.obj
 0003:00000b64       ?CrExpMod__Body@@3HA       10032b64     majaczek.obj
 0003:00000b68       ?CrExpMod__Cur@@3HA        10032b68     majaczek.obj
 0003:00000b6c       ?CrExpMod__Dummy@@3HA      10032b6c     majaczek.obj
 0003:00000b70       ?CrExpoSet__Body@@3HA      10032b70     majaczek.obj
 0003:00000b74       ?LoadExpTXT__ptr@@3HA      10032b74     majaczek.obj
 0003:00000b78       ?CrExpoSet__Clear__ptr@@3HA 10032b78     majaczek.obj
 0003:00000b7c       ?CrExpMod__Clear__ptr@@3HA 10032b7c     majaczek.obj
 0003:00000b80       ?CrExpBon__Clear__ptr@@3HA 10032b80     majaczek.obj
 0003:00000b84       ?H3ERA__Base__ptr@@3HA     10032b84     majaczek.obj
 0003:00000b88       ?H3ERA__Entry__ptr@@3HA    10032b88     majaczek.obj
 0003:00000b8c       ?CrExpBonFileLoaded__ptr@@3HA 10032b8c     majaczek.obj
 0003:00000b90       ?UnloadTxtFun__ptr@@3HA    10032b90     majaczek.obj
 0003:00000b94       ?LoadTxtFun__ptr@@3HA      10032b94     majaczek.obj
 0003:00000b98       ?M2B_BFPos@@3PAY0BO@HA     10032b98     Summon.obj
 0003:000010c0       ?DalionType@@3HA           100330c0     Summon.obj
 0003:000010c4       ?MakeSGGuards@@3P6GXPAE0H@ZA 100330c4     Summon.obj
 0003:000010f8       ?ImposedSpells_ptr@@3PADA  100330f8     tables.obj
 0003:000010fc       ?spell_1_table_ptr@@3HA    100330fc     tables.obj
 0003:00001100       ?spell_2_table_ptr@@3HA    10033100     tables.obj
 0003:00001104       ?spell_3_table_ptr@@3HA    10033104     tables.obj
 0003:00001108       ?WoG_CastSpell@@3P6AXHHHHH@ZA 10033108     tables.obj
 0003:0000110c       ?BattleHex_GetMonAtBFPosition@@3JA 1003310c     tables.obj
 0003:00001110       ?only_infernals_can_be_gated@@3PADA 10033110     tables.obj
 0003:00001310       ?only_Machines_can_be_repaired@@3PADA 10033310     tables.obj
 0003:00001510       ?only_Undead_can_be_raised@@3PADA 10033510     tables.obj
 0003:00001710       ?BattleMgr_CreatureMagicResist@@3JA 10033710     tables.obj
 0003:00001714       ?BattleStack_GetSecondOccupedGexNum@@3JA 10033714     tables.obj
 0003:00001718       ?CanCastSpellAtCoord@@3JA  10033718     tables.obj
 0003:0000171c       ?BattleMgr_Play_MagicAnimation_onGEX@@3JA 1003371c     tables.obj
 0003:00001720       ?BattleMgr_CastSpell@@3JA  10033720     tables.obj
 0003:00001724       ?BattleMgr_ResurectArchangel@@3JA 10033724     tables.obj
 0003:00001728       ?Battle_Stack_Get_Resurrect_Count@@3JA 10033728     tables.obj
 0003:0000172c       ?BattleMgr_CanCast@@3JA    1003372c     tables.obj
 0003:00001730       ?zzz_0x27F996C@@3JA        10033730     tables.obj
 0003:00001734       ?zzz_0x887658@@3JA         10033734     tables.obj
 0003:00001738       ?zzz_F9964h@@3JA           10033738     tables.obj
 0003:0000173c       ?zzz_27F996Ch@@3JA         1003373c     tables.obj
 0003:00001740       ?zzz_27F9964h@@3JA         10033740     tables.obj
 0003:00001744       ?zzz_0x767f85@@3JA         10033744     tables.obj
 0003:00001748       ?h3era_Hero_HasArt@@3JA    10033748     tables.obj
 0003:0000174c       ?PlusLuckEngText@@3PADA    1003374c     tables.obj
 0003:00001750       ?lab_2846BC8@@3HA          10033750     tables.obj
 0003:00001754       ?ret_004482DC@@3HA         10033754     tables.obj
 0003:00001758       ?lab_5A0145@@3HA           10033758     tables.obj
 0003:0000175c       ?MakeSGGuards@@3HA         1003375c     tables.obj
 0003:00001760       ?PH_MonA@@3HA              10033760     tables.obj
 0003:00001764       ?PH_MonD@@3HA              10033764     tables.obj
 0003:00001768       ?_PersonalHate@@3HA        10033768     tables.obj
 0003:0000176c       ?default_elementals@@3PAJA 1003376c     tables.obj
 0003:0000177c       ?h3era_4E4950@@3JA         1003377c     tables.obj
 0003:00001780       ?spell_1_jumptable@@3PAKA  10033780     tables.obj
 0003:00001b80       ?spell_2_jumptable@@3PAKA  10033b80     tables.obj
 0003:00001f80       ?spell_3_jumptable@@3PAKA  10033f80     tables.obj
 0003:00002380       ?resistance_jumptable@@3PAKA 10034380     tables.obj
 0003:00002780       ?vulnerability_jumptable@@3PAKA 10034780     tables.obj
 0003:00002b80       ?missing_string@@3PADA     10034b80     tables.obj
 0003:00002d88       ?asm_patched@@3PAUreplace_byte@@A 10034d88     __assembly__.obj
 0003:00003080       ___security_cookie         10035080     LIBCMT:gs_cookie.obj
 0003:000030c0       ___security_cookie_complement 100350c0     LIBCMT:gs_cookie.obj
 0003:000030c4       __fltused                  100350c4     LIBCMT:fltused.obj
 0003:000030c8       ___scrt_native_dllmain_reason 100350c8     LIBCMT:utility.obj
 0003:000030d0       ___isa_inverted            100350d0     LIBCMT:cpu_disp.obj
 0003:000030d8       ___isa_enabled             100350d8     LIBCMT:cpu_disp.obj
 0003:000030f0       __NLG_Destination          100350f0     libvcruntime:exsup.obj
 0003:00003100       ___abort_behavior          10035100     libucrt:abort.obj
 0003:00003118       __iob                      10035118     libucrt:_file.obj
 0003:000031c8       ___acrt_initial_locale_data 100351c8     libucrt:nlsdata.obj
 0003:00003280       ___acrt_initial_locale_pointers 10035280     libucrt:nlsdata.obj
 0003:00003288       ___acrt_wide_c_locale_string 10035288     libucrt:nlsdata.obj
 0003:00003290       ___badioinfo               10035290     libucrt:ioinit.obj
 0003:000032c8       __lookuptrailbytes         100352c8     libucrt:read.obj
 0003:000033c8       ___acrt_initial_multibyte_data 100353c8     libucrt:mbctype.obj
 0003:000038e8       ___globallocalestatus      100358e8     libucrt:glstatus.obj
 0003:000038f0       ___acrt_lconv_c            100358f0     libucrt:localeconv.obj
 0003:00003940       ___acrt_lconv_static_decimal 10035940     libucrt:localeconv.obj
 0003:00003944       ___acrt_lconv_static_W_decimal 10035944     libucrt:localeconv.obj
 0003:00003960       ??_R0?AVexception@std@@@8  10035960     dllmain.obj
 0003:0000397c       ??_R0?AVbad_exception@std@@@8 1003597c     libvcruntime:frame.obj
 0003:0000399c       ??_R0?AVtype_info@@@8      1003599c     LIBCMT:std_type_info_static.obj
 0003:000039b8       ?CrState@@3PAU_CrState_@@A 100359b8     core.obj
 0003:0001c9b8       ?__dummy_int@@3HA          1004e9b8     core.obj
 0003:0001c9bc       ?tmp_missle_ret@@3HA       1004e9bc     core.obj
 0003:0001c9c0       ?new_monsters_back@@3PAUMONSTER_PROP@@A 1004e9c0     core.obj
 0003:000399c0       ?new_monsters@@3PAUMONSTER_PROP@@A 1006b9c0     core.obj
 0003:000569c0       ?new_cranim@@3PAUCRANIM@@A 100889c0     core.obj
 0003:0006b9c0       ?names@@3PAY0EA@DA         1009d9c0     core.obj
 0003:0007b9c0       ?names_pl@@3PAY0EA@DA      100ad9c0     core.obj
 0003:0008b9c0       ?descripts@@3PAY0BAA@DA    100bd9c0     core.obj
 0003:000cb9c0       ?ptr_names@@3PAPADA        100fd9c0     core.obj
 0003:000cc9c0       ?ptr_names_pl@@3PAPADA     100fe9c0     core.obj
 0003:000cd9c0       ?ptr_descripts@@3PAPADA    100ff9c0     core.obj
 0003:000ce9c0       ?ptr_names_back@@3PAPADA   101009c0     core.obj
 0003:000cf9c0       ?ptr_names_pl_back@@3PAPADA 101019c0     core.obj
 0003:000d09c0       ?ptr_descripts_back@@3PAPADA 101029c0     core.obj
 0003:000d19c0       ?experience_0x00847f08_table@@3PADA 101039c0     core.obj
 0003:0012bec0       ?experience_0x0085EB50_table@@3PADA 1015dec0     core.obj
 0003:001313c0       ?fake_new_buffer@@3PAY0CAA@DA 101633c0     core.obj
 0003:001319c0       ?MonNames_Var@@3PAU_MonNames_@@A 101639c0     core.obj
 0003:001349c0       ?tmp_missile@@3PADA        101669c0     core.obj
 0003:001349d0       ?_OptionsStorage@?1??__local_stdio_printf_options@@9@4_KA 101669d0     core.obj
 0003:001349d8       ?EventParams@Era@@3PAY0BA@HA 101669d8     dllmain.obj
 0003:001349dc       ?ApiHook@Era@@3P6GPAXPAXH0@ZA 101669dc     dllmain.obj
 0003:001349e0       ?ClearAllIniCache@Era@@3P6GXXZA 101669e0     dllmain.obj
 0003:001349e4       ?ClearIniCache@Era@@3P6GXPBD@ZA 101669e4     dllmain.obj
 0003:001349e8       ?ExecErmCmd@Era@@3P6GXPBD@ZA 101669e8     dllmain.obj
 0003:001349ec       ?ExtractErm@Era@@3P6GXXZA  101669ec     dllmain.obj
 0003:001349f0       ?FatalError@Era@@3P6GXPBD@ZA 101669f0     dllmain.obj
 0003:001349f4       ?FireErmEvent@Era@@3P6GXH@ZA 101669f4     dllmain.obj
 0003:001349f8       ?FireEvent@Era@@3P6GXPBDPAXH@ZA 101669f8     dllmain.obj
 0003:001349fc       ?GetButtonID@Era@@3P6GHPBD@ZA 101669fc     dllmain.obj
 0003:00134a00       ?GetEraVersion@Era@@3P6GPBDXZA 10166a00     dllmain.obj
 0003:00134a04       ?GetGameState@Era@@3P6GXPAUTGameState@1@@ZA 10166a04     dllmain.obj
 0003:00134a08       ?GetRealAddr@Era@@3P6GPAXPAX@ZA 10166a08     dllmain.obj
 0003:00134a0c       ?GlobalRedirectFile@Era@@3P6GXXZA 10166a0c     dllmain.obj
 0003:00134a10       ?Hook@Era@@3P6GPAXPAXHH0@ZA 10166a10     dllmain.obj
 0003:00134a14       ?HookCode@Era@@3P6GPAXPAXP6GHPAUTHookContext@1@@ZPAPAX@ZA 10166a14     dllmain.obj
 0003:00134a18       ?LoadImageAsPcx16@Era@@3P6GPAXPBD0HHHHH@ZA 10166a18     dllmain.obj
 0003:00134a1c       ?LoadTxt@Era@@3P6GPAXPBD@ZA 10166a1c     dllmain.obj
 0003:00134a20       ?MemFree@Era@@3P6GXPBX@ZA  10166a20     dllmain.obj
 0003:00134a24       ?NameColor@Era@@3P6GXHPBD@ZA 10166a24     dllmain.obj
 0003:00134a28       ?NotifyError@Era@@3P6GXPBD@ZA 10166a28     dllmain.obj
 0003:00134a2c       ?PatchExists@Era@@3P6G_NPBD@ZA 10166a2c     dllmain.obj
 0003:00134a30       ?PluginExists@Era@@3P6G_NPBD@ZA 10166a30     dllmain.obj
 0003:00134a34       ?ReadSavegameSection@Era@@3P6GHHPAXPBD@ZA 10166a34     dllmain.obj
 0003:00134a38       ?ReadStrFromIni@Era@@3P6G_NPBD00PAD@ZA 10166a38     dllmain.obj
 0003:00134a3c       ?RecallAPI@Era@@3P6GHPAUTHookContext@1@H@ZA 10166a3c     dllmain.obj
 0003:00134a40       ?RedirectFile@Era@@3P6GXXZA 10166a40     dllmain.obj
 0003:00134a44       ?RedirectMemoryBlock@Era@@3P6GXPAXH0@ZA 10166a44     dllmain.obj
 0003:00134a48       ?RegisterHandler@Era@@3P6GXP6GXPAUTEvent@1@@ZPBD@ZA 10166a48     dllmain.obj
 0003:00134a4c       ?ReloadErm@Era@@3P6GXXZA   10166a4c     dllmain.obj
 0003:00134a50       ?ReportPluginVersion@Era@@3P6GXPBD@ZA 10166a50     dllmain.obj
 0003:00134a54       ?RestoreEventParams@Era@@3P6GXXZA 10166a54     dllmain.obj
 0003:00134a58       ?SaveEventParams@Era@@3P6GXXZA 10166a58     dllmain.obj
 0003:00134a5c       ?SaveIni@Era@@3P6G_NPBD@ZA 10166a5c     dllmain.obj
 0003:00134a60       ?Splice@Era@@3P6GPAXPAX0HHPAHPAPAX@ZA 10166a60     dllmain.obj
 0003:00134a64       ?_tr@Era@@3P6GPADPBDPAPBDH@ZA 10166a64     dllmain.obj
 0003:00134a68       ?WriteAtCode@Era@@3P6GXHPAX0@ZA 10166a68     dllmain.obj
 0003:00134a6c       ?WriteSavegameSection@Era@@3P6GXHPAXPBD@ZA 10166a6c     dllmain.obj
 0003:00134a70       ?WriteStrToIni@Era@@3P6G_NPBD000@ZA 10166a70     dllmain.obj
 0003:00134a74       ?hEra@Era@@3PAUHINSTANCE__@@A 10166a74     dllmain.obj
 0003:00134a78       ?hAngel@Era@@3PAUHINSTANCE__@@A 10166a78     dllmain.obj
 0003:00134a7c       ?all_creatures@@3HA        10166a7c     dllmain.obj
 0003:00134a80       ?conf_creatures@@3HA       10166a80     dllmain.obj
 0003:00134a84       ?save__new_monsters@@3_NA  10166a84     dllmain.obj
 0003:00134a85       ?DisableNecromancyFeatures@@3_NA 10166a85     dllmain.obj
 0003:00134a86       ?FilterNecromancyCreatures@@3_NA 10166a86     dllmain.obj
 0003:00134a88       ?globalPatcher@@3PAVPatcher@@A 10166a88     dllmain.obj
 0003:00134a8c       ?Z_Amethyst@@3PAVPatcherInstance@@A 10166a8c     dllmain.obj
 0003:00134a90       ?calls_count@?1??GetPatcher@@YAPAVPatcher@@XZ@4HA 10166a90     dllmain.obj
 0003:00134a98       ?default_names@@3PAY0EA@DA 10166a98     MiscCreatureHooks.obj
 0003:00144a98       ?default_names_pl@@3PAY0EA@DA 10176a98     MiscCreatureHooks.obj
 0003:00154a98       ?default_descripts@@3PAY0BAA@DA 10186a98     MiscCreatureHooks.obj
 0003:00194a98       ?SG_GuardsSet@@3HA         101c6a98     Summon.obj
 0003:00194a9c       ?Dalion_Stack@@3HA         101c6a9c     Summon.obj
 0003:00194aa0       ?SG_GuardsSetUp@@3PAU_SG_GuardsSetUp_@@A 101c6aa0     Summon.obj
 0003:00194d40       ?z_type@MakeMonGuards_proxy@@3HA 101c6d40     Summon.obj
 0003:00194d44       ?man@MakeMonGuards_proxy@@3PAEA 101c6d44     Summon.obj
 0003:00194d48       ?mon@MakeMonGuards_proxy@@3PAEA 101c6d48     Summon.obj
 0003:00194d4c       ?SG_stack@MakeMonGuards_proxy@@3HA 101c6d4c     Summon.obj
 0003:00194d50       ?Z_ESP@MakeMonGuards_proxy@@3HA 101c6d50     Summon.obj
 0003:00194d54       ?Z_EAX@MakeMonGuards_proxy@@3HA 101c6d54     Summon.obj
 0003:00194d78       ?demonolgy_Temp1@@3KA      101c6d78     tables.obj
 0003:00194d7c       ?ShootingAdjacent_return@@3DA 101c6d7c     tables.obj
 0003:00194d80       ?GhostMultiplyer_028460f8@@3PAKA 101c6d80     tables.obj
 0003:00195e80       ?CreatureSpellPowerMultiplier@@3PAKA 101c7e80     tables.obj
 0003:00196f80       ?CreatureSpellPowerDivider@@3PAKA 101c8f80     tables.obj
 0003:00198080       ?CreatureSpellPowerAdder@@3PAKA 101ca080     tables.obj
 0003:00199180       ?CreatureSpellPowerScaled@@3PADA 101cb180     tables.obj
 0003:001995c0       ?CreatureMimicArtifact@@3PAKA 101cb5c0     tables.obj
 0003:0019a6c0       ?CreatureMimicArtifact2@@3PAKA 101cc6c0     tables.obj
 0003:0019b7c0       ?addditional_moves@@3PAEA  101cd7c0     tables.obj
 0003:0019b7ec       ?addditional_shots@@3PAEA  101cd7ec     tables.obj
 0003:0019b818       ?addditional_melees@@3PAEA 101cd818     tables.obj
 0003:0019b848       ?Spell_Immunities@@3PAY0BA@DA 101cd848     tables.obj
 0003:0019fc48       ?RegenerationHitPoints_Table@@3PAKA 101d1c48     tables.obj
 0003:001a0d48       ?RegenerationChance_Table@@3PADA 101d2d48     tables.obj
 0003:001a1188       ?ManaDrain_Table@@3PAGA    101d3188     tables.obj
 0003:001a1a08       ?SpellsCostDump_Table@@3PADA 101d3a08     tables.obj
 0003:001a1e48       ?SpellsCostLess_Table@@3PADA 101d3e48     tables.obj
 0003:001a2288       ?Counterstrike_Table@@3PADA 101d4288     tables.obj
 0003:001a26c8       ?AlwaysPositiveMorale_Table@@3PADA 101d46c8     tables.obj
 0003:001a2b08       ?AlwaysPositiveLuck_Table@@3PADA 101d4b08     tables.obj
 0003:001a2f48       ?ThreeHeadedAttack_Table@@3PADA 101d4f48     tables.obj
 0003:001a3388       ?DeathBlow_Table@@3PADA    101d5388     tables.obj
 0003:001a37c8       ?Fear_Table@@3PADA         101d57c8     tables.obj
 0003:001a3c08       ?Fearless_Table@@3PADA     101d5c08     tables.obj
 0003:001a4048       ?NoWallPenalty_Table@@3PADA 101d6048     tables.obj
 0003:001a4488       ?MagicAura_Table@@3PADA    101d6488     tables.obj
 0003:001a48c8       ?StrikeAndReturn_Table@@3PADA 101d68c8     tables.obj
 0003:001a4d08       ?Spells_Table@@3PADA       101d6d08     tables.obj
 0003:001a5148       ?Hate_Table@@3PADA         101d7148     tables.obj
 0003:001a5588       ?JoustingBonus_Table@@3PADA 101d7588     tables.obj
 0003:001a59c8       ?ImmunToJoustingBonus_Table@@3PADA 101d79c8     tables.obj
 0003:001a5e08       ?MagicChannel_Table@@3PADA 101d7e08     tables.obj
 0003:001a6248       ?MagicMirror_Table@@3PADA  101d8248     tables.obj
 0003:001a6688       ?Sharpshooters_Table@@3PADA 101d8688     tables.obj
 0003:001a6ac8       ?ShootingAdjacent_Table@@3PADA 101d8ac8     tables.obj
 0003:001a6f08       ?ReduceTargetDefense_Table@@3PADA 101d8f08     tables.obj
 0003:001a7348       ?Demonology_Table@@3PAGA   101d9348     tables.obj
 0003:001a7bc8       ?ImposedSpells_Table@@3PAY05DA 101d9bc8     tables.obj
 0003:001a9548       ?PreventiveCounterstrikeTable@@3PADA 101db548     tables.obj
 0003:001a9988       ?RangeRetaliation_Table@@3PADA 101db988     tables.obj
 0003:001a9dc8       ?PersonalHate@@3PAY0EAA@KA 101dbdc8     tables.obj
 0003:005e9dc8       ?isDragonSlayer_Table@@3PADA 1061bdc8     tables.obj
 0003:005ea208       ?isFaerieDragon_Table@@3PADA 1061c208     tables.obj
 0003:005ea648       ?isAimedCaster_Table@@3PADA 1061c648     tables.obj
 0003:005eaa88       ?isAmmoCart_Table@@3PADA   1061ca88     tables.obj
 0003:005eaec8       ?isPassive_Table@@3PADA    1061cec8     tables.obj
 0003:005eb308       ?isTeleporter@@3PADA       1061d308     tables.obj
 0003:005eb748       ?Necromancy_without_artifacts@@3PAKA 1061d748     tables.obj
 0003:005eb788       ?Necromancy_with_artifacts@@3PAKA 1061d788     tables.obj
 0003:005eb7c8       ?hasSantaGuards@@3PADA     1061d7c8     tables.obj
 0003:005ebc08       ?DalionsGuards@@3PAKA      1061dc08     tables.obj
 0003:005ecd08       ?ghost_fraction@@3PAMA     1061ed08     tables.obj
 0003:005ede08       ?isGhost@@3PADA            1061fe08     tables.obj
 0003:005ee248       ?isRogue@@3PADA            10620248     tables.obj
 0003:005ee688       ?isEnchanter@@3PADA        10620688     tables.obj
 0003:005eeac8       ?isSorceress@@3PADA        10620ac8     tables.obj
 0003:005eef08       ?FireWall_Table@@3PADA     10620f08     tables.obj
 0003:005ef348       ?isHellSteed@@3PADA        10621348     tables.obj
 0003:005ef788       ?isHellSteed2@@3PADA       10621788     tables.obj
 0003:005efbc8       ?isHellSteed3@@3PADA       10621bc8     tables.obj
 0003:005f0008       ?NoGolemOverflow@@3PADA    10622008     tables.obj
 0003:005f0448       ?isDragonResistant@@3PADA  10622448     tables.obj
 0003:005f0888       ?isHellHydra@@3PADA        10622888     tables.obj
 0003:005f0cc8       ?MovesTwice_Table@@3PADA   10622cc8     tables.obj
 0003:005f1108       ?Receptive_Table@@3PADA    10623108     tables.obj
 0003:005f1548       ?isLord_Table@@3PADA       10623548     tables.obj
 0003:005f1988       ?isHeroic_Table@@3PADA     10623988     tables.obj
 0003:005f1dc8       ?SharedStats@@3PAPADA      10623dc8     tables.obj
 0003:005f2ec8       ?aftercast_abilities_table@@3PADA 10624ec8     tables.obj
 0003:005f3308       ?poison_table@@3PAJA       10625308     tables.obj
 0003:005f4408       ?aging_table@@3PAJA        10626408     tables.obj
 0003:005f5508       ?paralyze_table@@3PAJA     10627508     tables.obj
 0003:005f6608       ?paralyze_chance@@3PAJA    10628608     tables.obj
 0003:005f7708       ?attack_abilities_table@@3PADA 10629708     tables.obj
 0003:005f7b48       ?magic_resistance_table@@3PADA 10629b48     tables.obj
 0003:005f7f88       ?magic_vulnerability_table@@3PADA 10629f88     tables.obj
 0003:005f83c8       ?missiles_table@@3PADA     1062a3c8     tables.obj
 0003:005f8808       ?spell_1_table@@3PADA      1062a808     tables.obj
 0003:005f8c08       ?spell_2_table@@3PADA      1062ac08     tables.obj
 0003:005f9008       ?spell_3_table@@3PADA      1062b008     tables.obj
 0003:005f9408       ?skeltrans@@3PAHA          1062b408     tables.obj
 0003:005fa408       ?upgtable@@3PAHA           1062c408     tables.obj
 0003:005fb408       ?special_missiles_table@@3PADA 1062d408     tables.obj
 0003:005fb848       ?fire_shield_table@@3PAMA  1062d848     tables.obj
 0003:005fc948       ?respawn_table_chance@@3PAMA 1062e948     tables.obj
 0003:005fda48       ?respawn_table_fraction@@3PAMA 1062fa48     tables.obj
 0003:005feb48       ?respawn_table_sure@@3PAMA 10630b48     tables.obj
 0003:005ffc48       ?resource_type_table@@3PADA 10631c48     tables.obj
 0003:00600048       ?resource_amount_table@@3PAKA 10632048     tables.obj
 0003:00601048       ?resource_tax_table@@3PAKA 10633048     tables.obj
 0003:00602048       ?isConstruct_Table@@3PADA  10634048     tables.obj
 0003:00602488       ?Monster_Ban_Table@@3PADA  10634488     tables.obj
 0003:00602888       ?after_wound__spell@@3PAHA 10634888     tables.obj
 0003:00603988       ?after_melee__spell@@3PAHA 10635988     tables.obj
 0003:00604a88       ?after_shoot__spell@@3PAHA 10636a88     tables.obj
 0003:00605b88       ?after_defend_spell@@3PAHA 10637b88     tables.obj
 0003:00606c88       ?after_action_spell_mastery@@3PADA 10638c88     tables.obj
 0003:006070c8       ?after_wound__spell2@@3PAHA 106390c8     tables.obj
 0003:006081c8       ?after_melee__spell2@@3PAHA 1063a1c8     tables.obj
 0003:006092c8       ?after_shoot__spell2@@3PAHA 1063b2c8     tables.obj
 0003:0060a3c8       ?after_defend_spell2@@3PAHA 1063c3c8     tables.obj
 0003:0060b4c8       ?shooting_resistance@@3PAMA 1063d4c8     tables.obj
 0003:0060c5c8       ?melee_resistance@@3PAMA   1063e5c8     tables.obj
 0003:0060d6c8       ?mana_regen_table@@3PAMA   1063f6c8     tables.obj
 0003:0060e7c8       ?Alternate_parameter_address_for_alternate_construction_dialog@@3JA 106407c8     tables.obj
 0003:0060e7cc       ?Stack_Stack_structure_Address@@3JA 106407cc     tables.obj
 0003:0060e7d0       ?Action_type_in_fight@@3JA 106407d0     tables.obj
 0003:0060e7d4       ?Address_of_stack_structure_to_which_action@@3JA 106407d4     tables.obj
 0003:0060e7d8       ?Stack_structure_address_to_which_action_directed@@3JA 106407d8     tables.obj
 0003:0060e7dc       ?fix_hp_overflow_tmp@@3JA  106407dc     tables.obj
 0003:0060e7e0       ?last_action@@3JA          106407e0     tables.obj
 0003:0060e7e4       ?last_target@@3JA          106407e4     tables.obj
 0003:0060e7e8       ?last_current_mon@@3JA     106407e8     tables.obj
 0003:0060e7ec       ?last_source_type@@3JA     106407ec     tables.obj
 0003:0060e7f0       ?before_mon@@3JA           106407f0     tables.obj
 0003:0060e7f4       ?before_action@@3JA        106407f4     tables.obj
 0003:0060e7f8       ?last_target_pos@@3JA      106407f8     tables.obj
 0003:0060e7fc       ?before_target_pos@@3JA    106407fc     tables.obj
 0003:0060e800       ?rebirth_temp@@3KA         10640800     tables.obj
 0003:0060e804       ?RTD2_Temp1@@3FA           10640804     tables.obj
 0003:0060e808       ?RTD2_Temp2@@3JA           10640808     tables.obj
 0003:0060e80c       ?ShootingAdjacent_temp@@3HA 1064080c     tables.obj
 0003:0060e810       ?StrikeAndReturn_temp@@3JA 10640810     tables.obj
 0003:0060e814       ?StrikeAndReturn3_temp@@3JA 10640814     tables.obj
 0003:0060e818       ?CounterStrike_temp@@3JA   10640818     tables.obj
 0003:0060e81c       ?f_75D2BB_temp@@3KA        1064081c     tables.obj
 0003:0060e820       ?last_ghost@@3JA           10640820     tables.obj
 0003:0060e824       ?amtype@@3HA               10640824     tables.obj
 0003:0060e828       ?amflags@@3HA              10640828     tables.obj
 0003:0060e82c       ?dmtype@@3HA               1064082c     tables.obj
 0003:0060e830       ?dmflags@@3HA              10640830     tables.obj
 0003:0060e834       ?dmpos@@3HA                10640834     tables.obj
 0003:0060e838       ?hate_percent@@3HA         10640838     tables.obj
 0003:0060e83c       ?Spell_1_mode_exact_expert_ebx@@3JA 1064083c     tables.obj
 0003:0060e840       ?Spell_1_mode_exact_ebx@@3JA 10640840     tables.obj
 0003:0060e844       ?Spell_1_mode_exact_twice_ebx@@3JA 10640844     tables.obj
 0003:0060e848       ?Spell_1_mode_elemental_ebx@@3JA 10640848     tables.obj
 0003:0060e84c       ?Spell_1_mode_rush_ebx@@3JA 1064084c     tables.obj
 0003:0060e850       ?Spell_1_mode_rush_ecx@@3JA 10640850     tables.obj
 0003:0060e854       ?Spell_1_mode_rush_edx@@3JA 10640854     tables.obj
 0003:0060e858       ?Spell_1_mode_Dragon_Will_ebx@@3JA 10640858     tables.obj
 0003:0060e85c       ?Spell_1_mode_Dragon_Will_ecx@@3JA 1064085c     tables.obj
 0003:0060e860       ?Spell_1_mode_Dragon_Will_edx@@3JA 10640860     tables.obj
 0003:0060e870       ?_OptionsStorage@?1??__local_stdio_scanf_options@@9@4_KA 10640870     tables.obj
 0003:0060e878       ?asm_not_patched@@3PAUreplace_byte@@A 10640878     __assembly__.obj
 0003:0060ef90       ?__type_info_root_node@@3U__type_info_node@@A 10640f90     LIBCMT:tncleanup.obj
 0003:0060ef98       ___scrt_current_native_startup_state 10640f98     LIBCMT:utility.obj
 0003:0060ef9c       ___scrt_native_startup_lock 10640f9c     LIBCMT:utility.obj
 0003:0060efbc       ___scrt_debugger_hook_flag 10640fbc     LIBCMT:utility_desktop.obj
 0003:0060efc0       ___avx10_version           10640fc0     LIBCMT:cpu_disp.obj
 0003:0060efc4       ___isa_available           10640fc4     LIBCMT:cpu_disp.obj
 0003:0060efc8       ___favor                   10640fc8     LIBCMT:cpu_disp.obj
 0003:0060efcc       ?__WinRTOutOfMemoryExceptionCallback@@3P6GPAXXZA 10640fcc     libvcruntime:ehhelpers.obj
 0003:0060eff8       ?pArgList@UnDecorator@@0PAVReplicator@@A 10640ff8     libvcruntime:undname.obj
 0003:0060effc       ?pZNameList@UnDecorator@@0PAVReplicator@@A 10640ffc     libvcruntime:undname.obj
 0003:0060f000       ?pTemplateArgList@UnDecorator@@0PAVReplicator@@A 10641000     libvcruntime:undname.obj
 0003:0060f004       ?gName@UnDecorator@@0PBDB  10641004     libvcruntime:undname.obj
 0003:0060f008       ?name@UnDecorator@@0PBDB   10641008     libvcruntime:undname.obj
 0003:0060f00c       ?disableFlags@UnDecorator@@0KA 1064100c     libvcruntime:undname.obj
 0003:0060f010       ?fExplicitTemplateParams@UnDecorator@@0_NA 10641010     libvcruntime:undname.obj
 0003:0060f011       ?fGetTemplateArgumentList@UnDecorator@@0_NA 10641011     libvcruntime:undname.obj
 0003:0060f014       ?m_pGetParameter@UnDecorator@@0P6APADJ@ZA 10641014     libvcruntime:undname.obj
 0003:0060f018       ?m_CHPENameOffset@UnDecorator@@0KA 10641018     libvcruntime:undname.obj
 0003:0060f01c       ?m_recursionLevel@UnDecorator@@0KA 1064101c     libvcruntime:undname.obj
 0003:0060f070       ___pPurecall               10641070     libvcruntime:purevirt_data.obj
 0003:0060f084       ?c_exit_complete@?1???R<lambda_6e4b09c48022b2350581041d5f6b0c4c>@@QBE@XZ@4_NA 10641084     libucrt:exit.obj
 0003:0060f190       __environ_table            10641190     libucrt:environment_initialization.obj
 0003:0060f194       __wenviron_table           10641194     libucrt:environment_initialization.obj
 0003:0060f198       ___dcrt_initial_wide_environment 10641198     libucrt:environment_initialization.obj
 0003:0060f19c       ___dcrt_initial_narrow_environment 1064119c     libucrt:environment_initialization.obj
 0003:0060f1a0       ___acrt_atexit_table       106411a0     libucrt:onexit.obj
 0003:0060f1ac       ___acrt_at_quick_exit_table 106411ac     libucrt:onexit.obj
 0003:0060f1c0       __nstream                  106411c0     libucrt:_file.obj
 0003:0060f1c4       ___piob                    106411c4     libucrt:_file.obj
 0003:0060f1c8       __cflush                   106411c8     libucrt:_file.obj
 0003:0060f1d0       ___acrt_stdout_buffer      106411d0     libucrt:_sftbuf.obj
 0003:0060f1d4       ___acrt_stderr_buffer      106411d4     libucrt:_sftbuf.obj
 0003:0060f1d8       ___acrt_locale_changed_data 106411d8     libucrt:wsetlocale.obj
 0003:0060f1dc       ___acrt_current_locale_data 106411dc     libucrt:nlsdata.obj
 0003:0060f1e0       ___pioinfo                 106411e0     libucrt:ioinit.obj
 0003:0060f3e0       __nhandle                  106413e0     libucrt:ioinit.obj
 0003:0060f614       __mbctype                  10641614     libucrt:mbctype.obj
 0003:0060f618       __mbcasemap                10641618     libucrt:mbctype.obj
 0003:0060f61c       ___acrt_current_multibyte_data 1064161c     libucrt:mbctype.obj
 0003:0060f628       __pgmptr                   10641628     libucrt:argv_data.obj
 0003:0060f62c       ___argc                    1064162c     libucrt:argv_data.obj
 0003:0060f630       ___argv                    10641630     libucrt:argv_data.obj
 0003:0060f634       ___wargv                   10641634     libucrt:argv_data.obj
 0003:0060f638       __acmdln                   10641638     libucrt:argv_data.obj
 0003:0060f63c       __wcmdln                   1064163c     libucrt:argv_data.obj
 0003:0060f640       ___acrt_heap               10641640     libucrt:heap_handle.obj
 0003:0060f65c       ___acrt_lconv_static_null  1064165c     libucrt:localeconv.obj
 0003:0060f660       ___acrt_lconv_static_W_null 10641660     libucrt:localeconv.obj
 0003:0060f664       __commode                  10641664     libucrt:ncommode.obj
 0003:0060f674       __umaskval                 10641674     libucrt:umask.obj
 0003:0060f678       ___fastflag                10641678     libucrt:fp_flags.obj
 0003:0060f680       __fmode                    10641680     libucrt:txtmode.obj
 0003:0060f684       ___scrt_ucrt_dll_is_in_use 10641684     <common>
 0003:0060f688       ___dyn_tls_init_callback   10641688     <common>
 0003:0060f68c       __pmatherr                 1064168c     <common>
 0003:0060f690       ___use_sse2_mathfcns       10641690     <common>

 entry point at        0001:0000c30e

 Static symbols

 0000:ff9b7000       .debug$S                   10000000     amethyst2_4.exp
 0000:ff9b7000       .debug$S                   10000000     kernel32:KERNEL32.dll
 0000:ff9b7000       .debug$S                   10000000     kernel32:KERNEL32.dll
 0000:ff9b7000       .debug$S                   10000000     kernel32:KERNEL32.dll
 0000:ff9b7000       .debug$S                   10000000     kernel32:KERNEL32.dll
 0000:ff9b7000       .debug$S                   10000000     kernel32:KERNEL32.dll
 0000:ff9b7000       .debug$S                   10000000     kernel32:KERNEL32.dll
 0000:ff9b7000       .debug$S                   10000000     kernel32:KERNEL32.dll
 0000:ff9b7000       .debug$S                   10000000     kernel32:KERNEL32.dll
 0000:ff9b7000       .debug$S                   10000000     kernel32:KERNEL32.dll
 0000:ff9b7000       .debug$S                   10000000     kernel32:KERNEL32.dll
 0000:ff9b7000       .debug$S                   10000000     kernel32:KERNEL32.dll
 0000:ff9b7000       .debug$S                   10000000     kernel32:KERNEL32.dll
 0000:ff9b7000       .debug$S                   10000000     kernel32:KERNEL32.dll
 0000:ff9b7000       .debug$S                   10000000     kernel32:KERNEL32.dll
 0000:ff9b7000       .debug$S                   10000000     kernel32:KERNEL32.dll
 0000:ff9b7000       .debug$S                   10000000     kernel32:KERNEL32.dll
 0000:ff9b7000       .debug$S                   10000000     kernel32:KERNEL32.dll
 0000:ff9b7000       .debug$S                   10000000     kernel32:KERNEL32.dll
 0000:ff9b7000       .debug$S                   10000000     kernel32:KERNEL32.dll
 0000:ff9b7000       .debug$S                   10000000     kernel32:KERNEL32.dll
 0000:ff9b7000       .debug$S                   10000000     kernel32:KERNEL32.dll
 0000:ff9b7000       .debug$S                   10000000     kernel32:KERNEL32.dll
 0000:ff9b7000       .debug$S                   10000000     kernel32:KERNEL32.dll
 0000:ff9b7000       .debug$S                   10000000     kernel32:KERNEL32.dll
 0000:ff9b7000       .debug$S                   10000000     kernel32:KERNEL32.dll
 0000:ff9b7000       .debug$S                   10000000     kernel32:KERNEL32.dll
 0000:ff9b7000       .debug$S                   10000000     kernel32:KERNEL32.dll
 0000:ff9b7000       .debug$S                   10000000     kernel32:KERNEL32.dll
 0000:ff9b7000       .debug$S                   10000000     kernel32:KERNEL32.dll
 0000:ff9b7000       .debug$S                   10000000     kernel32:KERNEL32.dll
 0000:ff9b7000       .debug$S                   10000000     kernel32:KERNEL32.dll
 0000:ff9b7000       .debug$S                   10000000     kernel32:KERNEL32.dll
 0000:ff9b7000       .debug$S                   10000000     kernel32:KERNEL32.dll
 0000:ff9b7000       .debug$S                   10000000     kernel32:KERNEL32.dll
 0000:ff9b7000       .debug$S                   10000000     kernel32:KERNEL32.dll
 0000:ff9b7000       .debug$S                   10000000     kernel32:KERNEL32.dll
 0000:ff9b7000       .debug$S                   10000000     kernel32:KERNEL32.dll
 0000:ff9b7000       .debug$S                   10000000     kernel32:KERNEL32.dll
 0000:ff9b7000       .debug$S                   10000000     kernel32:KERNEL32.dll
 0000:ff9b7000       .debug$S                   10000000     kernel32:KERNEL32.dll
 0000:ff9b7000       .debug$S                   10000000     kernel32:KERNEL32.dll
 0000:ff9b7000       .debug$S                   10000000     kernel32:KERNEL32.dll
 0000:ff9b7000       .debug$S                   10000000     kernel32:KERNEL32.dll
 0000:ff9b7000       .debug$S                   10000000     kernel32:KERNEL32.dll
 0000:ff9b7000       .debug$S                   10000000     kernel32:KERNEL32.dll
 0000:ff9b7000       .debug$S                   10000000     kernel32:KERNEL32.dll
 0000:ff9b7000       .debug$S                   10000000     kernel32:KERNEL32.dll
 0000:ff9b7000       .debug$S                   10000000     kernel32:KERNEL32.dll
 0000:ff9b7000       .debug$S                   10000000     kernel32:KERNEL32.dll
 0000:ff9b7000       .debug$S                   10000000     kernel32:KERNEL32.dll
 0000:ff9b7000       .debug$S                   10000000     kernel32:KERNEL32.dll
 0000:ff9b7000       .debug$S                   10000000     kernel32:KERNEL32.dll
 0000:ff9b7000       .debug$S                   10000000     kernel32:KERNEL32.dll
 0000:ff9b7000       .debug$S                   10000000     kernel32:KERNEL32.dll
 0000:ff9b7000       .debug$S                   10000000     kernel32:KERNEL32.dll
 0000:ff9b7000       .debug$S                   10000000     kernel32:KERNEL32.dll
 0000:ff9b7000       .debug$S                   10000000     kernel32:KERNEL32.dll
 0000:ff9b7000       .debug$S                   10000000     kernel32:KERNEL32.dll
 0000:ff9b7000       .debug$S                   10000000     kernel32:KERNEL32.dll
 0000:ff9b7000       .debug$S                   10000000     kernel32:KERNEL32.dll
 0000:ff9b7000       .debug$S                   10000000     kernel32:KERNEL32.dll
 0000:ff9b7000       .debug$S                   10000000     kernel32:KERNEL32.dll
 0000:ff9b7000       .debug$S                   10000000     kernel32:KERNEL32.dll
 0000:ff9b7000       .debug$S                   10000000     kernel32:KERNEL32.dll
 0000:ff9b7000       .debug$S                   10000000     kernel32:KERNEL32.dll
 0000:ff9b7000       .debug$S                   10000000     kernel32:KERNEL32.dll
 0000:ff9b7000       .debug$S                   10000000     kernel32:KERNEL32.dll
 0000:ff9b7000       .debug$S                   10000000     kernel32:KERNEL32.dll
 0000:ff9b7000       .debug$S                   10000000     kernel32:KERNEL32.dll
 0000:ff9b7000       .debug$S                   10000000     kernel32:KERNEL32.dll
 0000:ff9b7000       .debug$S                   10000000     kernel32:KERNEL32.dll
 0000:ff9b7000       .debug$S                   10000000     kernel32:KERNEL32.dll
 0000:ff9b7000       .debug$S                   10000000     kernel32:KERNEL32.dll
 0000:ff9b7000       .debug$S                   10000000     kernel32:KERNEL32.dll
 0000:ff9b7000       .debug$S                   10000000     kernel32:KERNEL32.dll
 0000:ff9b7000       .debug$S                   10000000     kernel32:KERNEL32.dll
 0000:ff9b7000       .debug$S                   10000000     kernel32:KERNEL32.dll
 0000:ff9b7000       .debug$S                   10000000     kernel32:KERNEL32.dll
 0000:ff9b7000       .debug$S                   10000000     kernel32:KERNEL32.dll
 0000:ff9b7000       .debug$S                   10000000     kernel32:KERNEL32.dll
 0000:ff9b7000       .debug$S                   10000000     kernel32:KERNEL32.dll
 0000:ff9b7000       .debug$S                   10000000     kernel32:KERNEL32.dll
 0000:ff9b7000       .debug$S                   10000000     kernel32:KERNEL32.dll
 0000:ff9b7000       .debug$S                   10000000     kernel32:KERNEL32.dll
 0000:ff9b7000       .debug$S                   10000000     kernel32:KERNEL32.dll
 0000:ff9b7000       .debug$S                   10000000     kernel32:KERNEL32.dll
 0000:ff9b7000       .debug$S                   10000000     kernel32:KERNEL32.dll
 0000:ff9b7000       .debug$S                   10000000     kernel32:KERNEL32.dll
 0000:ff9b7000       .debug$S                   10000000     user32:USER32.dll
 0001:00000000       ??__Ereplace_CrState@@YAXXZ 10001000 f   core.obj
 0001:000044e4       $LN44                      100054e4     tables.obj
 0001:000044f8       $LN43                      100054f8     tables.obj
 0001:000083ac       $LN67                      100093ac     tables.obj
 0001:00008400       $LN66                      10009400     tables.obj
 0001:0000bfce       ?dllmain_crt_dispatch@@YGHQAUHINSTANCE__@@KQAX@Z 1000cfce f   LIBCMT:dll_dllmain.obj
 0001:0000c021       ?dllmain_crt_process_attach@@YAHQAUHINSTANCE__@@QAX@Z 1000d021 f   LIBCMT:dll_dllmain.obj
 0001:0000c128       ?dllmain_crt_process_detach@@YAH_N@Z 1000d128 f   LIBCMT:dll_dllmain.obj
 0001:0000c1d8       ?dllmain_dispatch@@YAHQAUHINSTANCE__@@KQAX@Z 1000d1d8 f   LIBCMT:dll_dllmain.obj
 0001:0000c2e3       ?dllmain_raw@@YGHQAUHINSTANCE__@@KQAX@Z 1000d2e3 f   LIBCMT:dll_dllmain.obj
 0001:0000c336       ___get_entropy             1000d336 f   LIBCMT:gs_support.obj
 0001:0000c403       ?find_pe_section@@YAPAU_IMAGE_SECTION_HEADER@@QAEI@Z 1000d403 f   LIBCMT:utility.obj
 0001:0000c860       $$000000                   1000d860     LIBCMT:sehprolg4.obj
 0001:0000cbf0       $$000000                   1000dbf0     libvcruntime:memcpy.obj
 0001:0000cbf0       $$000000                   1000dbf0     libvcruntime:memmove.obj
 0001:0000cc10       CopyUp                     1000dc10     libvcruntime:memcpy.obj
 0001:0000cc10       CopyUp                     1000dc10     libvcruntime:memmove.obj
 0001:0000cc34       CopyUpLargeMov             1000dc34     libvcruntime:memcpy.obj
 0001:0000cc34       CopyUpLargeMov             1000dc34     libvcruntime:memmove.obj
 0001:0000cc47       CopyUpSSE2Check            1000dc47     libvcruntime:memcpy.obj
 0001:0000cc47       CopyUpSSE2Check            1000dc47     libvcruntime:memmove.obj
 0001:0000cc60       AtomChk                    1000dc60     libvcruntime:memcpy.obj
 0001:0000cc60       AtomChk                    1000dc60     libvcruntime:memmove.obj
 0001:0000cc86       PalignHead4                1000dc86     libvcruntime:memcpy.obj
 0001:0000cc86       PalignHead4                1000dc86     libvcruntime:memmove.obj
 0001:0000cc99       PalignHead8                1000dc99     libvcruntime:memcpy.obj
 0001:0000cc99       PalignHead8                1000dc99     libvcruntime:memmove.obj
 0001:0000ccb0       PalignLoop                 1000dcb0     libvcruntime:memcpy.obj
 0001:0000ccb0       PalignLoop                 1000dcb0     libvcruntime:memmove.obj
 0001:0000ccc2       MovPalign12                1000dcc2     libvcruntime:memcpy.obj
 0001:0000ccc2       MovPalign12                1000dcc2     libvcruntime:memmove.obj
 0001:0000cccc       PalignLoop12               1000dccc     libvcruntime:memcpy.obj
 0001:0000cccc       PalignLoop12               1000dccc     libvcruntime:memmove.obj
 0001:0000cd1d       MovPalign8                 1000dd1d     libvcruntime:memcpy.obj
 0001:0000cd1d       MovPalign8                 1000dd1d     libvcruntime:memmove.obj
 0001:0000cd28       PalignLoop8                1000dd28     libvcruntime:memcpy.obj
 0001:0000cd28       PalignLoop8                1000dd28     libvcruntime:memmove.obj
 0001:0000cd76       MovPalign4                 1000dd76     libvcruntime:memcpy.obj
 0001:0000cd76       MovPalign4                 1000dd76     libvcruntime:memmove.obj
 0001:0000cd80       PalignLoop4                1000dd80     libvcruntime:memcpy.obj
 0001:0000cd80       PalignLoop4                1000dd80     libvcruntime:memmove.obj
 0001:0000cdcc       PalignTail                 1000ddcc     libvcruntime:memcpy.obj
 0001:0000cdcc       PalignTail                 1000ddcc     libvcruntime:memmove.obj
 0001:0000cde4       PalignTail4                1000dde4     libvcruntime:memcpy.obj
 0001:0000cde4       PalignTail4                1000dde4     libvcruntime:memmove.obj
 0001:0000cdf7       PalignTail8                1000ddf7     libvcruntime:memcpy.obj
 0001:0000cdf7       PalignTail8                1000ddf7     libvcruntime:memmove.obj
 0001:0000ce0e       PalignTailLE3              1000de0e     libvcruntime:memcpy.obj
 0001:0000ce0e       PalignTailLE3              1000de0e     libvcruntime:memmove.obj
 0001:0000ce17       Dword_align                1000de17     libvcruntime:memcpy.obj
 0001:0000ce17       Dword_align                1000de17     libvcruntime:memmove.obj
 0001:0000ce1f       Dword_up_align_loop        1000de1f     libvcruntime:memcpy.obj
 0001:0000ce1f       Dword_up_align_loop        1000de1f     libvcruntime:memmove.obj
 0001:0000ce32       Dword_align_Ok             1000de32     libvcruntime:memcpy.obj
 0001:0000ce32       Dword_align_Ok             1000de32     libvcruntime:memmove.obj
 0001:0000ce4c       ByteCopyUp                 1000de4c     libvcruntime:memcpy.obj
 0001:0000ce4c       ByteCopyUp                 1000de4c     libvcruntime:memmove.obj
 0001:0000ce54       TrailingUpVec              1000de54     libvcruntime:memcpy.obj
 0001:0000ce54       TrailingUpVec              1000de54     libvcruntime:memmove.obj
 0001:0000ce64       TrailingUp0                1000de64     libvcruntime:memcpy.obj
 0001:0000ce64       TrailingUp0                1000de64     libvcruntime:memmove.obj
 0001:0000ce6c       TrailingUp1                1000de6c     libvcruntime:memcpy.obj
 0001:0000ce6c       TrailingUp1                1000de6c     libvcruntime:memmove.obj
 0001:0000ce78       TrailingUp2                1000de78     libvcruntime:memcpy.obj
 0001:0000ce78       TrailingUp2                1000de78     libvcruntime:memmove.obj
 0001:0000ce8c       TrailingUp3                1000de8c     libvcruntime:memcpy.obj
 0001:0000ce8c       TrailingUp3                1000de8c     libvcruntime:memmove.obj
 0001:0000cea4       CopyDown                   1000dea4     libvcruntime:memcpy.obj
 0001:0000cea4       CopyDown                   1000dea4     libvcruntime:memmove.obj
 0001:0000cec9       CopyDownNotAligned         1000dec9     libvcruntime:memcpy.obj
 0001:0000cec9       CopyDownNotAligned         1000dec9     libvcruntime:memmove.obj
 0001:0000ced0       CopyDownAlignLoop          1000ded0     libvcruntime:memcpy.obj
 0001:0000ced0       CopyDownAlignLoop          1000ded0     libvcruntime:memmove.obj
 0001:0000cedd       CopyDownAligned            1000dedd     libvcruntime:memcpy.obj
 0001:0000cedd       CopyDownAligned            1000dedd     libvcruntime:memmove.obj
 0001:0000cf00       TrailingDownVec            1000df00     libvcruntime:memcpy.obj
 0001:0000cf00       TrailingDownVec            1000df00     libvcruntime:memmove.obj
 0001:0000cf10       TrailingDown0              1000df10     libvcruntime:memcpy.obj
 0001:0000cf10       TrailingDown0              1000df10     libvcruntime:memmove.obj
 0001:0000cf18       TrailingDown1              1000df18     libvcruntime:memcpy.obj
 0001:0000cf18       TrailingDown1              1000df18     libvcruntime:memmove.obj
 0001:0000cf28       TrailingDown2              1000df28     libvcruntime:memcpy.obj
 0001:0000cf28       TrailingDown2              1000df28     libvcruntime:memmove.obj
 0001:0000cf3c       TrailingDown3              1000df3c     libvcruntime:memcpy.obj
 0001:0000cf3c       TrailingDown3              1000df3c     libvcruntime:memmove.obj
 0001:0000cf55       XmmMovLargeAlignTest       1000df55     libvcruntime:memcpy.obj
 0001:0000cf55       XmmMovLargeAlignTest       1000df55     libvcruntime:memmove.obj
 0001:0000cf5d       XmmMovAlignLoop            1000df5d     libvcruntime:memcpy.obj
 0001:0000cf5d       XmmMovAlignLoop            1000df5d     libvcruntime:memmove.obj
 0001:0000cf6c       XmmMovLargeLoop            1000df6c     libvcruntime:memcpy.obj
 0001:0000cf6c       XmmMovLargeLoop            1000df6c     libvcruntime:memmove.obj
 0001:0000cfdc       XmmMovSmallTest            1000dfdc     libvcruntime:memcpy.obj
 0001:0000cfdc       XmmMovSmallTest            1000dfdc     libvcruntime:memmove.obj
 0001:0000cfe1       XmmMovSmallLoop            1000dfe1     libvcruntime:memcpy.obj
 0001:0000cfe1       XmmMovSmallLoop            1000dfe1     libvcruntime:memmove.obj
 0001:0000d004       CopyDownSmall              1000e004     libvcruntime:memcpy.obj
 0001:0000d004       CopyDownSmall              1000e004     libvcruntime:memmove.obj
 0001:0000d00c       CopyDownDwordLoop          1000e00c     libvcruntime:memcpy.obj
 0001:0000d00c       CopyDownDwordLoop          1000e00c     libvcruntime:memmove.obj
 0001:0000d021       CopyDownByteTest           1000e021     libvcruntime:memcpy.obj
 0001:0000d021       CopyDownByteTest           1000e021     libvcruntime:memmove.obj
 0001:0000d025       CopyDownByteLoop           1000e025     libvcruntime:memcpy.obj
 0001:0000d025       CopyDownByteLoop           1000e025     libvcruntime:memmove.obj
 0001:0000d034       CopyDownReturn             1000e034     libvcruntime:memcpy.obj
 0001:0000d034       CopyDownReturn             1000e034     libvcruntime:memmove.obj
 0001:0000d040       XmmCopy                    1000e040     libvcruntime:memcpy.obj
 0001:0000d040       XmmCopy                    1000e040     libvcruntime:memmove.obj
 0001:0000d04d       XmmCopyAligned             1000e04d     libvcruntime:memcpy.obj
 0001:0000d04d       XmmCopyAligned             1000e04d     libvcruntime:memmove.obj
 0001:0000d060       XmmCopyLargeLoop           1000e060     libvcruntime:memcpy.obj
 0001:0000d060       XmmCopyLargeLoop           1000e060     libvcruntime:memmove.obj
 0001:0000d0bd       XmmCopySmallTest           1000e0bd     libvcruntime:memcpy.obj
 0001:0000d0bd       XmmCopySmallTest           1000e0bd     libvcruntime:memmove.obj
 0001:0000d0d0       XmmCopySmallLoop           1000e0d0     libvcruntime:memcpy.obj
 0001:0000d0d0       XmmCopySmallLoop           1000e0d0     libvcruntime:memmove.obj
 0001:0000d0eb       CopyUpDwordMov             1000e0eb     libvcruntime:memcpy.obj
 0001:0000d0eb       CopyUpDwordMov             1000e0eb     libvcruntime:memmove.obj
 0001:0000d0f0       CopyUpDwordTest            1000e0f0     libvcruntime:memcpy.obj
 0001:0000d0f0       CopyUpDwordTest            1000e0f0     libvcruntime:memmove.obj
 0001:0000d0f7       CopyUpDwordLoop            1000e0f7     libvcruntime:memcpy.obj
 0001:0000d0f7       CopyUpDwordLoop            1000e0f7     libvcruntime:memmove.obj
 0001:0000d106       CopyUpByteTest             1000e106     libvcruntime:memcpy.obj
 0001:0000d106       CopyUpByteTest             1000e106     libvcruntime:memmove.obj
 0001:0000d10d       CopyUpByteLoop             1000e10d     libvcruntime:memcpy.obj
 0001:0000d10d       CopyUpByteLoop             1000e10d     libvcruntime:memmove.obj
 0001:0000d120       CopyUpReturn               1000e120     libvcruntime:memcpy.obj
 0001:0000d120       CopyUpReturn               1000e120     libvcruntime:memmove.obj
 0001:0000d130       XmmCopyUnaligned           1000e130     libvcruntime:memcpy.obj
 0001:0000d130       XmmCopyUnaligned           1000e130     libvcruntime:memmove.obj
 0001:0000d143       XmmAlignByte               1000e143     libvcruntime:memcpy.obj
 0001:0000d143       XmmAlignByte               1000e143     libvcruntime:memmove.obj
 0001:0000d14c       XmmAlignDwordTest          1000e14c     libvcruntime:memcpy.obj
 0001:0000d14c       XmmAlignDwordTest          1000e14c     libvcruntime:memmove.obj
 0001:0000d151       XmmAlignDwordLoop          1000e151     libvcruntime:memcpy.obj
 0001:0000d151       XmmAlignDwordLoop          1000e151     libvcruntime:memmove.obj
 0001:0000d15e       XmmAlignAdjustCnt          1000e15e     libvcruntime:memcpy.obj
 0001:0000d15e       XmmAlignAdjustCnt          1000e15e     libvcruntime:memmove.obj
 0001:0000d170       $$000000                   1000e170     libvcruntime:strstr.obj
 0001:0000d1b3       strstr_sse_safeloop        1000e1b3     libvcruntime:strstr.obj
 0001:0000d1da       strstr_sse_search          1000e1da     libvcruntime:strstr.obj
 0001:0000d1da       strstr_sse_unsafe          1000e1da     libvcruntime:strstr.obj
 0001:0000d1de       strstr_sse_srchloop        1000e1de     libvcruntime:strstr.obj
 0001:0000d214       strstr_sse_srchchar        1000e214     libvcruntime:strstr.obj
 0001:0000d22b       strstr_sse_cmploop         1000e22b     libvcruntime:strstr.obj
 0001:0000d266       strstr_sse_cmpchars        1000e266     libvcruntime:strstr.obj
 0001:0000d26d       strstr_sse_cmpunsafe       1000e26d     libvcruntime:strstr.obj
 0001:0000d284       strstr_sse_match           1000e284     libvcruntime:strstr.obj
 0001:0000d289       strstr_sse_not_found       1000e289     libvcruntime:strstr.obj
 0001:0000d28b       strstr_sse_exit            1000e28b     libvcruntime:strstr.obj
 0001:0000d28f       strstr_sttni               1000e28f     libvcruntime:strstr.obj
 0001:0000d2ab       strstr_sttni_setchars      1000e2ab     libvcruntime:strstr.obj
 0001:0000d2b0       strstr_sttni_setloopchar   1000e2b0     libvcruntime:strstr.obj
 0001:0000d2b6       strstr_sttni_setloopnochar 1000e2b6     libvcruntime:strstr.obj
 0001:0000d2ca       strstr_sttni_srchnext      1000e2ca     libvcruntime:strstr.obj
 0001:0000d2cd       strstr_sttni_srch          1000e2cd     libvcruntime:strstr.obj
 0001:0000d2d1       strstr_sttni_srchloop      1000e2d1     libvcruntime:strstr.obj
 0001:0000d2f0       strstr_sttni_srchxmm       1000e2f0     libvcruntime:strstr.obj
 0001:0000d303       strstr_sttni_srchcheck     1000e303     libvcruntime:strstr.obj
 0001:0000d307       strstr_sttni_cmploop       1000e307     libvcruntime:strstr.obj
 0001:0000d33f       strstr_sttni_cmpchar       1000e33f     libvcruntime:strstr.obj
 0001:0000d35a       strstr_no_sse              1000e35a     libvcruntime:strstr.obj
 0001:0000d36d       findnext                   1000e36d     libvcruntime:strstr.obj
 0001:0000d380       loop_start                 1000e380     libvcruntime:strstr.obj
 0001:0000d385       in_loop                    1000e385     libvcruntime:strstr.obj
 0001:0000d38d       not_found                  1000e38d     libvcruntime:strstr.obj
 0001:0000d393       first_char_found           1000e393     libvcruntime:strstr.obj
 0001:0000d39c       two_first_chars_equal      1000e39c     libvcruntime:strstr.obj
 0001:0000d39f       compare_loop               1000e39f     libvcruntime:strstr.obj
 0001:0000d3c2       strchr_call                1000e3c2     libvcruntime:strstr.obj
 0001:0000d3ce       match                      1000e3ce     libvcruntime:strstr.obj
 0001:0000d3d5       empty_str2                 1000e3d5     libvcruntime:strstr.obj
 0001:0000d880       $$000000                   1000e880     libvcruntime:memset.obj
 0001:0000d8c5       XMMMov                     1000e8c5     libvcruntime:memset.obj
 0001:0000d900       LargeRangeBytes            1000e900     libvcruntime:memset.obj
 0001:0000d93d       XmmMovSmall                1000e93d     libvcruntime:memset.obj
 0001:0000d950       XmmSmallLoop               1000e950     libvcruntime:memset.obj
 0001:0000d955       MidRangeBytes              1000e955     libvcruntime:memset.obj
 0001:0000d971       XMMTrailingBytes           1000e971     libvcruntime:memset.obj
 0001:0000d985       SmallMov                   1000e985     libvcruntime:memset.obj
 0001:0000d98d       ByteLoop                   1000e98d     libvcruntime:memset.obj
 0001:0000d99b       DwordTest                  1000e99b     libvcruntime:memset.obj
 0001:0000d9ab       QwordTest                  1000e9ab     libvcruntime:memset.obj
 0001:0000d9c0       QwordLoop                  1000e9c0     libvcruntime:memset.obj
 0001:0000d9d3       toend                      1000e9d3     libvcruntime:memset.obj
 0001:0000d9e0       _ValidateLocalCookies      1000e9e0 f   libvcruntime:chandler4.obj
 0001:0000dcdc       ?_FilterSetCurrentException@@YAKPAU_EXCEPTION_POINTERS@@E@Z 1000ecdc f   libvcruntime:ehhelpers.obj
 0001:0000dde0       $$000000                   1000ede0     libvcruntime:strchr.obj
 0001:0000de13       strchr_sse_loop            1000ee13     libvcruntime:strchr.obj
 0001:0000de37       strchr_sse_break           1000ee37     libvcruntime:strchr.obj
 0001:0000de48       strchr_no_sse2             1000ee48     libvcruntime:strchr.obj
 0001:0000de60       str_misaligned             1000ee60     libvcruntime:strchr.obj
 0001:0000de75       main_loop_start            1000ee75     libvcruntime:strchr.obj
 0001:0000de80       main_loop                  1000ee80     libvcruntime:strchr.obj
 0001:0000debc       retnull                    1000eebc     libvcruntime:strchr.obj
 0001:0000debe       retnull_bx                 1000eebe     libvcruntime:strchr.obj
 0001:0000dec2       found_bx                   1000eec2     libvcruntime:strchr.obj
 0001:0000dec7       chr_is_found               1000eec7     libvcruntime:strchr.obj
 0001:0000deef       byte_3                     1000eeef     libvcruntime:strchr.obj
 0001:0000def6       byte_2                     1000eef6     libvcruntime:strchr.obj
 0001:0000defd       byte_1                     1000eefd     libvcruntime:strchr.obj
 0001:0000df04       byte_0                     1000ef04     libvcruntime:strchr.obj
 0001:0000e043       ??$BuildCatchObjectHelperInternal@V__FrameHandler3@@@@YAHPAUEHExceptionRecord@@PAXPBU_s_HandlerType@@PBU_s_CatchableType@@@Z 1000f043 f   libvcruntime:frame.obj
 0001:0000e181       ??$BuildCatchObjectInternal@V__FrameHandler3@@@@YAXPAUEHExceptionRecord@@PAXPBU_s_HandlerType@@PBU_s_CatchableType@@@Z 1000f181 f   libvcruntime:frame.obj
 0001:0000e21a       ??$CatchIt@V__FrameHandler3@@@@YAXPAUEHExceptionRecord@@PAUEHRegistrationNode@@PAU_CONTEXT@@PAXPBU_s_FuncInfo@@PBU_s_HandlerType@@PBU_s_CatchableType@@PBU_s_TryBlockMapEntry@@H1EE@Z 1000f21a f   libvcruntime:frame.obj
 0001:0000e29a       ??$FindHandler@V__FrameHandler3@@@@YAXPAUEHExceptionRecord@@PAUEHRegistrationNode@@PAU_CONTEXT@@PAXPBU_s_FuncInfo@@EH1@Z 1000f29a f   libvcruntime:frame.obj
 0001:0000e63f       ??$FindHandlerForForeignException@V__FrameHandler3@@@@YAXPAUEHExceptionRecord@@PAUEHRegistrationNode@@PAU_CONTEXT@@PAXPBU_s_FuncInfo@@HH1@Z 1000f63f f   libvcruntime:frame.obj
 0001:0000e99e       ?CallCatchBlock@@YAPAXPAUEHExceptionRecord@@PAUEHRegistrationNode@@PAU_CONTEXT@@PBU_s_FuncInfo@@PAXHK@Z 1000f99e f   libvcruntime:frame.obj
 0001:0000eb6d       ?CallUnexpected@@YAXPBU_s_ESTypeList@@@Z 1000fb6d f   libvcruntime:frame.obj
 0001:0000eb8d       __catch$?CallUnexpected@@YAXPBU_s_ESTypeList@@@Z$0 1000fb8d f   libvcruntime:frame.obj
 0001:0000ebac       ?ExFilterRethrow@@YAHPAU_EXCEPTION_POINTERS@@@Z 1000fbac f   libvcruntime:frame.obj
 0001:0000ecf6       ?IsInExceptionSpec@@YAEPAUEHExceptionRecord@@PBU_s_ESTypeList@@@Z 1000fcf6 f   libvcruntime:frame.obj
 0001:0000edc0       $$000000                   1000fdc0     libvcruntime:lowhelpr.obj
 0001:0000edff       _NLG_Continue              1000fdff     libvcruntime:lowhelpr.obj
 0001:0000ee40       $$000000                   1000fe40     libvcruntime:exsup4.obj
 0001:0000ee72       _lu_top                    1000fe72     libvcruntime:exsup4.obj
 0001:0000eed1       _lu_done                   1000fed1     libvcruntime:exsup4.obj
 0001:0000eee0       $$000000                   1000fee0     libvcruntime:exsup4.obj
 0001:0000eee0       __unwind_handler4          1000fee0 f   libvcruntime:exsup4.obj
 0001:0000ef30       $$000000                   1000ff30     libvcruntime:exsup4.obj
 0001:0000ef50       $$000000                   1000ff50     libvcruntime:exsup4.obj
 0001:0000ef70       $$000000                   1000ff70     libvcruntime:exsup4.obj
 0001:0000ef85       ReturnPoint                1000ff85     libvcruntime:exsup4.obj
 0001:0000ef90       $$000000                   1000ff90     libvcruntime:exsup4.obj
 0001:0000f012       ?try_get_function@@YAPAXW4function_id@?A0x14174aea@@QBDQBW4module_id@2@2@Z 10010012 f   libvcruntime:winapi_downlevel.obj
 0001:0000f0b2       ?try_load_library_from_system_directory@@YAPAUHINSTANCE__@@QB_W@Z 100100b2 f   libvcruntime:winapi_downlevel.obj
 0001:0000f280       $$000000                   10010280     libvcruntime:exsup.obj
 0001:0000f290       $$000000                   10010290     libvcruntime:exsup.obj
 0001:0000f29b       __NLG_Go                   1001029b     libvcruntime:exsup.obj
 0001:0000f2b0       $$000000                   100102b0     libvcruntime:exsup.obj
 0001:0000f30d       ??$?RV<lambda_62491a2101a2aba6cc4a769149c84f1f>@@AAV<lambda_826c27fce7726908515bbc79a5266961>@@V<lambda_4e64bbd54b50a7b070e3ea8d795375b6>@@@?$__crt_seh_guarded_call@H@@QAEH$$QAV<lambda_62491a2101a2aba6cc4a769149c84f1f>@@AAV<lambda_826c27fce7726908515bbc79a5266961>@@$$QAV<lambda_4e64bbd54b50a7b070e3ea8d795375b6>@@@Z 1001030d f   libucrt:output.obj
 0001:0000f368       ??$common_vsprintf@Vstandard_base@__crt_stdio_output@@D@@YAH_KQADIQBDAAV__crt_cached_ptd_host@@1@Z 10010368 f   libucrt:output.obj
 0001:000100ea       ??R<lambda_826c27fce7726908515bbc79a5266961>@@QBEHXZ 100110ea f   libucrt:output.obj
 0001:00010630       $LN120                     10011630     libucrt:output.obj
 0001:00010904       $LN129                     10011904     libucrt:output.obj
 0001:000112ea       $LN18                      100122ea     libucrt:output.obj
 0001:000112fe       $LN17                      100122fe     libucrt:output.obj
 0001:00011d2f       ?_fclose_internal@@YAHQAU_iobuf@@AAV__crt_cached_ptd_host@@@Z 10012d2f f   libucrt:fclose.obj
 0001:00011dc6       ?_fclose_nolock_internal@@YAHQAU_iobuf@@AAV__crt_cached_ptd_host@@@Z 10012dc6 f   libucrt:fclose.obj
 0001:00011e84       ??$common_fsopen@D@@YAPAU_iobuf@@QBD0H@Z 10012e84 f   libucrt:fopen.obj
 0001:000121f2       _memcpy_s                  100131f2 f   libucrt:cfout.obj
 0001:000121f2       _memcpy_s                  100131f2 f   libucrt:mbctype.obj
 0001:000121f2       _memcpy_s                  100131f2 f   libucrt:fread.obj
 0001:000121f2       _memcpy_s                  100131f2 f   libucrt:input.obj
 0001:000122ed       ?common_fseek@@YAHV__crt_stdio_stream@@_JHAAV__crt_cached_ptd_host@@@Z 100132ed f   libucrt:fseek.obj
 0001:00012389       ?common_fseek_binary_mode_read_only_fast_track_nolock@@YA_NV__crt_stdio_stream@@_JH@Z 10013389 f   libucrt:fseek.obj
 0001:00012462       ?common_fseek_nolock@@YAHV__crt_stdio_stream@@_JHAAV__crt_cached_ptd_host@@@Z 10013462 f   libucrt:fseek.obj
 0001:00012588       ??$common_ftell@J@@YAJV__crt_stdio_stream@@AAV__crt_cached_ptd_host@@@Z 10013588 f   libucrt:ftell.obj
 0001:00012608       ??$common_ftell_nolock@J@@YAJV__crt_stdio_stream@@AAV__crt_cached_ptd_host@@@Z 10013608 f   libucrt:ftell.obj
 0001:0001263a       ??$common_ftell_nolock@_J@@YA_JV__crt_stdio_stream@@AAV__crt_cached_ptd_host@@@Z 1001363a f   libucrt:ftell.obj
 0001:000127db       ?common_ftell_read_mode_nolock@@YA_JV__crt_stdio_stream@@_J1AAV__crt_cached_ptd_host@@@Z 100137db f   libucrt:ftell.obj
 0001:0001299a       ?common_ftell_translated_utf8_nolock@@YA_JV__crt_stdio_stream@@_JAAV__crt_cached_ptd_host@@@Z 1001399a f   libucrt:ftell.obj
 0001:00012b45       ?count_newline_bytes@@YA_JQBD0W4__crt_lowio_text_mode@@@Z 10013b45 f   libucrt:ftell.obj
 0001:00012bd1       ?_rewind_internal@@YAXQAU_iobuf@@AAV__crt_cached_ptd_host@@@Z 10013bd1 f   libucrt:rewind.obj
 0001:000132e2       ??$?RV<lambda_274ecf0a8038e561263518ab346655e8>@@AAV<lambda_21448eb78dd3c4a522ed7c65a98d88e6>@@V<lambda_0ca1de2171e49cefb1e8dc85c06db622>@@@?$__crt_seh_guarded_call@H@@QAEH$$QAV<lambda_274ecf0a8038e561263518ab346655e8>@@AAV<lambda_21448eb78dd3c4a522ed7c65a98d88e6>@@$$QAV<lambda_0ca1de2171e49cefb1e8dc85c06db622>@@@Z 100142e2 f   libucrt:input.obj
 0001:00013d50       $LN32                      10014d50     libucrt:input.obj
 0001:00013e74       $LN30                      10014e74     libucrt:input.obj
 0001:0001481a       ??R<lambda_21448eb78dd3c4a522ed7c65a98d88e6>@@QBEHXZ 1001581a f   libucrt:input.obj
 0001:0001739a       $LN15                      1001839a     libucrt:input.obj
 0001:00017aeb       $LN17                      10018aeb     libucrt:input.obj
 0001:00017aff       $LN16                      10018aff     libucrt:input.obj
 0001:00017d36       ??$common_atof_l@D@@YANQBDQAU__crt_locale_pointers@@@Z 10018d36 f   libucrt:atof.obj
 0001:000188e1       ??$?RV<lambda_03b1d95aef87969028cfba75ccab2455>@@AAV<lambda_6e4b09c48022b2350581041d5f6b0c4c>@@V<lambda_22bdf7517842c4b3e53723af5aa32b9e>@@@?$__crt_seh_guarded_call@X@@QAEX$$QAV<lambda_03b1d95aef87969028cfba75ccab2455>@@AAV<lambda_6e4b09c48022b2350581041d5f6b0c4c>@@$$QAV<lambda_22bdf7517842c4b3e53723af5aa32b9e>@@@Z 100198e1 f   libucrt:exit.obj
 0001:0001892e       ??R<lambda_6e4b09c48022b2350581041d5f6b0c4c>@@QBE@XZ 1001992e f   libucrt:exit.obj
 0001:00018a19       ?common_exit@@YAXHW4_crt_exit_cleanup_mode@@W4_crt_exit_return_mode@@@Z 10019a19 f   libucrt:exit.obj
 0001:00018ab0       ?exit_or_terminate_process@@YAXI@Z 10019ab0 f   libucrt:exit.obj
 0001:00018ae1       ?is_managed_app@@YA_NXZ    10019ae1 f   libucrt:exit.obj
 0001:00018b24       ?should_call_terminate_process@@YA_NXZ 10019b24 f   libucrt:exit.obj
 0001:00018b46       ?try_cor_exit_process@@YAXI@Z 10019b46 f   libucrt:exit.obj
 0001:00018c03       ??$common_configure_argv@D@@YAHW4_crt_argv_mode@@@Z 10019c03 f   libucrt:argv_parsing.obj
 0001:00018d40       ??$parse_command_line@D@@YAXPADPAPAD0PAI2@Z 10019d40 f   libucrt:argv_parsing.obj
 0001:00018f0e       ??$common_initialize_environment_nolock@D@@YAHXZ 10019f0e f   libucrt:environment_initialization.obj
 0001:00018f68       ??$create_environment@D@@YAQAPADQAD@Z 10019f68 f   libucrt:environment_initialization.obj
 0001:0001904a       ??$free_environment@D@@YAXQAPAD@Z 1001a04a f   libucrt:environment_initialization.obj
 0001:0001904a       ??$free_environment@_W@@YAXQAPA_W@Z 1001a04a f   libucrt:environment_initialization.obj
 0001:00019079       ??$uninitialize_environment_internal@D@@YAXAAPAPAD@Z 1001a079 f   libucrt:environment_initialization.obj
 0001:00019094       ??$uninitialize_environment_internal@_W@@YAXAAPAPA_W@Z 1001a094 f   libucrt:environment_initialization.obj
 0001:00019105       ??$?RV<lambda_69a2805e680e0e292e8ba93315fe43a8>@@AAV<lambda_f03950bc5685219e0bcd2087efbe011e>@@V<lambda_03fcd07e894ec930e3f35da366ca99d6>@@@?$__crt_seh_guarded_call@H@@QAEH$$QAV<lambda_69a2805e680e0e292e8ba93315fe43a8>@@AAV<lambda_f03950bc5685219e0bcd2087efbe011e>@@$$QAV<lambda_03fcd07e894ec930e3f35da366ca99d6>@@@Z 1001a105 f   libucrt:onexit.obj
 0001:00019160       ??R<lambda_f03950bc5685219e0bcd2087efbe011e>@@QBEHXZ 1001a160 f   libucrt:onexit.obj
 0001:000192a1       _uninitialize_allocated_io_buffers 1001a2a1 f   libucrt:initialization.obj
 0001:000192f1       _initialize_environment    1001a2f1 f   libucrt:initialization.obj
 0001:000192f1       _initialize_global_state_isolation 1001a2f1 f   libucrt:initialization.obj
 0001:000192f1       _report_memory_leaks       1001a2f1 f   libucrt:initialization.obj
 0001:000192f1       _uninitialize_c            1001a2f1 f   libucrt:initialization.obj
 0001:000192f1       _uninitialize_global_state_isolation 1001a2f1 f   libucrt:initialization.obj
 0001:000192f4       _initialize_global_variables 1001a2f4 f   libucrt:initialization.obj
 0001:00019301       _initialize_c              1001a301 f   libucrt:initialization.obj
 0001:0001931b       _uninitialize_environment  1001a31b f   libucrt:initialization.obj
 0001:00019323       _initialize_pointers       1001a323 f   libucrt:initialization.obj
 0001:00019351       _uninitialize_vcruntime    1001a351 f   libucrt:initialization.obj
 0001:0001935a       _uninitialize_allocated_memory 1001a35a f   libucrt:initialization.obj
 0001:00019390       ??R<lambda_af42a3ee9806e9a7305d451646e05244>@@QBEXAAPAU__crt_multibyte_data@@@Z 1001a390 f   libucrt:initialization.obj
 0001:000194b0       $$000000                   1001a4b0     libucrt:strncmp.obj
 0001:00019a8a       ?fe_to_nearest@@YA_NQBN_KF@Z 1001aa8a f   libucrt:cvt.obj
 0001:00019b2d       ?fp_format_a@@YAHQBNPADIQADIH_NIW4__acrt_rounding_mode@@AAV__crt_cached_ptd_host@@@Z 1001ab2d f   libucrt:cvt.obj
 0001:00019e59       ?fp_format_e@@YAHQBNQADI1IH_NIW4__acrt_rounding_mode@@AAV__crt_cached_ptd_host@@@Z 1001ae59 f   libucrt:cvt.obj
 0001:00019efd       ?fp_format_e_internal@@YAHQADIH_NIQAU_strflt@@1AAV__crt_cached_ptd_host@@@Z 1001aefd f   libucrt:cvt.obj
 0001:0001a042       ?fp_format_f@@YAHQBNQADI1IHW4__acrt_rounding_mode@@AAV__crt_cached_ptd_host@@@Z 1001b042 f   libucrt:cvt.obj
 0001:0001a0d8       ?fp_format_f_internal@@YAHQADIHQAU_strflt@@_NAAV__crt_cached_ptd_host@@@Z 1001b0d8 f   libucrt:cvt.obj
 0001:0001a1c6       ?fp_format_g@@YAHQBNQADI1IH_NIW4__acrt_rounding_mode@@AAV__crt_cached_ptd_host@@@Z 1001b1c6 f   libucrt:cvt.obj
 0001:0001a295       ?fp_format_nan_or_infinity@@YAHW4__acrt_fp_class@@_NPADI1@Z 1001b295 f   libucrt:cvt.obj
 0001:0001a32a       ?shift_bytes@@YAXQADI0H@Z  1001b32a f   libucrt:cvt.obj
 0001:0001a35e       ?should_round_up@@YA_NQBN_KFW4__acrt_rounding_mode@@@Z 1001b35e f   libucrt:cvt.obj
 0001:0001ab21       ??$?RV<lambda_15ade71b0218206bbe3333a0c9b79046>@@AAV<lambda_da44e0f8b0f19ba52fefafb335991732>@@V<lambda_207f2d024fc103971653565357d6cd41>@@@?$__crt_seh_guarded_call@X@@QAEX$$QAV<lambda_15ade71b0218206bbe3333a0c9b79046>@@AAV<lambda_da44e0f8b0f19ba52fefafb335991732>@@$$QAV<lambda_207f2d024fc103971653565357d6cd41>@@@Z 1001bb21 f   libucrt:per_thread_data.obj
 0001:0001ab73       ??$?RV<lambda_38edbb1296d33220d7e4dd0ed76b244a>@@AAV<lambda_5ce1d447e08cb34b2473517608e21441>@@V<lambda_fb385d3da700c9147fc39e65dd577a8c>@@@?$__crt_seh_guarded_call@X@@QAEX$$QAV<lambda_38edbb1296d33220d7e4dd0ed76b244a>@@AAV<lambda_5ce1d447e08cb34b2473517608e21441>@@$$QAV<lambda_fb385d3da700c9147fc39e65dd577a8c>@@@Z 1001bb73 f   libucrt:per_thread_data.obj
 0001:0001abde       ??$?RV<lambda_6affb1475c98b40b75cdec977db92e3c>@@AAV<lambda_b8d4b9c228a6ecc3f80208dbb4b4a104>@@V<lambda_608742c3c92a14382c1684fc64f96c88>@@@?$__crt_seh_guarded_call@X@@QAEX$$QAV<lambda_6affb1475c98b40b75cdec977db92e3c>@@AAV<lambda_b8d4b9c228a6ecc3f80208dbb4b4a104>@@$$QAV<lambda_608742c3c92a14382c1684fc64f96c88>@@@Z 1001bbde f   libucrt:per_thread_data.obj
 0001:0001ac33       ??$?RV<lambda_a7e850c220f1c8d1e6efeecdedd162c6>@@AAV<lambda_46720907175c18b6c9d2717bc0d2d362>@@V<lambda_9048902d66e8d99359bc9897bbb930a8>@@@?$__crt_seh_guarded_call@X@@QAEX$$QAV<lambda_a7e850c220f1c8d1e6efeecdedd162c6>@@AAV<lambda_46720907175c18b6c9d2717bc0d2d362>@@$$QAV<lambda_9048902d66e8d99359bc9897bbb930a8>@@@Z 1001bc33 f   libucrt:per_thread_data.obj
 0001:0001ac8d       ?construct_ptd@@YAXQAU__acrt_ptd@@QAPAU__crt_locale_data@@@Z 1001bc8d f   libucrt:per_thread_data.obj
 0001:0001ad26       ?destroy_fls@@YGXPAX@Z     1001bd26 f   libucrt:per_thread_data.obj
 0001:0001ad47       ?destroy_ptd@@YAXQAU__acrt_ptd@@@Z 1001bd47 f   libucrt:per_thread_data.obj
 0001:0001ae14       ?replace_current_thread_locale_nolock@@YAXQAU__acrt_ptd@@QAU__crt_locale_data@@@Z 1001be14 f   libucrt:per_thread_data.obj
 0001:0001b176       ??$?RV<lambda_e5124f882df8998aaf41531e079ba474>@@AAV<lambda_3e16ef9562a7dcce91392c22ab16ea36>@@V<lambda_e25ca0880e6ef98be67edffd8c599615>@@@?$__crt_seh_guarded_call@X@@QAEX$$QAV<lambda_e5124f882df8998aaf41531e079ba474>@@AAV<lambda_3e16ef9562a7dcce91392c22ab16ea36>@@$$QAV<lambda_e25ca0880e6ef98be67edffd8c599615>@@@Z 1001c176 f   libucrt:wsetlocale.obj
 0001:0001b216       ?initialize_inherited_file_handles_nolock@@YAXXZ 1001c216 f   libucrt:ioinit.obj
 0001:0001b2cc       ?initialize_stdio_handles_nolock@@YAXXZ 1001c2cc f   libucrt:ioinit.obj
 0001:0001b408       ??$?RV<lambda_d422a76eb4c3bf3ad751449ab71a6ea4>@@AAV<lambda_c9ba49e555ba839a7b07aa3fbecb7617>@@V<lambda_9476263c8ee91a25d21c55370bdb50de>@@@?$__crt_seh_guarded_call@H@@QAEH$$QAV<lambda_d422a76eb4c3bf3ad751449ab71a6ea4>@@AAV<lambda_c9ba49e555ba839a7b07aa3fbecb7617>@@$$QAV<lambda_9476263c8ee91a25d21c55370bdb50de>@@@Z 1001c408 f   libucrt:close.obj
 0001:0001b6b0       ?find_or_allocate_unused_stream_nolock@@YA?AV__crt_stdio_stream@@XZ 1001c6b0 f   libucrt:stream.obj
 0001:0001b7b2       ??$?RV<lambda_2866be3712abc81a800a822484c830d8>@@AAV<lambda_39ca0ed439415581b5b15c265174cece>@@V<lambda_2b24c74d71094a6cd0cb82e44167d71b>@@@?$__crt_seh_guarded_call@X@@QAEX$$QAV<lambda_2866be3712abc81a800a822484c830d8>@@AAV<lambda_39ca0ed439415581b5b15c265174cece>@@$$QAV<lambda_2b24c74d71094a6cd0cb82e44167d71b>@@@Z 1001c7b2 f   libucrt:fflush.obj
 0001:0001b83e       ??$?RV<lambda_2cc53f568c5a2bb6f192f930a45d44ea>@@AAV<lambda_ab61a845afdef5b7c387490eaf3616ee>@@V<lambda_c2ffc0b7726aa6be21d5f0026187e748>@@@?$__crt_seh_guarded_call@X@@QAEX$$QAV<lambda_2cc53f568c5a2bb6f192f930a45d44ea>@@AAV<lambda_ab61a845afdef5b7c387490eaf3616ee>@@$$QAV<lambda_c2ffc0b7726aa6be21d5f0026187e748>@@@Z 1001c83e f   libucrt:fflush.obj
 0001:0001b8ea       ?common_flush_all@@YAH_N@Z 1001c8ea f   libucrt:fflush.obj
 0001:0001b937       ?common_flush_all_should_try_to_flush_stream@@YA_NV__crt_stdio_stream@@QAH@Z 1001c937 f   libucrt:fflush.obj
 0001:0001b96a       ?is_stream_flushable_or_commitable@@YA_NJ@Z 1001c96a f   libucrt:fflush.obj
 0001:0001bc90       ??$common_openfile@D@@YAPAU_iobuf@@QBD0HV__crt_stdio_stream@@@Z 1001cc90 f   libucrt:openfile.obj
 0001:0001be32       ??$translate_text_mode_nolock@D@@YAHHQADI@Z 1001ce32 f   libucrt:read.obj
 0001:0001bf7e       ??$translate_text_mode_nolock@_W@@YAHHQA_WI@Z 1001cf7e f   libucrt:read.obj
 0001:0001c126       ?translate_ansi_or_utf8_nolock@@YAHHQADIQA_WI@Z 1001d126 f   libucrt:read.obj
 0001:0001c27d       ?translate_utf16_from_console_nolock@@YAHHQA_WI@Z 1001d27d f   libucrt:read.obj
 0001:0001c7ab       ??$common_refill_and_read_nolock@D@@YAHV__crt_stdio_stream@@@Z 1001d7ab f   libucrt:_filbuf.obj
 0001:0001c945       ??$common_lseek@J@@YAJHJHAAV__crt_cached_ptd_host@@@Z 1001d945 f   libucrt:lseek.obj
 0001:0001ca4d       ??$common_lseek@_J@@YA_JH_JHAAV__crt_cached_ptd_host@@@Z 1001da4d f   libucrt:lseek.obj
 0001:0001cb73       ??$common_lseek_nolock@J@@YAJHJHAAV__crt_cached_ptd_host@@@Z 1001db73 f   libucrt:lseek.obj
 0001:0001cbd0       ??$common_lseek_nolock@_J@@YA_JH_JHAAV__crt_cached_ptd_host@@@Z 1001dbd0 f   libucrt:lseek.obj
 0001:0001cc53       ?common_lseek_do_seek_nolock@@YAJQAXJHAAV__crt_cached_ptd_host@@@Z 1001dc53 f   libucrt:lseek.obj
 0001:0001d196       ?try_get_AreFileApisANSI@@YAP6GHXZXZ 1001e196 f   libucrt:winapi_thunks.obj
 0001:0001d1b0       ?try_get_LCMapStringEx@@YAP6GHPB_WK0HPA_WHPAU_nlsversioninfo@@PAXJ@ZXZ 1001e1b0 f   libucrt:winapi_thunks.obj
 0001:0001d1ca       ?try_get_LocaleNameToLCID@@YAP6GKPB_WK@ZXZ 1001e1ca f   libucrt:winapi_thunks.obj
 0001:0001d1e4       ?try_get_first_available_module@@YAPAUHINSTANCE__@@QBW4module_id@?A0x391cf84c@@0@Z 1001e1e4 f   libucrt:winapi_thunks.obj
 0001:0001d2af       ?try_get_function@@YAPAXW4function_id@?A0x391cf84c@@QBDQBW4module_id@2@2@Z 1001e2af f   libucrt:winapi_thunks.obj
 0001:0001d742       ?<lambda_invoker_cdecl>@<lambda_838c7f62c73c983481e27c09e84b0b5d>@@CAHPBX0@Z 1001e742 f   libucrt:argv_wildcards.obj
 0001:0001d820       ??$common_expand_argv_wildcards@D@@YAHQAPADQAPAPAD@Z 1001e820 f   libucrt:argv_wildcards.obj
 0001:0001d99d       ??$copy_and_add_argument_to_buffer@D@@YAHQBD0IAAV?$argument_list@D@?A0x5f5c8891@@@Z 1001e99d f   libucrt:argv_wildcards.obj
 0001:0001da4e       ??$expand_argument_wildcards@D@@YAHQAD0AAV?$argument_list@D@?A0x5f5c8891@@@Z 1001ea4e f   libucrt:argv_wildcards.obj
 0001:0001dcd3       ??1?$argument_list@D@?A0x5f5c8891@@QAE@XZ 1001ecd3 f   libucrt:argv_wildcards.obj
 0001:0001dd5c       ?expand_if_necessary@?$argument_list@D@?A0x5f5c8891@@AAEHXZ 1001ed5c f   libucrt:argv_wildcards.obj
 0001:0001df8c       ??$?RV<lambda_ceb1ee4838e85a9d631eb091e2fbe199>@@AAV<lambda_ae742caa10f662c28703da3d2ea5e57e>@@V<lambda_cd08b5d6af4937fe54fc07d0c9bf6b37>@@@?$__crt_seh_guarded_call@X@@QAEX$$QAV<lambda_ceb1ee4838e85a9d631eb091e2fbe199>@@AAV<lambda_ae742caa10f662c28703da3d2ea5e57e>@@$$QAV<lambda_cd08b5d6af4937fe54fc07d0c9bf6b37>@@@Z 1001ef8c f   libucrt:mbctype.obj
 0001:0001dfd9       ??R<lambda_ae742caa10f662c28703da3d2ea5e57e>@@QBEXXZ 1001efd9 f   libucrt:mbctype.obj
 0001:0001e05c       ?CPtoLocaleName@@YAPB_WH@Z 1001f05c f   libucrt:mbctype.obj
 0001:0001e09a       ?getSystemCP@@YAHH@Z       1001f09a f   libucrt:mbctype.obj
 0001:0001e10b       ?setSBCS@@YAXPAU__crt_multibyte_data@@@Z 1001f10b f   libucrt:mbctype.obj
 0001:0001e16e       ?setSBUpLow@@YAXPAU__crt_multibyte_data@@@Z 1001f16e f   libucrt:mbctype.obj
 0001:0001e31a       ?setmbcp_internal@@YAHH_NQAU__acrt_ptd@@QAPAU__crt_multibyte_data@@@Z 1001f31a f   libucrt:mbctype.obj
 0001:0001e46f       ?update_thread_multibyte_data_internal@@YAPAU__crt_multibyte_data@@QAU__acrt_ptd@@QAPAU1@@Z 1001f46f f   libucrt:mbctype.obj
 0001:0001e772       ?x_ismbbtype_l@@YAHPAU__crt_locale_pointers@@IHH@Z 1001f772 f   libucrt:ismbbyte.obj
 0001:0001e8aa       ?find_end_of_double_null_terminated_sequence@@YAPB_WQB_W@Z 1001f8aa f   libucrt:get_environment_from_os.obj
 0001:0001eaa2       ??$?RV<lambda_cbab9ec6f41b0180b23cc171c22676b0>@@AAV<lambda_44731a7d0e6d81c3e6aa82d741081786>@@V<lambda_4b292cb8dd18144e164572427af410ab>@@@?$__crt_seh_guarded_call@P6AXH@Z@@QAEP6AXH@Z$$QAV<lambda_cbab9ec6f41b0180b23cc171c22676b0>@@AAV<lambda_44731a7d0e6d81c3e6aa82d741081786>@@$$QAV<lambda_4b292cb8dd18144e164572427af410ab>@@@Z 1001faa2 f   libucrt:signal.obj
 0001:0001eb06       ?get_global_action_nolock@@YAPAP6AXH@ZH@Z 1001fb06 f   libucrt:signal.obj
 0001:0001eb48       ?siglookup@@YAPAU__crt_signal_action_t@@HQAU1@@Z 1001fb48 f   libucrt:signal.obj
 0001:0001f1a2       ?should_round_up@@YA_NQBD0HW4__acrt_has_trailing_digits@@W4__acrt_rounding_mode@@@Z 100201a2 f   libucrt:_fptostr.obj
 0001:00020903       ??R<lambda_e96123212306c92459f955e8e4eac55d>@@QBEIPBD@Z 10021903 f   libucrt:mbrtowc.obj
 0001:00020b25       ??$common_flush_and_write_nolock@D@@YAHHV__crt_stdio_stream@@AAV__crt_cached_ptd_host@@@Z 10021b25 f   libucrt:_flsbuf.obj
 0001:00020c1b       ??$write_buffer_nolock@D@@YA_NDV__crt_stdio_stream@@AAV__crt_cached_ptd_host@@@Z 10021c1b f   libucrt:_flsbuf.obj
 0001:00020ced       ?stream_is_at_end_of_file_nolock@@YA_NV__crt_stdio_stream@@@Z 10021ced f   libucrt:_flsbuf.obj
 0001:00020f3a       ?free_crt_array_internal@@YAXQAPBXI@Z 10021f3a f   libucrt:inittime.obj
 0001:000215a0       ??$?RV<lambda_9e9de3de5fa147e2223d7db92bc10aa6>@@AAV<lambda_38ce7e780aa69e748d6df282ebc68efe>@@V<lambda_8ca6da459f0f6780f1cff60fdc3d00e5>@@@?$__crt_seh_guarded_call@H@@QAEH$$QAV<lambda_9e9de3de5fa147e2223d7db92bc10aa6>@@AAV<lambda_38ce7e780aa69e748d6df282ebc68efe>@@$$QAV<lambda_8ca6da459f0f6780f1cff60fdc3d00e5>@@@Z 100225a0 f   libucrt:commit.obj
 0001:000216bf       ?write_double_translated_ansi_nolock@@YA?AUwrite_result@?A0x17268360@@HQBDIAAV__crt_cached_ptd_host@@@Z 100226bf f   libucrt:write.obj
 0001:00021a91       ?write_double_translated_unicode_nolock@@YA?AUwrite_result@?A0x17268360@@QBDI@Z 10022a91 f   libucrt:write.obj
 0001:00021af9       ?write_requires_double_translation_nolock@@YA_NHAAV__crt_cached_ptd_host@@@Z 10022af9 f   libucrt:write.obj
 0001:00021b77       ?write_text_ansi_nolock@@YA?AUwrite_result@?A0x17268360@@HQBDI@Z 10022b77 f   libucrt:write.obj
 0001:00021c52       ?write_text_utf16le_nolock@@YA?AUwrite_result@?A0x17268360@@HQBDI@Z 10022c52 f   libucrt:write.obj
 0001:00021d3b       ?write_text_utf8_nolock@@YA?AUwrite_result@?A0x17268360@@HQBDI@Z 10022d3b f   libucrt:write.obj
 0001:00022333       ??$common_sopen_dispatch@D@@YAHQBDHHHQAHH@Z 10023333 f   libucrt:open.obj
 0001:000223f4       ?configure_text_mode@@YAHHUfile_options@?A0xa9d50aae@@HAAW4__crt_lowio_text_mode@@@Z 100233f4 f   libucrt:open.obj
 0001:00022642       ?create_file@@YAPAXQB_WQAU_SECURITY_ATTRIBUTES@@Ufile_options@?A0xa9d50aae@@@Z 10023642 f   libucrt:open.obj
 0001:00022667       ?decode_open_create_flags@@YAKH@Z 10023667 f   libucrt:open.obj
 0001:000226d7       ?decode_options@@YA?AUfile_options@?A0xa9d50aae@@HHH@Z 100236d7 f   libucrt:open.obj
 0001:00022851       ?truncate_ctrl_z_if_present@@YAHH@Z 10023851 f   libucrt:open.obj
 0001:00022d0f       ?to_abstract_control@@YA?AW4__acrt_fenv_abstract_control@@W4__acrt_fenv_machine_sse_control@@@Z 10023d0f f   libucrt:_fenvutils.obj
 0001:00022dbf       ?to_abstract_control@@YA?AW4__acrt_fenv_abstract_control@@W4__acrt_fenv_machine_x87_control@@@Z 10023dbf f   libucrt:_fenvutils.obj
 0001:00022e6c       ?to_machine_sse_control@@YA?AW4__acrt_fenv_machine_sse_control@@W4__acrt_fenv_abstract_control@@@Z 10023e6c f   libucrt:_fenvutils.obj
 0001:00022f22       ?to_machine_x87_control@@YA?AW4__acrt_fenv_machine_x87_control@@W4__acrt_fenv_abstract_control@@@Z 10023f22 f   libucrt:_fenvutils.obj
 0001:00023299       ?GetTableIndexFromLocaleName@@YAHPB_W@Z 10024299 f   libucrt:lcidtoname_downlevel.obj
 0001:0002380e       ??$common_tcsncpy_s@D@@YAHQADIQBDI@Z 1002480e f   libucrt:strncpy_s.obj
 0001:000238d0       $$000000                   100248d0     libucrt:strpbrk.obj
 0001:000239b4       ?__acrt_LCMapStringA_stat@@YAHPAU__crt_locale_pointers@@PB_WKPBDHPADHHH@Z 100249b4 f   libucrt:lcmapstringa.obj
 0001:00023beb       ?initialize_multibyte@@YAHXZ 10024beb f   libucrt:multibyte_initializer.obj
 0001:00023db0       $$000000                   10024db0     libucrt:log10_impl.obj
 0001:00023ec0       $$000000                   10024ec0     libucrt:ceil_pentium4.obj
 0001:00024210       $$000000                   10025210     libucrt:_strnicm.obj
 0001:000245b0       ___hw_cw_sse2              100255b0 f   libucrt:ieee87.obj
 0001:00024a36       __hw_cw                    10025a36 f   libucrt:ieee87.obj
 0001:00024af0       $$000000                   10025af0     libucrt:log10_pentium4.obj
 0001:00024d80       $$000000                   10025d80     libucrt:87tran.obj
 0001:00024f90       $$000000                   10025f90     libucrt:87disp.obj
 0001:000251f0       $$000000                   100261f0     libucrt:common.obj
 0001:00025380       $$000000                   10026380     libucrt:genexcep.obj
 0001:0002567c       ?__dcrt_lowio_initialize_console_output@@YAXXZ 1002667c f   libucrt:initcon.obj
 0001:00026640       $$000000                   10027640     LIBCMT:ulldvrm.obj
 0001:00026671       L1                         10027671     LIBCMT:ulldvrm.obj
 0001:0002667f       L3                         1002767f     LIBCMT:ulldvrm.obj
 0001:000266ad       L4                         100276ad     LIBCMT:ulldvrm.obj
 0001:000266b6       L5                         100276b6     LIBCMT:ulldvrm.obj
 0001:000266b8       L2                         100276b8     LIBCMT:ulldvrm.obj
 0001:000266e0       $$000000                   100276e0     LIBCMT:lldiv.obj
 0001:00026701       L1                         10027701     LIBCMT:lldiv.obj
 0001:0002671d       L2                         1002771d     LIBCMT:lldiv.obj
 0001:00026739       L3                         10027739     LIBCMT:lldiv.obj
 0001:00026747       L5                         10027747     LIBCMT:lldiv.obj
 0001:00026775       L6                         10027775     LIBCMT:lldiv.obj
 0001:00026776       L7                         10027776     LIBCMT:lldiv.obj
 0001:0002677a       L4                         1002777a     LIBCMT:lldiv.obj
 0001:00026784       L8                         10027784     LIBCMT:lldiv.obj
 0001:00026790       $$000000                   10027790     LIBCMT:chkstk.obj
 0001:000267a4       cs10                       100277a4     LIBCMT:chkstk.obj
 0001:000267b2       cs20                       100277b2     LIBCMT:chkstk.obj
 0001:000267c0       $$000000                   100277c0     LIBCMT:llmul.obj
 0001:000267d9       hard                       100277d9     LIBCMT:llmul.obj
 0001:00026800       $$000000                   10027800     LIBCMT:ulldiv.obj
 0001:00026822       L1                         10027822     LIBCMT:ulldiv.obj
 0001:00026830       L3                         10027830     LIBCMT:ulldiv.obj
 0001:0002685e       L4                         1002785e     LIBCMT:ulldiv.obj
 0001:0002685f       L5                         1002785f     LIBCMT:ulldiv.obj
 0001:00026863       L2                         10027863     LIBCMT:ulldiv.obj
 0001:00026870       $$000000                   10027870     LIBCMT:llshl.obj
 0001:00026880       MORE32                     10027880     LIBCMT:llshl.obj
 0001:0002688a       RETZERO                    1002788a     LIBCMT:llshl.obj
 0001:00026890       $$000000                   10027890     LIBCMT:ullshr.obj
 0001:000268a0       MORE32                     100278a0     LIBCMT:ullshr.obj
 0001:000268aa       RETZERO                    100278aa     LIBCMT:ullshr.obj
 0001:000268b0       $$000000                   100278b0     LIBCMT:lldvrm.obj
 0001:000268d4       L1                         100278d4     LIBCMT:lldvrm.obj
 0001:000268f0       L2                         100278f0     LIBCMT:lldvrm.obj
 0001:0002691c       L3                         1002791c     LIBCMT:lldvrm.obj
 0001:0002692a       L5                         1002792a     LIBCMT:lldvrm.obj
 0001:00026958       L6                         10027958     LIBCMT:lldvrm.obj
 0001:00026961       L7                         10027961     LIBCMT:lldvrm.obj
 0001:00026963       L4                         10027963     LIBCMT:lldvrm.obj
 0001:00026975       L9                         10027975     LIBCMT:lldvrm.obj
 0001:00026989       L8                         10027989     LIBCMT:lldvrm.obj
 0001:00026990       $$000000                   10027990     LIBCMT:ftol2.obj
 0001:000269a0       $$000000                   100279a0     LIBCMT:ftol2.obj
 0001:000269b1       L3B                        100279b1     LIBCMT:ftol2.obj
 0001:000269f4       L3F                        100279f4     LIBCMT:ftol2.obj
 0001:000269fc       L40                        100279fc     LIBCMT:ftol2.obj
 0001:00026a0f       L41                        10027a0f     LIBCMT:ftol2.obj
 0001:00026a20       $$000000                   10027a20     LIBCMT:alloca16.obj
 0001:00026a36       alloca_8                   10027a36     LIBCMT:alloca16.obj
 0001:00026a50       $$000000                   10027a50     libvcruntime:strrchr.obj
 0001:00026a8d       strrchr_sse_loop           10027a8d     libvcruntime:strrchr.obj
 0001:00026abd       strrchr_sse_break          10027abd     libvcruntime:strrchr.obj
 0001:00026add       strrchr_sttni              10027add     libvcruntime:strrchr.obj
 0001:00026aef       strrchr_sttni_chars        10027aef     libvcruntime:strrchr.obj
 0001:00026b04       strrchr_sttni_aligned      10027b04     libvcruntime:strrchr.obj
 0001:00026b08       strrchr_sttni_xmm          10027b08     libvcruntime:strrchr.obj
 0001:00026b1b       exit                       10027b1b     libvcruntime:strrchr.obj
 0001:00026b1e       strrchr_zero               10027b1e     libvcruntime:strrchr.obj
 0001:00026b43       strchr_zero_loop           10027b43     libvcruntime:strrchr.obj
 0001:00026b57       strchr_zero_result         10027b57     libvcruntime:strrchr.obj
 0001:00026b5e       strrchr_no_sse             10027b5e     libvcruntime:strrchr.obj
 0001:00026b81       returndi                   10027b81     libvcruntime:strrchr.obj
 0001:00026b83       toend                      10027b83     libvcruntime:strrchr.obj
 0001:00026c00       __ehhandler$?CallUnexpected@@YAXPBU_s_ESTypeList@@@Z 10027c00 f   libvcruntime:frame.obj
 0001:00026c1d       __ehhandler$?common_exit@@YAXHW4_crt_exit_cleanup_mode@@W4_crt_exit_return_mode@@@Z 10027c1d f   libucrt:exit.obj
 0001:00026c3a       __ehhandler$?try_cor_exit_process@@YAXI@Z 10027c3a f   libucrt:exit.obj
 0001:00026c57       __ehhandler$___dcrt_uninitialize_environments_nolock 10027c57 f   libucrt:environment_initialization.obj
 0001:00026c74       __ehhandler$__execute_onexit_table 10027c74 f   libucrt:onexit.obj
 0001:00026c91       __ehhandler$?write_double_translated_ansi_nolock@@YA?AUwrite_result@?A0x17268360@@HQBDIAAV__crt_cached_ptd_host@@@Z 10027c91 f   libucrt:write.obj
 0002:00000140       ?replace_CrState$initializer$@@3P6AXXZA 10028140     core.obj
 0002:00000180       ?NEW_LINE@h3@@3QBDB        10028180     heroes.obj
 0002:00000184       ?KEY_EQUALS@h3@@3QBDB      10028184     heroes.obj
 0002:00000188       ?BOM_HEADER@h3@@3QBDB      10028188     heroes.obj
 0002:0000018c       $SG63886                   1002818c     heroes.obj
 0002:00000198       ?DLGBLUEBOX@HDassets@NH3Dlg@h3@@3QBDB 10028198     heroes.obj
 0002:0000019c       $SG63895                   1002819c     heroes.obj
 0002:000001ac       ?DLGBLUEBACK@HDassets@NH3Dlg@h3@@3QBDB 100281ac     heroes.obj
 0002:000001b0       $SG63897                   100281b0     heroes.obj
 0002:000001c0       ?LINE_SEPARATOR@HDassets@NH3Dlg@h3@@3QBDB 100281c0     heroes.obj
 0002:000001c4       $SG63899                   100281c4     heroes.obj
 0002:000001d4       ?HD_STATUSBAR_PCX@HDassets@NH3Dlg@h3@@3QBDB 100281d4     heroes.obj
 0002:000001d8       $SG63901                   100281d8     heroes.obj
 0002:000001e8       $SG63903                   100281e8     heroes.obj
 0002:000001f8       $SG63905                   100281f8     heroes.obj
 0002:00000204       $SG63907                   10028204     heroes.obj
 0002:00000210       $SG63909                   10028210     heroes.obj
 0002:00000220       ?FRAME_LU@HDassets@NH3Dlg@h3@@3QBDB 10028220     heroes.obj
 0002:00000224       $SG63911                   10028224     heroes.obj
 0002:00000234       ?FRAME_LD@HDassets@NH3Dlg@h3@@3QBDB 10028234     heroes.obj
 0002:00000238       $SG63913                   10028238     heroes.obj
 0002:00000248       ?FRAME_RU@HDassets@NH3Dlg@h3@@3QBDB 10028248     heroes.obj
 0002:0000024c       $SG63915                   1002824c     heroes.obj
 0002:0000025c       ?FRAME_RD@HDassets@NH3Dlg@h3@@3QBDB 1002825c     heroes.obj
 0002:00000260       $SG63917                   10028260     heroes.obj
 0002:00000270       ?FRAME_U@HDassets@NH3Dlg@h3@@3QBDB 10028270     heroes.obj
 0002:00000274       $SG63919                   10028274     heroes.obj
 0002:00000280       ?FRAME_D@HDassets@NH3Dlg@h3@@3QBDB 10028280     heroes.obj
 0002:00000284       $SG63921                   10028284     heroes.obj
 0002:00000290       ?FRAME_L@HDassets@NH3Dlg@h3@@3QBDB 10028290     heroes.obj
 0002:00000294       $SG63923                   10028294     heroes.obj
 0002:000002a0       ?FRAME_R@HDassets@NH3Dlg@h3@@3QBDB 100282a0     heroes.obj
 0002:000002a4       $SG63925                   100282a4     heroes.obj
 0002:000002b0       ?_Fake_alloc@std@@3U_Fake_allocator@1@B 100282b0     amethyst.obj
 0002:000002b4       $SG77268                   100282b4     amethyst.obj
 0002:000002c0       ?DLGBLUEBOX@HDassets@NH3Dlg@h3@@3QBDB 100282c0     amethyst.obj
 0002:000002c4       $SG77277                   100282c4     amethyst.obj
 0002:000002d4       ?DLGBLUEBACK@HDassets@NH3Dlg@h3@@3QBDB 100282d4     amethyst.obj
 0002:000002d8       $SG77279                   100282d8     amethyst.obj
 0002:000002e8       ?LINE_SEPARATOR@HDassets@NH3Dlg@h3@@3QBDB 100282e8     amethyst.obj
 0002:000002ec       $SG77281                   100282ec     amethyst.obj
 0002:000002fc       ?HD_STATUSBAR_PCX@HDassets@NH3Dlg@h3@@3QBDB 100282fc     amethyst.obj
 0002:00000300       $SG77283                   10028300     amethyst.obj
 0002:00000310       $SG77285                   10028310     amethyst.obj
 0002:00000320       $SG77287                   10028320     amethyst.obj
 0002:0000032c       $SG77289                   1002832c     amethyst.obj
 0002:00000338       $SG77291                   10028338     amethyst.obj
 0002:00000348       ?FRAME_LU@HDassets@NH3Dlg@h3@@3QBDB 10028348     amethyst.obj
 0002:0000034c       $SG77293                   1002834c     amethyst.obj
 0002:0000035c       ?FRAME_LD@HDassets@NH3Dlg@h3@@3QBDB 1002835c     amethyst.obj
 0002:00000360       $SG77295                   10028360     amethyst.obj
 0002:00000370       ?FRAME_RU@HDassets@NH3Dlg@h3@@3QBDB 10028370     amethyst.obj
 0002:00000374       $SG77297                   10028374     amethyst.obj
 0002:00000384       ?FRAME_RD@HDassets@NH3Dlg@h3@@3QBDB 10028384     amethyst.obj
 0002:00000388       $SG77299                   10028388     amethyst.obj
 0002:00000398       ?FRAME_U@HDassets@NH3Dlg@h3@@3QBDB 10028398     amethyst.obj
 0002:0000039c       $SG77301                   1002839c     amethyst.obj
 0002:000003a8       ?FRAME_D@HDassets@NH3Dlg@h3@@3QBDB 100283a8     amethyst.obj
 0002:000003ac       $SG77303                   100283ac     amethyst.obj
 0002:000003b8       ?FRAME_L@HDassets@NH3Dlg@h3@@3QBDB 100283b8     amethyst.obj
 0002:000003bc       $SG77305                   100283bc     amethyst.obj
 0002:000003c8       ?FRAME_R@HDassets@NH3Dlg@h3@@3QBDB 100283c8     amethyst.obj
 0002:000003cc       $SG77307                   100283cc     amethyst.obj
 0002:000003d8       ?NEW_LINE@h3@@3QBDB        100283d8     amethyst.obj
 0002:000003dc       ?KEY_EQUALS@h3@@3QBDB      100283dc     amethyst.obj
 0002:000003e0       ?BOM_HEADER@h3@@3QBDB      100283e0     amethyst.obj
 0002:000003e4       ?_Fake_alloc@std@@3U_Fake_allocator@1@B 100283e4     BugFix.obj
 0002:000003e8       $SG77268                   100283e8     BugFix.obj
 0002:000003f4       ?DLGBLUEBOX@HDassets@NH3Dlg@h3@@3QBDB 100283f4     BugFix.obj
 0002:000003f8       $SG77277                   100283f8     BugFix.obj
 0002:00000408       ?DLGBLUEBACK@HDassets@NH3Dlg@h3@@3QBDB 10028408     BugFix.obj
 0002:0000040c       $SG77279                   1002840c     BugFix.obj
 0002:0000041c       ?LINE_SEPARATOR@HDassets@NH3Dlg@h3@@3QBDB 1002841c     BugFix.obj
 0002:00000420       $SG77281                   10028420     BugFix.obj
 0002:00000430       ?HD_STATUSBAR_PCX@HDassets@NH3Dlg@h3@@3QBDB 10028430     BugFix.obj
 0002:00000434       $SG77283                   10028434     BugFix.obj
 0002:00000444       $SG77285                   10028444     BugFix.obj
 0002:00000454       $SG77287                   10028454     BugFix.obj
 0002:00000460       $SG77289                   10028460     BugFix.obj
 0002:0000046c       $SG77291                   1002846c     BugFix.obj
 0002:0000047c       ?FRAME_LU@HDassets@NH3Dlg@h3@@3QBDB 1002847c     BugFix.obj
 0002:00000480       $SG77293                   10028480     BugFix.obj
 0002:00000490       ?FRAME_LD@HDassets@NH3Dlg@h3@@3QBDB 10028490     BugFix.obj
 0002:00000494       $SG77295                   10028494     BugFix.obj
 0002:000004a4       ?FRAME_RU@HDassets@NH3Dlg@h3@@3QBDB 100284a4     BugFix.obj
 0002:000004a8       $SG77297                   100284a8     BugFix.obj
 0002:000004b8       ?FRAME_RD@HDassets@NH3Dlg@h3@@3QBDB 100284b8     BugFix.obj
 0002:000004bc       $SG77299                   100284bc     BugFix.obj
 0002:000004cc       ?FRAME_U@HDassets@NH3Dlg@h3@@3QBDB 100284cc     BugFix.obj
 0002:000004d0       $SG77301                   100284d0     BugFix.obj
 0002:000004dc       ?FRAME_D@HDassets@NH3Dlg@h3@@3QBDB 100284dc     BugFix.obj
 0002:000004e0       $SG77303                   100284e0     BugFix.obj
 0002:000004ec       ?FRAME_L@HDassets@NH3Dlg@h3@@3QBDB 100284ec     BugFix.obj
 0002:000004f0       $SG77305                   100284f0     BugFix.obj
 0002:000004fc       ?FRAME_R@HDassets@NH3Dlg@h3@@3QBDB 100284fc     BugFix.obj
 0002:00000500       $SG77307                   10028500     BugFix.obj
 0002:0000050c       ?NEW_LINE@h3@@3QBDB        1002850c     BugFix.obj
 0002:00000510       ?KEY_EQUALS@h3@@3QBDB      10028510     BugFix.obj
 0002:00000514       ?BOM_HEADER@h3@@3QBDB      10028514     BugFix.obj
 0002:00000518       ?p_CrState@@3KB            10028518     core.obj
 0002:0000051c       $SG115342                  1002851c     core.obj
 0002:00000526       ?_Fake_alloc@std@@3U_Fake_allocator@1@B 10028526     core.obj
 0002:00000528       $SG115344                  10028528     core.obj
 0002:00000530       $SG115492                  10028530     core.obj
 0002:0000053c       $SG115493                  1002853c     core.obj
 0002:00000544       $SG115578                  10028544     core.obj
 0002:00000550       $SG115579                  10028550     core.obj
 0002:0000055c       $SG115582                  1002855c     core.obj
 0002:00000568       $SG115583                  10028568     core.obj
 0002:00000574       $SG115587                  10028574     core.obj
 0002:00000584       $SG77268                   10028584     core.obj
 0002:00000590       ?DLGBLUEBOX@HDassets@NH3Dlg@h3@@3QBDB 10028590     core.obj
 0002:00000594       $SG77277                   10028594     core.obj
 0002:000005a4       ?DLGBLUEBACK@HDassets@NH3Dlg@h3@@3QBDB 100285a4     core.obj
 0002:000005a8       $SG77279                   100285a8     core.obj
 0002:000005b8       ?LINE_SEPARATOR@HDassets@NH3Dlg@h3@@3QBDB 100285b8     core.obj
 0002:000005bc       $SG77281                   100285bc     core.obj
 0002:000005cc       ?HD_STATUSBAR_PCX@HDassets@NH3Dlg@h3@@3QBDB 100285cc     core.obj
 0002:000005d0       $SG77283                   100285d0     core.obj
 0002:000005e0       $SG77285                   100285e0     core.obj
 0002:000005f0       $SG77287                   100285f0     core.obj
 0002:000005fc       $SG77289                   100285fc     core.obj
 0002:00000608       $SG77291                   10028608     core.obj
 0002:00000618       ?FRAME_LU@HDassets@NH3Dlg@h3@@3QBDB 10028618     core.obj
 0002:0000061c       $SG77293                   1002861c     core.obj
 0002:0000062c       ?FRAME_LD@HDassets@NH3Dlg@h3@@3QBDB 1002862c     core.obj
 0002:00000630       $SG77295                   10028630     core.obj
 0002:00000640       ?FRAME_RU@HDassets@NH3Dlg@h3@@3QBDB 10028640     core.obj
 0002:00000644       $SG77297                   10028644     core.obj
 0002:00000654       ?FRAME_RD@HDassets@NH3Dlg@h3@@3QBDB 10028654     core.obj
 0002:00000658       $SG77299                   10028658     core.obj
 0002:00000668       ?FRAME_U@HDassets@NH3Dlg@h3@@3QBDB 10028668     core.obj
 0002:0000066c       $SG77301                   1002866c     core.obj
 0002:00000678       ?FRAME_D@HDassets@NH3Dlg@h3@@3QBDB 10028678     core.obj
 0002:0000067c       $SG77303                   1002867c     core.obj
 0002:00000688       ?FRAME_L@HDassets@NH3Dlg@h3@@3QBDB 10028688     core.obj
 0002:0000068c       $SG77305                   1002868c     core.obj
 0002:00000698       ?FRAME_R@HDassets@NH3Dlg@h3@@3QBDB 10028698     core.obj
 0002:0000069c       $SG77307                   1002869c     core.obj
 0002:000006a8       ?NEW_LINE@h3@@3QBDB        100286a8     core.obj
 0002:000006ac       ?KEY_EQUALS@h3@@3QBDB      100286ac     core.obj
 0002:000006b0       ?BOM_HEADER@h3@@3QBDB      100286b0     core.obj
 0002:000006b4       ?_Fake_alloc@std@@3U_Fake_allocator@1@B 100286b4     creexpo1024.obj
 0002:000006b8       $SG77268                   100286b8     creexpo1024.obj
 0002:000006c4       ?DLGBLUEBOX@HDassets@NH3Dlg@h3@@3QBDB 100286c4     creexpo1024.obj
 0002:000006c8       $SG77277                   100286c8     creexpo1024.obj
 0002:000006d8       ?DLGBLUEBACK@HDassets@NH3Dlg@h3@@3QBDB 100286d8     creexpo1024.obj
 0002:000006dc       $SG77279                   100286dc     creexpo1024.obj
 0002:000006ec       ?LINE_SEPARATOR@HDassets@NH3Dlg@h3@@3QBDB 100286ec     creexpo1024.obj
 0002:000006f0       $SG77281                   100286f0     creexpo1024.obj
 0002:00000700       ?HD_STATUSBAR_PCX@HDassets@NH3Dlg@h3@@3QBDB 10028700     creexpo1024.obj
 0002:00000704       $SG77283                   10028704     creexpo1024.obj
 0002:00000714       $SG77285                   10028714     creexpo1024.obj
 0002:00000724       $SG77287                   10028724     creexpo1024.obj
 0002:00000730       $SG77289                   10028730     creexpo1024.obj
 0002:0000073c       $SG77291                   1002873c     creexpo1024.obj
 0002:0000074c       ?FRAME_LU@HDassets@NH3Dlg@h3@@3QBDB 1002874c     creexpo1024.obj
 0002:00000750       $SG77293                   10028750     creexpo1024.obj
 0002:00000760       ?FRAME_LD@HDassets@NH3Dlg@h3@@3QBDB 10028760     creexpo1024.obj
 0002:00000764       $SG77295                   10028764     creexpo1024.obj
 0002:00000774       ?FRAME_RU@HDassets@NH3Dlg@h3@@3QBDB 10028774     creexpo1024.obj
 0002:00000778       $SG77297                   10028778     creexpo1024.obj
 0002:00000788       ?FRAME_RD@HDassets@NH3Dlg@h3@@3QBDB 10028788     creexpo1024.obj
 0002:0000078c       $SG77299                   1002878c     creexpo1024.obj
 0002:0000079c       ?FRAME_U@HDassets@NH3Dlg@h3@@3QBDB 1002879c     creexpo1024.obj
 0002:000007a0       $SG77301                   100287a0     creexpo1024.obj
 0002:000007ac       ?FRAME_D@HDassets@NH3Dlg@h3@@3QBDB 100287ac     creexpo1024.obj
 0002:000007b0       $SG77303                   100287b0     creexpo1024.obj
 0002:000007bc       ?FRAME_L@HDassets@NH3Dlg@h3@@3QBDB 100287bc     creexpo1024.obj
 0002:000007c0       $SG77305                   100287c0     creexpo1024.obj
 0002:000007cc       ?FRAME_R@HDassets@NH3Dlg@h3@@3QBDB 100287cc     creexpo1024.obj
 0002:000007d0       $SG77307                   100287d0     creexpo1024.obj
 0002:000007dc       ?NEW_LINE@h3@@3QBDB        100287dc     creexpo1024.obj
 0002:000007e0       ?KEY_EQUALS@h3@@3QBDB      100287e0     creexpo1024.obj
 0002:000007e4       ?BOM_HEADER@h3@@3QBDB      100287e4     creexpo1024.obj
 0002:000007e8       $SG117335                  100287e8     dllmain.obj
 0002:000007eb       ?_Fake_alloc@std@@3U_Fake_allocator@1@B 100287eb     dllmain.obj
 0002:000007ec       $SG117388                  100287ec     dllmain.obj
 0002:000007f6       $SG118043                  100287f6     dllmain.obj
 0002:000007f8       $SG117389                  100287f8     dllmain.obj
 0002:00000804       $SG117390                  10028804     dllmain.obj
 0002:00000818       $SG117391                  10028818     dllmain.obj
 0002:00000828       $SG117392                  10028828     dllmain.obj
 0002:00000830       $SG117393                  10028830     dllmain.obj
 0002:00000834       $SG117394                  10028834     dllmain.obj
 0002:0000083c       $SG117395                  1002883c     dllmain.obj
 0002:00000850       $SG117396                  10028850     dllmain.obj
 0002:00000860       $SG117397                  10028860     dllmain.obj
 0002:0000086c       $SG117398                  1002886c     dllmain.obj
 0002:00000878       $SG117399                  10028878     dllmain.obj
 0002:00000884       $SG117400                  10028884     dllmain.obj
 0002:00000894       $SG117401                  10028894     dllmain.obj
 0002:000008a0       $SG117402                  100288a0     dllmain.obj
 0002:000008ac       $SG117403                  100288ac     dllmain.obj
 0002:000008b8       $SG117404                  100288b8     dllmain.obj
 0002:000008c8       $SG117405                  100288c8     dllmain.obj
 0002:000008d4       $SG117406                  100288d4     dllmain.obj
 0002:000008e8       $SG117407                  100288e8     dllmain.obj
 0002:000008f0       $SG117408                  100288f0     dllmain.obj
 0002:000008fc       $SG117409                  100288fc     dllmain.obj
 0002:00000910       $SG117410                  10028910     dllmain.obj
 0002:00000918       $SG117411                  10028918     dllmain.obj
 0002:00000920       $SG117412                  10028920     dllmain.obj
 0002:0000092c       $SG117413                  1002892c     dllmain.obj
 0002:00000938       $SG117414                  10028938     dllmain.obj
 0002:00000944       $SG117415                  10028944     dllmain.obj
 0002:00000954       $SG117416                  10028954     dllmain.obj
 0002:00000968       $SG117417                  10028968     dllmain.obj
 0002:00000978       $SG117418                  10028978     dllmain.obj
 0002:00000984       $SG117419                  10028984     dllmain.obj
 0002:00000994       $SG117420                  10028994     dllmain.obj
 0002:000009a8       $SG117421                  100289a8     dllmain.obj
 0002:000009b8       $SG117422                  100289b8     dllmain.obj
 0002:000009c4       $SG117423                  100289c4     dllmain.obj
 0002:000009d8       $SG117424                  100289d8     dllmain.obj
 0002:000009e0       $SG117425                  100289e0     dllmain.obj
 0002:000009e8       $SG117426                  100289e8     dllmain.obj
 0002:000009f4       $SG117427                  100289f4     dllmain.obj
 0002:00000a0c       $SG117428                  10028a0c     dllmain.obj
 0002:00000a1c       $SG117517                  10028a1c     dllmain.obj
 0002:00000a3c       $SG117874                  10028a3c     dllmain.obj
 0002:00000a48       $SG117875                  10028a48     dllmain.obj
 0002:00000a50       $SG117877                  10028a50     dllmain.obj
 0002:00000a5c       $SG117878                  10028a5c     dllmain.obj
 0002:00000a64       $SG117929                  10028a64     dllmain.obj
 0002:00000a74       $SG117932                  10028a74     dllmain.obj
 0002:00000a84       $SG117948                  10028a84     dllmain.obj
 0002:00000a88       $SG117949                  10028a88     dllmain.obj
 0002:00000a98       $SG117951                  10028a98     dllmain.obj
 0002:00000aa4       $SG117954                  10028aa4     dllmain.obj
 0002:00000ac0       $SG117956                  10028ac0     dllmain.obj
 0002:00000adc       $SG117958                  10028adc     dllmain.obj
 0002:00000aec       $SG117960                  10028aec     dllmain.obj
 0002:00000af0       $SG117961                  10028af0     dllmain.obj
 0002:00000b00       $SG118005                  10028b00     dllmain.obj
 0002:00000b3c       $SG118007                  10028b3c     dllmain.obj
 0002:00000b4c       $SG118032                  10028b4c     dllmain.obj
 0002:00000b60       $SG118034                  10028b60     dllmain.obj
 0002:00000b7c       $SG118036                  10028b7c     dllmain.obj
 0002:00000b84       $SG118037                  10028b84     dllmain.obj
 0002:00000ba8       $SG118038                  10028ba8     dllmain.obj
 0002:00000bb8       $SG118040                  10028bb8     dllmain.obj
 0002:00000bc0       $SG118041                  10028bc0     dllmain.obj
 0002:00000bd8       $SG118042                  10028bd8     dllmain.obj
 0002:00000be0       $SG118059                  10028be0     dllmain.obj
 0002:00000bf4       $SG118061                  10028bf4     dllmain.obj
 0002:00000c10       $SG118063                  10028c10     dllmain.obj
 0002:00000c18       $SG118064                  10028c18     dllmain.obj
 0002:00000c3c       $SG118069                  10028c3c     dllmain.obj
 0002:00000c4c       $SG118070                  10028c4c     dllmain.obj
 0002:00000c60       $SG118071                  10028c60     dllmain.obj
 0002:00000c74       $SG118075                  10028c74     dllmain.obj
 0002:00000c84       $SG118076                  10028c84     dllmain.obj
 0002:00000c98       $SG118077                  10028c98     dllmain.obj
 0002:00000cac       $SG118086                  10028cac     dllmain.obj
 0002:00000cb8       $SG118087                  10028cb8     dllmain.obj
 0002:00000cc4       $SG118088                  10028cc4     dllmain.obj
 0002:00000cd0       $SG118089                  10028cd0     dllmain.obj
 0002:00000cdc       $SG118098                  10028cdc     dllmain.obj
 0002:00000ce8       $SG118099                  10028ce8     dllmain.obj
 0002:00000cf4       $SG118100                  10028cf4     dllmain.obj
 0002:00000d00       $SG118101                  10028d00     dllmain.obj
 0002:00000d0c       $SG118182                  10028d0c     dllmain.obj
 0002:00000d18       $SG118183                  10028d18     dllmain.obj
 0002:00000d2c       $SG118184                  10028d2c     dllmain.obj
 0002:00000d38       $SG118185                  10028d38     dllmain.obj
 0002:00000d4c       $SG118186                  10028d4c     dllmain.obj
 0002:00000d5c       $SG118187                  10028d5c     dllmain.obj
 0002:00000d6c       $SG118188                  10028d6c     dllmain.obj
 0002:00000d80       $SG118189                  10028d80     dllmain.obj
 0002:00000d94       $SG118190                  10028d94     dllmain.obj
 0002:00000da4       $SG118191                  10028da4     dllmain.obj
 0002:00000dbc       $SG118192                  10028dbc     dllmain.obj
 0002:00000dc8       $SG118193                  10028dc8     dllmain.obj
 0002:00000dd4       $SG118194                  10028dd4     dllmain.obj
 0002:00000de0       $SG118195                  10028de0     dllmain.obj
 0002:00000df8       $SG77268                   10028df8     dllmain.obj
 0002:00000e04       ?DLGBLUEBOX@HDassets@NH3Dlg@h3@@3QBDB 10028e04     dllmain.obj
 0002:00000e08       $SG77277                   10028e08     dllmain.obj
 0002:00000e18       ?DLGBLUEBACK@HDassets@NH3Dlg@h3@@3QBDB 10028e18     dllmain.obj
 0002:00000e1c       $SG77279                   10028e1c     dllmain.obj
 0002:00000e2c       ?LINE_SEPARATOR@HDassets@NH3Dlg@h3@@3QBDB 10028e2c     dllmain.obj
 0002:00000e30       $SG77281                   10028e30     dllmain.obj
 0002:00000e40       ?HD_STATUSBAR_PCX@HDassets@NH3Dlg@h3@@3QBDB 10028e40     dllmain.obj
 0002:00000e44       $SG77283                   10028e44     dllmain.obj
 0002:00000e54       $SG77285                   10028e54     dllmain.obj
 0002:00000e64       $SG77287                   10028e64     dllmain.obj
 0002:00000e70       $SG77289                   10028e70     dllmain.obj
 0002:00000e7c       $SG77291                   10028e7c     dllmain.obj
 0002:00000e8c       ?FRAME_LU@HDassets@NH3Dlg@h3@@3QBDB 10028e8c     dllmain.obj
 0002:00000e90       $SG77293                   10028e90     dllmain.obj
 0002:00000ea0       ?FRAME_LD@HDassets@NH3Dlg@h3@@3QBDB 10028ea0     dllmain.obj
 0002:00000ea4       $SG77295                   10028ea4     dllmain.obj
 0002:00000eb4       ?FRAME_RU@HDassets@NH3Dlg@h3@@3QBDB 10028eb4     dllmain.obj
 0002:00000eb8       $SG77297                   10028eb8     dllmain.obj
 0002:00000ec8       ?FRAME_RD@HDassets@NH3Dlg@h3@@3QBDB 10028ec8     dllmain.obj
 0002:00000ecc       $SG77299                   10028ecc     dllmain.obj
 0002:00000edc       ?FRAME_U@HDassets@NH3Dlg@h3@@3QBDB 10028edc     dllmain.obj
 0002:00000ee0       $SG77301                   10028ee0     dllmain.obj
 0002:00000eec       ?FRAME_D@HDassets@NH3Dlg@h3@@3QBDB 10028eec     dllmain.obj
 0002:00000ef0       $SG77303                   10028ef0     dllmain.obj
 0002:00000efc       ?FRAME_L@HDassets@NH3Dlg@h3@@3QBDB 10028efc     dllmain.obj
 0002:00000f00       $SG77305                   10028f00     dllmain.obj
 0002:00000f0c       ?FRAME_R@HDassets@NH3Dlg@h3@@3QBDB 10028f0c     dllmain.obj
 0002:00000f10       $SG77307                   10028f10     dllmain.obj
 0002:00000f1c       ?NEW_LINE@h3@@3QBDB        10028f1c     dllmain.obj
 0002:00000f20       ?KEY_EQUALS@h3@@3QBDB      10028f20     dllmain.obj
 0002:00000f24       ?BOM_HEADER@h3@@3QBDB      10028f24     dllmain.obj
 0002:00000f6c       $SG115210                  10028f6c     DropHtml.obj
 0002:00000f6e       ?_Fake_alloc@std@@3U_Fake_allocator@1@B 10028f6e     DropHtml.obj
 0002:00000f70       $SG115211                  10028f70     DropHtml.obj
 0002:00000f90       $SG115212                  10028f90     DropHtml.obj
 0002:00000f98       $SG115213                  10028f98     DropHtml.obj
 0002:00000fb0       $SG115214                  10028fb0     DropHtml.obj
 0002:00000fbc       $SG77268                   10028fbc     DropHtml.obj
 0002:00000fc8       ?DLGBLUEBOX@HDassets@NH3Dlg@h3@@3QBDB 10028fc8     DropHtml.obj
 0002:00000fcc       $SG77277                   10028fcc     DropHtml.obj
 0002:00000fdc       ?DLGBLUEBACK@HDassets@NH3Dlg@h3@@3QBDB 10028fdc     DropHtml.obj
 0002:00000fe0       $SG77279                   10028fe0     DropHtml.obj
 0002:00000ff0       ?LINE_SEPARATOR@HDassets@NH3Dlg@h3@@3QBDB 10028ff0     DropHtml.obj
 0002:00000ff4       $SG77281                   10028ff4     DropHtml.obj
 0002:00001004       ?HD_STATUSBAR_PCX@HDassets@NH3Dlg@h3@@3QBDB 10029004     DropHtml.obj
 0002:00001008       $SG77283                   10029008     DropHtml.obj
 0002:00001018       $SG77285                   10029018     DropHtml.obj
 0002:00001028       $SG77287                   10029028     DropHtml.obj
 0002:00001034       $SG77289                   10029034     DropHtml.obj
 0002:00001040       $SG77291                   10029040     DropHtml.obj
 0002:00001050       ?FRAME_LU@HDassets@NH3Dlg@h3@@3QBDB 10029050     DropHtml.obj
 0002:00001054       $SG77293                   10029054     DropHtml.obj
 0002:00001064       ?FRAME_LD@HDassets@NH3Dlg@h3@@3QBDB 10029064     DropHtml.obj
 0002:00001068       $SG77295                   10029068     DropHtml.obj
 0002:00001078       ?FRAME_RU@HDassets@NH3Dlg@h3@@3QBDB 10029078     DropHtml.obj
 0002:0000107c       $SG77297                   1002907c     DropHtml.obj
 0002:0000108c       ?FRAME_RD@HDassets@NH3Dlg@h3@@3QBDB 1002908c     DropHtml.obj
 0002:00001090       $SG77299                   10029090     DropHtml.obj
 0002:000010a0       ?FRAME_U@HDassets@NH3Dlg@h3@@3QBDB 100290a0     DropHtml.obj
 0002:000010a4       $SG77301                   100290a4     DropHtml.obj
 0002:000010b0       ?FRAME_D@HDassets@NH3Dlg@h3@@3QBDB 100290b0     DropHtml.obj
 0002:000010b4       $SG77303                   100290b4     DropHtml.obj
 0002:000010c0       ?FRAME_L@HDassets@NH3Dlg@h3@@3QBDB 100290c0     DropHtml.obj
 0002:000010c4       $SG77305                   100290c4     DropHtml.obj
 0002:000010d0       ?FRAME_R@HDassets@NH3Dlg@h3@@3QBDB 100290d0     DropHtml.obj
 0002:000010d4       $SG77307                   100290d4     DropHtml.obj
 0002:000010e0       ?NEW_LINE@h3@@3QBDB        100290e0     DropHtml.obj
 0002:000010e4       ?KEY_EQUALS@h3@@3QBDB      100290e4     DropHtml.obj
 0002:000010e8       ?BOM_HEADER@h3@@3QBDB      100290e8     DropHtml.obj
 0002:000010ec       $SG115235                  100290ec     GameMgr_GetRandMonster_ByLevel.obj
 0002:0000110d       ?_Fake_alloc@std@@3U_Fake_allocator@1@B 1002910d     GameMgr_GetRandMonster_ByLevel.obj
 0002:00001110       $SG115238                  10029110     GameMgr_GetRandMonster_ByLevel.obj
 0002:00001134       $SG115240                  10029134     GameMgr_GetRandMonster_ByLevel.obj
 0002:00001148       $SG77268                   10029148     GameMgr_GetRandMonster_ByLevel.obj
 0002:00001154       ?DLGBLUEBOX@HDassets@NH3Dlg@h3@@3QBDB 10029154     GameMgr_GetRandMonster_ByLevel.obj
 0002:00001158       $SG77277                   10029158     GameMgr_GetRandMonster_ByLevel.obj
 0002:00001168       ?DLGBLUEBACK@HDassets@NH3Dlg@h3@@3QBDB 10029168     GameMgr_GetRandMonster_ByLevel.obj
 0002:0000116c       $SG77279                   1002916c     GameMgr_GetRandMonster_ByLevel.obj
 0002:0000117c       ?LINE_SEPARATOR@HDassets@NH3Dlg@h3@@3QBDB 1002917c     GameMgr_GetRandMonster_ByLevel.obj
 0002:00001180       $SG77281                   10029180     GameMgr_GetRandMonster_ByLevel.obj
 0002:00001190       ?HD_STATUSBAR_PCX@HDassets@NH3Dlg@h3@@3QBDB 10029190     GameMgr_GetRandMonster_ByLevel.obj
 0002:00001194       $SG77283                   10029194     GameMgr_GetRandMonster_ByLevel.obj
 0002:000011a4       $SG77285                   100291a4     GameMgr_GetRandMonster_ByLevel.obj
 0002:000011b4       $SG77287                   100291b4     GameMgr_GetRandMonster_ByLevel.obj
 0002:000011c0       $SG77289                   100291c0     GameMgr_GetRandMonster_ByLevel.obj
 0002:000011cc       $SG77291                   100291cc     GameMgr_GetRandMonster_ByLevel.obj
 0002:000011dc       ?FRAME_LU@HDassets@NH3Dlg@h3@@3QBDB 100291dc     GameMgr_GetRandMonster_ByLevel.obj
 0002:000011e0       $SG77293                   100291e0     GameMgr_GetRandMonster_ByLevel.obj
 0002:000011f0       ?FRAME_LD@HDassets@NH3Dlg@h3@@3QBDB 100291f0     GameMgr_GetRandMonster_ByLevel.obj
 0002:000011f4       $SG77295                   100291f4     GameMgr_GetRandMonster_ByLevel.obj
 0002:00001204       ?FRAME_RU@HDassets@NH3Dlg@h3@@3QBDB 10029204     GameMgr_GetRandMonster_ByLevel.obj
 0002:00001208       $SG77297                   10029208     GameMgr_GetRandMonster_ByLevel.obj
 0002:00001218       ?FRAME_RD@HDassets@NH3Dlg@h3@@3QBDB 10029218     GameMgr_GetRandMonster_ByLevel.obj
 0002:0000121c       $SG77299                   1002921c     GameMgr_GetRandMonster_ByLevel.obj
 0002:0000122c       ?FRAME_U@HDassets@NH3Dlg@h3@@3QBDB 1002922c     GameMgr_GetRandMonster_ByLevel.obj
 0002:00001230       $SG77301                   10029230     GameMgr_GetRandMonster_ByLevel.obj
 0002:0000123c       ?FRAME_D@HDassets@NH3Dlg@h3@@3QBDB 1002923c     GameMgr_GetRandMonster_ByLevel.obj
 0002:00001240       $SG77303                   10029240     GameMgr_GetRandMonster_ByLevel.obj
 0002:0000124c       ?FRAME_L@HDassets@NH3Dlg@h3@@3QBDB 1002924c     GameMgr_GetRandMonster_ByLevel.obj
 0002:00001250       $SG77305                   10029250     GameMgr_GetRandMonster_ByLevel.obj
 0002:0000125c       ?FRAME_R@HDassets@NH3Dlg@h3@@3QBDB 1002925c     GameMgr_GetRandMonster_ByLevel.obj
 0002:00001260       $SG77307                   10029260     GameMgr_GetRandMonster_ByLevel.obj
 0002:0000126c       ?NEW_LINE@h3@@3QBDB        1002926c     GameMgr_GetRandMonster_ByLevel.obj
 0002:00001270       ?KEY_EQUALS@h3@@3QBDB      10029270     GameMgr_GetRandMonster_ByLevel.obj
 0002:00001274       ?BOM_HEADER@h3@@3QBDB      10029274     GameMgr_GetRandMonster_ByLevel.obj
 0002:00001278       ?_Fake_alloc@std@@3U_Fake_allocator@1@B 10029278     MiscCreatureHooks.obj
 0002:0000127c       $SG77268                   1002927c     MiscCreatureHooks.obj
 0002:00001288       ?DLGBLUEBOX@HDassets@NH3Dlg@h3@@3QBDB 10029288     MiscCreatureHooks.obj
 0002:0000128c       $SG77277                   1002928c     MiscCreatureHooks.obj
 0002:0000129c       ?DLGBLUEBACK@HDassets@NH3Dlg@h3@@3QBDB 1002929c     MiscCreatureHooks.obj
 0002:000012a0       $SG77279                   100292a0     MiscCreatureHooks.obj
 0002:000012b0       ?LINE_SEPARATOR@HDassets@NH3Dlg@h3@@3QBDB 100292b0     MiscCreatureHooks.obj
 0002:000012b4       $SG77281                   100292b4     MiscCreatureHooks.obj
 0002:000012c4       ?HD_STATUSBAR_PCX@HDassets@NH3Dlg@h3@@3QBDB 100292c4     MiscCreatureHooks.obj
 0002:000012c8       $SG77283                   100292c8     MiscCreatureHooks.obj
 0002:000012d8       $SG77285                   100292d8     MiscCreatureHooks.obj
 0002:000012e8       $SG77287                   100292e8     MiscCreatureHooks.obj
 0002:000012f4       $SG77289                   100292f4     MiscCreatureHooks.obj
 0002:00001300       $SG77291                   10029300     MiscCreatureHooks.obj
 0002:00001310       ?FRAME_LU@HDassets@NH3Dlg@h3@@3QBDB 10029310     MiscCreatureHooks.obj
 0002:00001314       $SG77293                   10029314     MiscCreatureHooks.obj
 0002:00001324       ?FRAME_LD@HDassets@NH3Dlg@h3@@3QBDB 10029324     MiscCreatureHooks.obj
 0002:00001328       $SG77295                   10029328     MiscCreatureHooks.obj
 0002:00001338       ?FRAME_RU@HDassets@NH3Dlg@h3@@3QBDB 10029338     MiscCreatureHooks.obj
 0002:0000133c       $SG77297                   1002933c     MiscCreatureHooks.obj
 0002:0000134c       ?FRAME_RD@HDassets@NH3Dlg@h3@@3QBDB 1002934c     MiscCreatureHooks.obj
 0002:00001350       $SG77299                   10029350     MiscCreatureHooks.obj
 0002:00001360       ?FRAME_U@HDassets@NH3Dlg@h3@@3QBDB 10029360     MiscCreatureHooks.obj
 0002:00001364       $SG77301                   10029364     MiscCreatureHooks.obj
 0002:00001370       ?FRAME_D@HDassets@NH3Dlg@h3@@3QBDB 10029370     MiscCreatureHooks.obj
 0002:00001374       $SG77303                   10029374     MiscCreatureHooks.obj
 0002:00001380       ?FRAME_L@HDassets@NH3Dlg@h3@@3QBDB 10029380     MiscCreatureHooks.obj
 0002:00001384       $SG77305                   10029384     MiscCreatureHooks.obj
 0002:00001390       ?FRAME_R@HDassets@NH3Dlg@h3@@3QBDB 10029390     MiscCreatureHooks.obj
 0002:00001394       $SG77307                   10029394     MiscCreatureHooks.obj
 0002:000013a0       ?NEW_LINE@h3@@3QBDB        100293a0     MiscCreatureHooks.obj
 0002:000013a4       ?KEY_EQUALS@h3@@3QBDB      100293a4     MiscCreatureHooks.obj
 0002:000013a8       ?BOM_HEADER@h3@@3QBDB      100293a8     MiscCreatureHooks.obj
 0002:000013ac       ?_Fake_alloc@std@@3U_Fake_allocator@1@B 100293ac     stdafx.obj
 0002:000013b0       $SG77268                   100293b0     stdafx.obj
 0002:000013bc       ?DLGBLUEBOX@HDassets@NH3Dlg@h3@@3QBDB 100293bc     stdafx.obj
 0002:000013c0       $SG77277                   100293c0     stdafx.obj
 0002:000013d0       ?DLGBLUEBACK@HDassets@NH3Dlg@h3@@3QBDB 100293d0     stdafx.obj
 0002:000013d4       $SG77279                   100293d4     stdafx.obj
 0002:000013e4       ?LINE_SEPARATOR@HDassets@NH3Dlg@h3@@3QBDB 100293e4     stdafx.obj
 0002:000013e8       $SG77281                   100293e8     stdafx.obj
 0002:000013f8       ?HD_STATUSBAR_PCX@HDassets@NH3Dlg@h3@@3QBDB 100293f8     stdafx.obj
 0002:000013fc       $SG77283                   100293fc     stdafx.obj
 0002:0000140c       $SG77285                   1002940c     stdafx.obj
 0002:0000141c       $SG77287                   1002941c     stdafx.obj
 0002:00001428       $SG77289                   10029428     stdafx.obj
 0002:00001434       $SG77291                   10029434     stdafx.obj
 0002:00001444       ?FRAME_LU@HDassets@NH3Dlg@h3@@3QBDB 10029444     stdafx.obj
 0002:00001448       $SG77293                   10029448     stdafx.obj
 0002:00001458       ?FRAME_LD@HDassets@NH3Dlg@h3@@3QBDB 10029458     stdafx.obj
 0002:0000145c       $SG77295                   1002945c     stdafx.obj
 0002:0000146c       ?FRAME_RU@HDassets@NH3Dlg@h3@@3QBDB 1002946c     stdafx.obj
 0002:00001470       $SG77297                   10029470     stdafx.obj
 0002:00001480       ?FRAME_RD@HDassets@NH3Dlg@h3@@3QBDB 10029480     stdafx.obj
 0002:00001484       $SG77299                   10029484     stdafx.obj
 0002:00001494       ?FRAME_U@HDassets@NH3Dlg@h3@@3QBDB 10029494     stdafx.obj
 0002:00001498       $SG77301                   10029498     stdafx.obj
 0002:000014a4       ?FRAME_D@HDassets@NH3Dlg@h3@@3QBDB 100294a4     stdafx.obj
 0002:000014a8       $SG77303                   100294a8     stdafx.obj
 0002:000014b4       ?FRAME_L@HDassets@NH3Dlg@h3@@3QBDB 100294b4     stdafx.obj
 0002:000014b8       $SG77305                   100294b8     stdafx.obj
 0002:000014c4       ?FRAME_R@HDassets@NH3Dlg@h3@@3QBDB 100294c4     stdafx.obj
 0002:000014c8       $SG77307                   100294c8     stdafx.obj
 0002:000014d4       ?NEW_LINE@h3@@3QBDB        100294d4     stdafx.obj
 0002:000014d8       ?KEY_EQUALS@h3@@3QBDB      100294d8     stdafx.obj
 0002:000014dc       ?BOM_HEADER@h3@@3QBDB      100294dc     stdafx.obj
 0002:000014e0       ?_Fake_alloc@std@@3U_Fake_allocator@1@B 100294e0     Summon.obj
 0002:000014e4       $SG77268                   100294e4     Summon.obj
 0002:000014f0       ?DLGBLUEBOX@HDassets@NH3Dlg@h3@@3QBDB 100294f0     Summon.obj
 0002:000014f4       $SG77277                   100294f4     Summon.obj
 0002:00001504       ?DLGBLUEBACK@HDassets@NH3Dlg@h3@@3QBDB 10029504     Summon.obj
 0002:00001508       $SG77279                   10029508     Summon.obj
 0002:00001518       ?LINE_SEPARATOR@HDassets@NH3Dlg@h3@@3QBDB 10029518     Summon.obj
 0002:0000151c       $SG77281                   1002951c     Summon.obj
 0002:0000152c       ?HD_STATUSBAR_PCX@HDassets@NH3Dlg@h3@@3QBDB 1002952c     Summon.obj
 0002:00001530       $SG77283                   10029530     Summon.obj
 0002:00001540       $SG77285                   10029540     Summon.obj
 0002:00001550       $SG77287                   10029550     Summon.obj
 0002:0000155c       $SG77289                   1002955c     Summon.obj
 0002:00001568       $SG77291                   10029568     Summon.obj
 0002:00001578       ?FRAME_LU@HDassets@NH3Dlg@h3@@3QBDB 10029578     Summon.obj
 0002:0000157c       $SG77293                   1002957c     Summon.obj
 0002:0000158c       ?FRAME_LD@HDassets@NH3Dlg@h3@@3QBDB 1002958c     Summon.obj
 0002:00001590       $SG77295                   10029590     Summon.obj
 0002:000015a0       ?FRAME_RU@HDassets@NH3Dlg@h3@@3QBDB 100295a0     Summon.obj
 0002:000015a4       $SG77297                   100295a4     Summon.obj
 0002:000015b4       ?FRAME_RD@HDassets@NH3Dlg@h3@@3QBDB 100295b4     Summon.obj
 0002:000015b8       $SG77299                   100295b8     Summon.obj
 0002:000015c8       ?FRAME_U@HDassets@NH3Dlg@h3@@3QBDB 100295c8     Summon.obj
 0002:000015cc       $SG77301                   100295cc     Summon.obj
 0002:000015d8       ?FRAME_D@HDassets@NH3Dlg@h3@@3QBDB 100295d8     Summon.obj
 0002:000015dc       $SG77303                   100295dc     Summon.obj
 0002:000015e8       ?FRAME_L@HDassets@NH3Dlg@h3@@3QBDB 100295e8     Summon.obj
 0002:000015ec       $SG77305                   100295ec     Summon.obj
 0002:000015f8       ?FRAME_R@HDassets@NH3Dlg@h3@@3QBDB 100295f8     Summon.obj
 0002:000015fc       $SG77307                   100295fc     Summon.obj
 0002:00001608       ?NEW_LINE@h3@@3QBDB        10029608     Summon.obj
 0002:0000160c       ?KEY_EQUALS@h3@@3QBDB      1002960c     Summon.obj
 0002:00001610       ?BOM_HEADER@h3@@3QBDB      10029610     Summon.obj
 0002:00001614       $SG115634                  10029614     tables.obj
 0002:0000163e       ?_Fake_alloc@std@@3U_Fake_allocator@1@B 1002963e     tables.obj
 0002:0000163f       $SG117807                  1002963f     tables.obj
 0002:00001640       $SG115666                  10029640     tables.obj
 0002:0000164a       $SG117828                  1002964a     tables.obj
 0002:0000164c       $SG115668                  1002964c     tables.obj
 0002:00001664       $SG115676                  10029664     tables.obj
 0002:00001678       $SG115678                  10029678     tables.obj
 0002:0000168c       $SG115680                  1002968c     tables.obj
 0002:00001698       $SG115682                  10029698     tables.obj
 0002:000016a0       $SG115684                  100296a0     tables.obj
 0002:000016b0       $SG115686                  100296b0     tables.obj
 0002:000016b8       $SG115688                  100296b8     tables.obj
 0002:000016c0       $SG115690                  100296c0     tables.obj
 0002:000016cc       $SG115692                  100296cc     tables.obj
 0002:000016dc       $SG115694                  100296dc     tables.obj
 0002:000016ec       $SG115696                  100296ec     tables.obj
 0002:000016fc       $SG115698                  100296fc     tables.obj
 0002:00001710       $SG115700                  10029710     tables.obj
 0002:00001724       $SG115702                  10029724     tables.obj
 0002:00001738       $SG115704                  10029738     tables.obj
 0002:0000174c       $SG115706                  1002974c     tables.obj
 0002:00001764       $SG115708                  10029764     tables.obj
 0002:00001778       $SG115710                  10029778     tables.obj
 0002:0000178c       $SG115712                  1002978c     tables.obj
 0002:000017a0       $SG115714                  100297a0     tables.obj
 0002:000017b4       $SG115716                  100297b4     tables.obj
 0002:000017d0       $SG115718                  100297d0     tables.obj
 0002:000017e4       $SG115720                  100297e4     tables.obj
 0002:000017f8       $SG115722                  100297f8     tables.obj
 0002:0000180c       $SG115724                  1002980c     tables.obj
 0002:00001820       $SG115726                  10029820     tables.obj
 0002:00001834       $SG115728                  10029834     tables.obj
 0002:00001848       $SG115730                  10029848     tables.obj
 0002:00001860       $SG115732                  10029860     tables.obj
 0002:00001870       $SG115734                  10029870     tables.obj
 0002:0000187c       $SG115736                  1002987c     tables.obj
 0002:0000188c       $SG115738                  1002988c     tables.obj
 0002:0000189c       $SG115740                  1002989c     tables.obj
 0002:000018a8       $SG115742                  100298a8     tables.obj
 0002:000018b4       $SG115744                  100298b4     tables.obj
 0002:000018c0       $SG115746                  100298c0     tables.obj
 0002:000018e0       $SG115748                  100298e0     tables.obj
 0002:000018fc       $SG115750                  100298fc     tables.obj
 0002:00001918       $SG115752                  10029918     tables.obj
 0002:00001934       $SG115754                  10029934     tables.obj
 0002:0000194c       $SG115756                  1002994c     tables.obj
 0002:00001964       $SG115758                  10029964     tables.obj
 0002:00001970       $SG115760                  10029970     tables.obj
 0002:00001980       $SG115762                  10029980     tables.obj
 0002:0000198c       $SG115764                  1002998c     tables.obj
 0002:00001998       $SG115766                  10029998     tables.obj
 0002:000019b0       $SG115768                  100299b0     tables.obj
 0002:000019c4       $SG115770                  100299c4     tables.obj
 0002:000019dc       $SG115772                  100299dc     tables.obj
 0002:000019f0       $SG115774                  100299f0     tables.obj
 0002:00001a08       $SG115776                  10029a08     tables.obj
 0002:00001a1c       $SG115778                  10029a1c     tables.obj
 0002:00001a28       $SG115780                  10029a28     tables.obj
 0002:00001a34       $SG115782                  10029a34     tables.obj
 0002:00001a3c       $SG115784                  10029a3c     tables.obj
 0002:00001a48       $SG115786                  10029a48     tables.obj
 0002:00001a58       $SG115788                  10029a58     tables.obj
 0002:00001a68       $SG115790                  10029a68     tables.obj
 0002:00001a7c       $SG115792                  10029a7c     tables.obj
 0002:00001a88       $SG115794                  10029a88     tables.obj
 0002:00001a98       $SG115796                  10029a98     tables.obj
 0002:00001aa8       $SG115798                  10029aa8     tables.obj
 0002:00001abc       $SG115800                  10029abc     tables.obj
 0002:00001acc       $SG115802                  10029acc     tables.obj
 0002:00001adc       $SG115804                  10029adc     tables.obj
 0002:00001af0       $SG115806                  10029af0     tables.obj
 0002:00001b08       $SG115808                  10029b08     tables.obj
 0002:00001b18       $SG115810                  10029b18     tables.obj
 0002:00001b28       $SG115812                  10029b28     tables.obj
 0002:00001b34       $SG115814                  10029b34     tables.obj
 0002:00001b40       $SG115816                  10029b40     tables.obj
 0002:00001b50       $SG115818                  10029b50     tables.obj
 0002:00001b60       $SG115820                  10029b60     tables.obj
 0002:00001b78       $SG115822                  10029b78     tables.obj
 0002:00001b8c       $SG115824                  10029b8c     tables.obj
 0002:00001b9c       $SG115826                  10029b9c     tables.obj
 0002:00001bac       $SG115829                  10029bac     tables.obj
 0002:00001bb8       $SG115831                  10029bb8     tables.obj
 0002:00001bc4       $SG115833                  10029bc4     tables.obj
 0002:00001bd4       $SG115835                  10029bd4     tables.obj
 0002:00001be4       $SG115837                  10029be4     tables.obj
 0002:00001bf4       $SG115839                  10029bf4     tables.obj
 0002:00001c04       $SG115841                  10029c04     tables.obj
 0002:00001c0c       $SG115843                  10029c0c     tables.obj
 0002:00001c14       $SG115845                  10029c14     tables.obj
 0002:00001c1c       $SG115847                  10029c1c     tables.obj
 0002:00001c24       $SG115849                  10029c24     tables.obj
 0002:00001c2c       $SG115851                  10029c2c     tables.obj
 0002:00001c38       $SG115853                  10029c38     tables.obj
 0002:00001c44       $SG115855                  10029c44     tables.obj
 0002:00001c50       $SG115857                  10029c50     tables.obj
 0002:00001c58       $SG115859                  10029c58     tables.obj
 0002:00001c68       $SG115861                  10029c68     tables.obj
 0002:00001c74       $SG115863                  10029c74     tables.obj
 0002:00001c80       $SG115865                  10029c80     tables.obj
 0002:00001c90       $SG115867                  10029c90     tables.obj
 0002:00001c9c       $SG115869                  10029c9c     tables.obj
 0002:00001ca8       $SG115871                  10029ca8     tables.obj
 0002:00001cb4       $SG115873                  10029cb4     tables.obj
 0002:00001cc0       $SG115875                  10029cc0     tables.obj
 0002:00001ccc       $SG115877                  10029ccc     tables.obj
 0002:00001cd8       $SG115879                  10029cd8     tables.obj
 0002:00001ce4       $SG115881                  10029ce4     tables.obj
 0002:00001cec       $SG115883                  10029cec     tables.obj
 0002:00001cf0       $SG115885                  10029cf0     tables.obj
 0002:00001cf8       $SG115887                  10029cf8     tables.obj
 0002:00001d00       $SG115889                  10029d00     tables.obj
 0002:00001d08       $SG115891                  10029d08     tables.obj
 0002:00001d10       $SG115893                  10029d10     tables.obj
 0002:00001d20       $SG115895                  10029d20     tables.obj
 0002:00001d30       $SG115897                  10029d30     tables.obj
 0002:00001d44       $SG115899                  10029d44     tables.obj
 0002:00001d5c       $SG115901                  10029d5c     tables.obj
 0002:00001d68       $SG115903                  10029d68     tables.obj
 0002:00001d74       $SG115905                  10029d74     tables.obj
 0002:00001d80       $SG115907                  10029d80     tables.obj
 0002:00001d90       $SG115909                  10029d90     tables.obj
 0002:00001d9c       $SG115911                  10029d9c     tables.obj
 0002:00001dac       $SG115913                  10029dac     tables.obj
 0002:00001dbc       $SG115915                  10029dbc     tables.obj
 0002:00001dd0       $SG115917                  10029dd0     tables.obj
 0002:00001de0       $SG115919                  10029de0     tables.obj
 0002:00001df4       $SG115921                  10029df4     tables.obj
 0002:00001e04       $SG115923                  10029e04     tables.obj
 0002:00001e14       $SG115925                  10029e14     tables.obj
 0002:00001e20       $SG115928                  10029e20     tables.obj
 0002:00001e34       $SG115930                  10029e34     tables.obj
 0002:00001e48       $SG115932                  10029e48     tables.obj
 0002:00001e5c       $SG115934                  10029e5c     tables.obj
 0002:00001e68       $SG115936                  10029e68     tables.obj
 0002:00001e74       $SG115952                  10029e74     tables.obj
 0002:00001e8c       $SG115954                  10029e8c     tables.obj
 0002:00001e90       $SG116013                  10029e90     tables.obj
 0002:00001ea8       ?sizeof_H3CombatMonster@@3JB 10029ea8     tables.obj
 0002:00001eac       $SG116196                  10029eac     tables.obj
 0002:00001ee0       $SG116314                  10029ee0     tables.obj
 0002:00001f14       $SG116317                  10029f14     tables.obj
 0002:00001f4c       $SG116320                  10029f4c     tables.obj
 0002:00001f84       ?sizeof_Creature_@@3HB     10029f84     tables.obj
 0002:00001f88       $SG116574                  10029f88     tables.obj
 0002:00001fa0       $SG117698                  10029fa0     tables.obj
 0002:00001fb8       $SG117699                  10029fb8     tables.obj
 0002:00001fbc       $SG117701                  10029fbc     tables.obj
 0002:00001fc4       $SG117706                  10029fc4     tables.obj
 0002:00001fd4       $SG117707                  10029fd4     tables.obj
 0002:00001fe8       $SG117721                  10029fe8     tables.obj
 0002:00001ffc       $SG117722                  10029ffc     tables.obj
 0002:00002000       $SG117724                  1002a000     tables.obj
 0002:00002014       $SG117727                  1002a014     tables.obj
 0002:00002024       $SG117728                  1002a024     tables.obj
 0002:00002034       $SG117729                  1002a034     tables.obj
 0002:0000204c       $SG117730                  1002a04c     tables.obj
 0002:0000205c       $SG118138                  1002a05c     tables.obj
 0002:00002074       $SG118140                  1002a074     tables.obj
 0002:00002078       $SG77268                   1002a078     tables.obj
 0002:00002084       ?DLGBLUEBOX@HDassets@NH3Dlg@h3@@3QBDB 1002a084     tables.obj
 0002:00002088       $SG77277                   1002a088     tables.obj
 0002:00002098       ?DLGBLUEBACK@HDassets@NH3Dlg@h3@@3QBDB 1002a098     tables.obj
 0002:0000209c       $SG77279                   1002a09c     tables.obj
 0002:000020ac       ?LINE_SEPARATOR@HDassets@NH3Dlg@h3@@3QBDB 1002a0ac     tables.obj
 0002:000020b0       $SG77281                   1002a0b0     tables.obj
 0002:000020c0       ?HD_STATUSBAR_PCX@HDassets@NH3Dlg@h3@@3QBDB 1002a0c0     tables.obj
 0002:000020c4       $SG77283                   1002a0c4     tables.obj
 0002:000020d4       $SG77285                   1002a0d4     tables.obj
 0002:000020e4       $SG77287                   1002a0e4     tables.obj
 0002:000020f0       $SG77289                   1002a0f0     tables.obj
 0002:000020fc       $SG77291                   1002a0fc     tables.obj
 0002:0000210c       ?FRAME_LU@HDassets@NH3Dlg@h3@@3QBDB 1002a10c     tables.obj
 0002:00002110       $SG77293                   1002a110     tables.obj
 0002:00002120       ?FRAME_LD@HDassets@NH3Dlg@h3@@3QBDB 1002a120     tables.obj
 0002:00002124       $SG77295                   1002a124     tables.obj
 0002:00002134       ?FRAME_RU@HDassets@NH3Dlg@h3@@3QBDB 1002a134     tables.obj
 0002:00002138       $SG77297                   1002a138     tables.obj
 0002:00002148       ?FRAME_RD@HDassets@NH3Dlg@h3@@3QBDB 1002a148     tables.obj
 0002:0000214c       $SG77299                   1002a14c     tables.obj
 0002:0000215c       ?FRAME_U@HDassets@NH3Dlg@h3@@3QBDB 1002a15c     tables.obj
 0002:00002160       $SG77301                   1002a160     tables.obj
 0002:0000216c       ?FRAME_D@HDassets@NH3Dlg@h3@@3QBDB 1002a16c     tables.obj
 0002:00002170       $SG77303                   1002a170     tables.obj
 0002:0000217c       ?FRAME_L@HDassets@NH3Dlg@h3@@3QBDB 1002a17c     tables.obj
 0002:00002180       $SG77305                   1002a180     tables.obj
 0002:0000218c       ?FRAME_R@HDassets@NH3Dlg@h3@@3QBDB 1002a18c     tables.obj
 0002:00002190       $SG77307                   1002a190     tables.obj
 0002:0000219c       ?NEW_LINE@h3@@3QBDB        1002a19c     tables.obj
 0002:000021a0       ?KEY_EQUALS@h3@@3QBDB      1002a1a0     tables.obj
 0002:000021a4       ?BOM_HEADER@h3@@3QBDB      1002a1a4     tables.obj
 0002:000021a8       ?MON_Sizeof@@3HB           1002a1a8     tables.obj
 0002:000021ac       ?homm3_rand@@3JB           1002a1ac     tables.obj
 0002:000021b0       ?CombatMan_SummonMonster@@3JB 1002a1b0     tables.obj
 0002:000021e0       _GS_ExceptionPointers      1002a1e0     LIBCMT:gs_report.obj
 0002:00002210       ?tokenTable@@3QBUStringLiteral@@B 1002a210     libvcruntime:undname.obj
 0002:00002298       ?nameTable@@3QBUStringLiteral@@B 1002a298     libvcruntime:undname.obj
 0002:00002530       ?rttiTable@@3QBUStringLiteral@@B 1002a530     libvcruntime:undname.obj
 0002:00002558       ?IndirectionName@@3QBUStringLiteral@@B 1002a558     libvcruntime:undname.obj
 0002:00002588       ?PrefixName@@3QBUStringLiteral@@B 1002a588     libvcruntime:undname.obj
 0002:00002bc4       ?module_names@?A0x14174aea@@3QBQB_WB 1002abc4     libvcruntime:winapi_downlevel.obj
 0002:00002c6c       ?candidate_modules@?1??try_get_FlsAlloc@@YAP6GKP6GXPAX@Z@ZXZ@4QBW4module_id@?A0x14174aea@@B 1002ac6c     libvcruntime:winapi_downlevel.obj
 0002:00002c80       ?candidate_modules@?1??try_get_FlsFree@@YAP6GHK@ZXZ@4QBW4module_id@?A0x14174aea@@B 1002ac80     libvcruntime:winapi_downlevel.obj
 0002:00002c90       ?candidate_modules@?1??try_get_FlsGetValue@@YAP6GPAXK@ZXZ@4QBW4module_id@?A0x14174aea@@B 1002ac90     libvcruntime:winapi_downlevel.obj
 0002:00002ca4       ?candidate_modules@?1??try_get_FlsSetValue@@YAP6GHKPAX@ZXZ@4QBW4module_id@?A0x14174aea@@B 1002aca4     libvcruntime:winapi_downlevel.obj
 0002:00002cb8       ?candidate_modules@?1??try_get_InitializeCriticalSectionEx@@YAP6GHPAU_RTL_CRITICAL_SECTION@@KK@ZXZ@4QBW4module_id@?A0x14174aea@@B 1002acb8     libvcruntime:winapi_downlevel.obj
 0002:00003ac8       ___acrt_initializers       1002bac8     libucrt:initialization.obj
 0002:00003b48       ?errtable@@3QBUerrentry@?A0x31fdb9ec@@B 1002bb48     libucrt:errno.obj
 0002:00003cb0       ?strings@?1??fp_format_nan_or_infinity@@YAHW4__acrt_fp_class@@_NPADI1@Z@4QAY03QBDA 1002bcb0     libucrt:cvt.obj
 0002:00004818       ?module_names@?A0x391cf84c@@3QBQB_WB 1002c818     libucrt:winapi_thunks.obj
 0002:00004ccc       ?candidate_modules@?1??try_get_AreFileApisANSI@@YAP6GHXZXZ@4QBW4module_id@?A0x391cf84c@@B 1002cccc     libucrt:winapi_thunks.obj
 0002:00004ce0       ?candidate_modules@?1??try_get_InitializeCriticalSectionEx@@YAP6GHPAU_RTL_CRITICAL_SECTION@@KK@ZXZ@4QBW4module_id@?A0x391cf84c@@B 1002cce0     libucrt:winapi_thunks.obj
 0002:00004ce8       ?candidate_modules@?1??try_get_LCMapStringEx@@YAP6GHPB_WK0HPA_WHPAU_nlsversioninfo@@PAXJ@ZXZ@4QBW4module_id@?A0x391cf84c@@B 1002cce8     libucrt:winapi_thunks.obj
 0002:00004d00       ?candidate_modules@?1??try_get_LocaleNameToLCID@@YAP6GKPB_WK@ZXZ@4QBW4module_id@?A0x391cf84c@@B 1002cd00     libucrt:winapi_thunks.obj
 0002:00004d1c       ?candidate_modules@?1??try_get_AppPolicyGetProcessTerminationMethod@@YAP6GJPAXPAW4AppPolicyProcessTerminationMethod@@@ZXZ@4QBW4module_id@?A0x391cf84c@@B 1002cd1c     libucrt:winapi_thunks.obj
 0002:00004d48       ?candidate_modules@?1??try_get_FlsAlloc@@YAP6GKP6GXPAX@Z@ZXZ@4QBW4module_id@?A0x391cf84c@@B 1002cd48     libucrt:winapi_thunks.obj
 0002:00004d50       ?candidate_modules@?1??try_get_FlsFree@@YAP6GHK@ZXZ@4QBW4module_id@?A0x391cf84c@@B 1002cd50     libucrt:winapi_thunks.obj
 0002:00004d58       ?candidate_modules@?1??try_get_FlsGetValue@@YAP6GPAXK@ZXZ@4QBW4module_id@?A0x391cf84c@@B 1002cd58     libucrt:winapi_thunks.obj
 0002:00004d60       ?candidate_modules@?1??try_get_FlsSetValue@@YAP6GHKPAX@ZXZ@4QBW4module_id@?A0x391cf84c@@B 1002cd60     libucrt:winapi_thunks.obj
 0002:00004d68       ?_mb_locale_names@@3QBQB_WB 1002cd68     libucrt:mbctype.obj
 0002:00004dd8       ?LcidToLocaleNameTable@?A0x881e4c05@@3QBULcidToLocaleName@1@B 1002cdd8     libucrt:lcidtoname_downlevel.obj
 0002:00005ef8       ?LocaleNameToIndexTable@?A0x881e4c05@@3QBULocaleNameIndex@1@B 1002def8     libucrt:lcidtoname_downlevel.obj
 0002:00006e50       LOG_name                   1002ee50     libucrt:log10_impl.obj
 0002:00006e60       _One                       1002ee60     libucrt:ceil_pentium4.obj
 0002:00006e70       _Bns                       1002ee70     libucrt:ceil_pentium4.obj
 0002:00006e80       _Zero                      1002ee80     libucrt:ceil_pentium4.obj
 0002:00006e90       _S                         1002ee90     libucrt:ceil_pentium4.obj
 0002:00006ea0       _NegZero                   1002eea0     libucrt:ceil_pentium4.obj
 0002:00006eb0       emask                      1002eeb0     libucrt:log10_pentium4.obj
 0002:00006ec0       CC                         1002eec0     libucrt:log10_pentium4.obj
 0002:00006ed0       Magic                      1002eed0     libucrt:log10_pentium4.obj
 0002:00006ee0       hi_mask                    1002eee0     libucrt:log10_pentium4.obj
 0002:00006ef0       LOG10_2                    1002eef0     libucrt:log10_pentium4.obj
 0002:00006f00       place_L                    1002ef00     libucrt:log10_pentium4.obj
 0002:00006f20       One                        1002ef20     libucrt:log10_pentium4.obj
 0002:00006f30       Zero                       1002ef30     libucrt:log10_pentium4.obj
 0002:00006f40       Two52                      1002ef40     libucrt:log10_pentium4.obj
 0002:00006f50       Infs                       1002ef50     libucrt:log10_pentium4.obj
 0002:00006f60       NaN                        1002ef60     libucrt:log10_pentium4.obj
 0002:00006f70       coeff                      1002ef70     libucrt:log10_pentium4.obj
 0002:00006fde       _log2max                   1002efde     libucrt:87tran.obj
 0002:00006fe8       _smallarg                  1002efe8     libucrt:87tran.obj
 0002:00006ff2       _half                      1002eff2     libucrt:87tran.obj
 0002:0000703e       One                        1002f03e     libucrt:87disp.obj
 0002:00007046       Three                      1002f046     libucrt:87disp.obj
 0002:0000704e       XAMtoTagTab                1002f04e     libucrt:87disp.obj
 0002:00007060       One                        1002f060     libucrt:common.obj
 0002:00007074       DblMax                     1002f074     libucrt:common.obj
 0002:0000707c       DblMin                     1002f07c     libucrt:common.obj
 0002:00007084       IeeeAdjO                   1002f084     libucrt:common.obj
 0002:0000708c       IeeeAdjU                   1002f08c     libucrt:common.obj
 0002:00007094       _infinity                  1002f094     libucrt:common.obj
 0002:0000709c       _zero                      1002f09c     libucrt:common.obj
 0002:000070e0       _over                      1002f0e0     libucrt:fpctrl.obj
 0002:000070ec       _under                     1002f0ec     libucrt:fpctrl.obj
 0002:00007928       ?_names@?1??_get_fname@@9@4QBU<unnamed-type-_names>@?1??1@YAPADI@Z@B 1002f928     libucrt:fpexcept.obj
 0002:00007ad0       two32                      1002fad0     LIBCMT:ftol2.obj
 0002:00007ad4       two63                      1002fad4     LIBCMT:ftol2.obj
 0002:00007ad8       _NaN                       1002fad8     LIBCMT:ftol2.obj
 0002:000081d8       __sehtable$?dllmain_crt_process_attach@@YAHQAUHINSTANCE__@@QAX@Z 100301d8     LIBCMT:dll_dllmain.obj
 0002:000081f8       __sehtable$?dllmain_crt_process_detach@@YAH_N@Z 100301f8     LIBCMT:dll_dllmain.obj
 0002:00008220       __sehtable$?dllmain_dispatch@@YAHQAUHINSTANCE__@@KQAX@Z 10030220     LIBCMT:dll_dllmain.obj
 0002:00008240       __sehtable$___scrt_is_nonwritable_in_current_image 10030240     LIBCMT:utility.obj
 0002:00008260       __sehtable$___DestructExceptionObject 10030260     libvcruntime:ehhelpers.obj
 0002:00008280       __sehtable$?FrameUnwindToState@__FrameHandler3@@SAXPAUEHRegistrationNode@@PAXPBU_s_FuncInfo@@H@Z 10030280     libvcruntime:frame.obj
 0002:000082a8       __sehtable$?CallCatchBlock@@YAPAXPAUEHExceptionRecord@@PAUEHRegistrationNode@@PAU_CONTEXT@@PBU_s_FuncInfo@@PAXHK@Z 100302a8     libvcruntime:frame.obj
 0002:000082d0       __catchsym$?CallUnexpected@@YAXPBU_s_ESTypeList@@@Z$2 100302d0     libvcruntime:frame.obj
 0002:000082e0       __unwindtable$?CallUnexpected@@YAXPBU_s_ESTypeList@@@Z 100302e0     libvcruntime:frame.obj
 0002:000082f0       __tryblocktable$?CallUnexpected@@YAXPBU_s_ESTypeList@@@Z 100302f0     libvcruntime:frame.obj
 0002:00008304       __ehfuncinfo$?CallUnexpected@@YAXPBU_s_ESTypeList@@@Z 10030304     libvcruntime:frame.obj
 0002:00008328       __sehtable$??$BuildCatchObjectHelperInternal@V__FrameHandler3@@@@YAHPAUEHExceptionRecord@@PAXPBU_s_HandlerType@@PBU_s_CatchableType@@@Z 10030328     libvcruntime:frame.obj
 0002:00008348       __sehtable$??$BuildCatchObjectInternal@V__FrameHandler3@@@@YAXPAUEHExceptionRecord@@PAXPBU_s_HandlerType@@PBU_s_CatchableType@@@Z 10030348     libvcruntime:frame.obj
 0002:000083a0       __sehtable$??$?RV<lambda_62491a2101a2aba6cc4a769149c84f1f>@@AAV<lambda_826c27fce7726908515bbc79a5266961>@@V<lambda_4e64bbd54b50a7b070e3ea8d795375b6>@@@?$__crt_seh_guarded_call@H@@QAEH$$QAV<lambda_62491a2101a2aba6cc4a769149c84f1f>@@AAV<lambda_826c27fce7726908515bbc79a5266961>@@$$QAV<lambda_4e64bbd54b50a7b070e3ea8d795375b6>@@@Z 100303a0     libucrt:output.obj
 0002:000083c0       __sehtable$?_fclose_internal@@YAHQAU_iobuf@@AAV__crt_cached_ptd_host@@@Z 100303c0     libucrt:fclose.obj
 0002:000083e0       __sehtable$??$common_fsopen@D@@YAPAU_iobuf@@QBD0H@Z 100303e0     libucrt:fopen.obj
 0002:00008400       __sehtable$_fread_s        10030400     libucrt:fread.obj
 0002:00008420       __sehtable$?common_fseek@@YAHV__crt_stdio_stream@@_JHAAV__crt_cached_ptd_host@@@Z 10030420     libucrt:fseek.obj
 0002:00008440       __sehtable$??$common_ftell@J@@YAJV__crt_stdio_stream@@AAV__crt_cached_ptd_host@@@Z 10030440     libucrt:ftell.obj
 0002:00008460       __sehtable$?_rewind_internal@@YAXQAU_iobuf@@AAV__crt_cached_ptd_host@@@Z 10030460     libucrt:rewind.obj
 0002:00008480       __sehtable$??$?RV<lambda_274ecf0a8038e561263518ab346655e8>@@AAV<lambda_21448eb78dd3c4a522ed7c65a98d88e6>@@V<lambda_0ca1de2171e49cefb1e8dc85c06db622>@@@?$__crt_seh_guarded_call@H@@QAEH$$QAV<lambda_274ecf0a8038e561263518ab346655e8>@@AAV<lambda_21448eb78dd3c4a522ed7c65a98d88e6>@@$$QAV<lambda_0ca1de2171e49cefb1e8dc85c06db622>@@@Z 10030480     libucrt:input.obj
 0002:000084a0       __sehtable$__query_new_handler 100304a0     libucrt:new_handler.obj
 0002:000084bc       __ehfuncinfo$?write_double_translated_ansi_nolock@@YA?AUwrite_result@?A0x17268360@@HQBDIAAV__crt_cached_ptd_host@@@Z 100304bc     libucrt:write.obj
 0002:000084bc       __ehfuncinfo$?try_cor_exit_process@@YAXI@Z 100304bc     libucrt:exit.obj
 0002:000084e0       __unwindtable$?common_exit@@YAXHW4_crt_exit_cleanup_mode@@W4_crt_exit_return_mode@@@Z 100304e0     libucrt:exit.obj
 0002:000084e8       __ehfuncinfo$?common_exit@@YAXHW4_crt_exit_cleanup_mode@@W4_crt_exit_return_mode@@@Z 100304e8     libucrt:exit.obj
 0002:00008510       __sehtable$??R<lambda_6e4b09c48022b2350581041d5f6b0c4c>@@QBE@XZ 10030510     libucrt:exit.obj
 0002:00008530       __sehtable$??$?RV<lambda_03b1d95aef87969028cfba75ccab2455>@@AAV<lambda_6e4b09c48022b2350581041d5f6b0c4c>@@V<lambda_22bdf7517842c4b3e53723af5aa32b9e>@@@?$__crt_seh_guarded_call@X@@QAEX$$QAV<lambda_03b1d95aef87969028cfba75ccab2455>@@AAV<lambda_6e4b09c48022b2350581041d5f6b0c4c>@@$$QAV<lambda_22bdf7517842c4b3e53723af5aa32b9e>@@@Z 10030530     libucrt:exit.obj
 0002:0000854c       __unwindtable$___dcrt_uninitialize_environments_nolock 1003054c     libucrt:environment_initialization.obj
 0002:0000855c       __ehfuncinfo$___dcrt_uninitialize_environments_nolock 1003055c     libucrt:environment_initialization.obj
 0002:00008580       __unwindtable$__execute_onexit_table 10030580     libucrt:onexit.obj
 0002:00008588       __ehfuncinfo$__execute_onexit_table 10030588     libucrt:onexit.obj
 0002:000085b0       __sehtable$??$?RV<lambda_69a2805e680e0e292e8ba93315fe43a8>@@AAV<lambda_f03950bc5685219e0bcd2087efbe011e>@@V<lambda_03fcd07e894ec930e3f35da366ca99d6>@@@?$__crt_seh_guarded_call@H@@QAEH$$QAV<lambda_69a2805e680e0e292e8ba93315fe43a8>@@AAV<lambda_f03950bc5685219e0bcd2087efbe011e>@@$$QAV<lambda_03fcd07e894ec930e3f35da366ca99d6>@@@Z 100305b0     libucrt:onexit.obj
 0002:000085d0       __sehtable$_terminate      100305d0     libucrt:terminate.obj
 0002:000085f0       __sehtable$??$?RV<lambda_15ade71b0218206bbe3333a0c9b79046>@@AAV<lambda_da44e0f8b0f19ba52fefafb335991732>@@V<lambda_207f2d024fc103971653565357d6cd41>@@@?$__crt_seh_guarded_call@X@@QAEX$$QAV<lambda_15ade71b0218206bbe3333a0c9b79046>@@AAV<lambda_da44e0f8b0f19ba52fefafb335991732>@@$$QAV<lambda_207f2d024fc103971653565357d6cd41>@@@Z 100305f0     libucrt:per_thread_data.obj
 0002:00008610       __sehtable$??$?RV<lambda_a7e850c220f1c8d1e6efeecdedd162c6>@@AAV<lambda_46720907175c18b6c9d2717bc0d2d362>@@V<lambda_9048902d66e8d99359bc9897bbb930a8>@@@?$__crt_seh_guarded_call@X@@QAEX$$QAV<lambda_a7e850c220f1c8d1e6efeecdedd162c6>@@AAV<lambda_46720907175c18b6c9d2717bc0d2d362>@@$$QAV<lambda_9048902d66e8d99359bc9897bbb930a8>@@@Z 10030610     libucrt:per_thread_data.obj
 0002:00008630       __sehtable$??$?RV<lambda_38edbb1296d33220d7e4dd0ed76b244a>@@AAV<lambda_5ce1d447e08cb34b2473517608e21441>@@V<lambda_fb385d3da700c9147fc39e65dd577a8c>@@@?$__crt_seh_guarded_call@X@@QAEX$$QAV<lambda_38edbb1296d33220d7e4dd0ed76b244a>@@AAV<lambda_5ce1d447e08cb34b2473517608e21441>@@$$QAV<lambda_fb385d3da700c9147fc39e65dd577a8c>@@@Z 10030630     libucrt:per_thread_data.obj
 0002:00008650       __sehtable$??$?RV<lambda_6affb1475c98b40b75cdec977db92e3c>@@AAV<lambda_b8d4b9c228a6ecc3f80208dbb4b4a104>@@V<lambda_608742c3c92a14382c1684fc64f96c88>@@@?$__crt_seh_guarded_call@X@@QAEX$$QAV<lambda_6affb1475c98b40b75cdec977db92e3c>@@AAV<lambda_b8d4b9c228a6ecc3f80208dbb4b4a104>@@$$QAV<lambda_608742c3c92a14382c1684fc64f96c88>@@@Z 10030650     libucrt:per_thread_data.obj
 0002:00008670       __sehtable$??$?RV<lambda_e5124f882df8998aaf41531e079ba474>@@AAV<lambda_3e16ef9562a7dcce91392c22ab16ea36>@@V<lambda_e25ca0880e6ef98be67edffd8c599615>@@@?$__crt_seh_guarded_call@X@@QAEX$$QAV<lambda_e5124f882df8998aaf41531e079ba474>@@AAV<lambda_3e16ef9562a7dcce91392c22ab16ea36>@@$$QAV<lambda_e25ca0880e6ef98be67edffd8c599615>@@@Z 10030670     libucrt:wsetlocale.obj
 0002:00008690       __sehtable$___acrt_initialize_lowio 10030690     libucrt:ioinit.obj
 0002:000086b0       __sehtable$??$?RV<lambda_d422a76eb4c3bf3ad751449ab71a6ea4>@@AAV<lambda_c9ba49e555ba839a7b07aa3fbecb7617>@@V<lambda_9476263c8ee91a25d21c55370bdb50de>@@@?$__crt_seh_guarded_call@H@@QAEH$$QAV<lambda_d422a76eb4c3bf3ad751449ab71a6ea4>@@AAV<lambda_c9ba49e555ba839a7b07aa3fbecb7617>@@$$QAV<lambda_9476263c8ee91a25d21c55370bdb50de>@@@Z 100306b0     libucrt:close.obj
 0002:000086d0       __sehtable$?__acrt_stdio_allocate_stream@@YA?AV__crt_stdio_stream@@XZ 100306d0     libucrt:stream.obj
 0002:000086f0       __sehtable$??$?RV<lambda_2866be3712abc81a800a822484c830d8>@@AAV<lambda_39ca0ed439415581b5b15c265174cece>@@V<lambda_2b24c74d71094a6cd0cb82e44167d71b>@@@?$__crt_seh_guarded_call@X@@QAEX$$QAV<lambda_2866be3712abc81a800a822484c830d8>@@AAV<lambda_39ca0ed439415581b5b15c265174cece>@@$$QAV<lambda_2b24c74d71094a6cd0cb82e44167d71b>@@@Z 100306f0     libucrt:fflush.obj
 0002:00008710       __sehtable$??$?RV<lambda_2cc53f568c5a2bb6f192f930a45d44ea>@@AAV<lambda_ab61a845afdef5b7c387490eaf3616ee>@@V<lambda_c2ffc0b7726aa6be21d5f0026187e748>@@@?$__crt_seh_guarded_call@X@@QAEX$$QAV<lambda_2cc53f568c5a2bb6f192f930a45d44ea>@@AAV<lambda_ab61a845afdef5b7c387490eaf3616ee>@@$$QAV<lambda_c2ffc0b7726aa6be21d5f0026187e748>@@@Z 10030710     libucrt:fflush.obj
 0002:00008730       __sehtable$__read          10030730     libucrt:read.obj
 0002:00008750       __sehtable$??$common_lseek@J@@YAJHJHAAV__crt_cached_ptd_host@@@Z 10030750     libucrt:lseek.obj
 0002:00008770       __sehtable$??$common_lseek@_J@@YA_JH_JHAAV__crt_cached_ptd_host@@@Z 10030770     libucrt:lseek.obj
 0002:00008790       __sehtable$?update_thread_multibyte_data_internal@@YAPAU__crt_multibyte_data@@QAU__acrt_ptd@@QAPAU1@@Z 10030790     libucrt:mbctype.obj
 0002:000087b0       __sehtable$??$?RV<lambda_ceb1ee4838e85a9d631eb091e2fbe199>@@AAV<lambda_ae742caa10f662c28703da3d2ea5e57e>@@V<lambda_cd08b5d6af4937fe54fc07d0c9bf6b37>@@@?$__crt_seh_guarded_call@X@@QAEX$$QAV<lambda_ceb1ee4838e85a9d631eb091e2fbe199>@@AAV<lambda_ae742caa10f662c28703da3d2ea5e57e>@@$$QAV<lambda_cd08b5d6af4937fe54fc07d0c9bf6b37>@@@Z 100307b0     libucrt:mbctype.obj
 0002:000087d0       __sehtable$_raise          100307d0     libucrt:signal.obj
 0002:000087f0       __sehtable$??$?RV<lambda_cbab9ec6f41b0180b23cc171c22676b0>@@AAV<lambda_44731a7d0e6d81c3e6aa82d741081786>@@V<lambda_4b292cb8dd18144e164572427af410ab>@@@?$__crt_seh_guarded_call@P6AXH@Z@@QAEP6AXH@Z$$QAV<lambda_cbab9ec6f41b0180b23cc171c22676b0>@@AAV<lambda_44731a7d0e6d81c3e6aa82d741081786>@@$$QAV<lambda_4b292cb8dd18144e164572427af410ab>@@@Z 100307f0     libucrt:signal.obj
 0002:00008810       __sehtable$___acrt_update_thread_locale_data 10030810     libucrt:locale_refcounting.obj
 0002:00008830       __sehtable$__fcloseall     10030830     libucrt:closeall.obj
 0002:00008850       __sehtable$__alloc_osfhnd  10030850     libucrt:osfinfo.obj
 0002:00008870       __sehtable$___acrt_lowio_ensure_fh_exists 10030870     libucrt:osfinfo.obj
 0002:00008890       __sehtable$??$?RV<lambda_9e9de3de5fa147e2223d7db92bc10aa6>@@AAV<lambda_38ce7e780aa69e748d6df282ebc68efe>@@V<lambda_8ca6da459f0f6780f1cff60fdc3d00e5>@@@?$__crt_seh_guarded_call@H@@QAEH$$QAV<lambda_9e9de3de5fa147e2223d7db92bc10aa6>@@AAV<lambda_38ce7e780aa69e748d6df282ebc68efe>@@$$QAV<lambda_8ca6da459f0f6780f1cff60fdc3d00e5>@@@Z 10030890     libucrt:commit.obj
 0002:000088b0       __sehtable$__write_internal 100308b0     libucrt:write.obj
 0002:000088d0       __sehtable$??$common_sopen_dispatch@D@@YAHQBDHHHQAHH@Z 100308d0     libucrt:open.obj
 0002:000088f0       __sehtable$___set_fpsr_sse2 100308f0     libucrt:fpctrl.obj
 0002:00008910       __sehtable$__IsNonwritableInCurrentImage 10030910     LIBCMT:pesect.obj
 0002:00008930       .edata                     10030930     amethyst2_4.exp
 0002:00008958       rgpv                       10030958     amethyst2_4.exp
 0002:00008978       rgszName                   10030978     amethyst2_4.exp
 0002:00008998       rgwOrd                     10030998     amethyst2_4.exp
 0002:000089a8       szName                     100309a8     amethyst2_4.exp
 0002:000089b8       $N00001                    100309b8     amethyst2_4.exp
 0002:000089cc       $N00002                    100309cc     amethyst2_4.exp
 0002:000089de       $N00003                    100309de     amethyst2_4.exp
 0002:000089f2       $N00004                    100309f2     amethyst2_4.exp
 0002:00008a03       $N00005                    10030a03     amethyst2_4.exp
 0002:00008a13       $N00006                    10030a13     amethyst2_4.exp
 0002:00008a1f       $N00007                    10030a1f     amethyst2_4.exp
 0002:00008a33       $N00008                    10030a33     amethyst2_4.exp
 0002:00008c1c       .idata$6                   10030c1c     kernel32:KERNEL32.dll
 0002:00008c38       .idata$6                   10030c38     user32:USER32.dll
 0003:00000b28       ?i@?1??fake_new@@YAHH@Z@4HA 10032b28     core.obj
 0003:000010c8       ?SG_Shift@@3PAY01HA        100330c8     Summon.obj
 0003:00002d80       ?first_time@?1??CreateAdditionalTables@@YAXXZ@4_NA 10034d80     tables.obj
 0003:000030e0       ?__vcrt_flsindex@@3KA      100350e0     libvcruntime:per_thread_data.obj
 0003:00003110       ?errno_no_memory@@3HA      10035110     libucrt:errno.obj
 0003:00003114       ?doserrno_no_memory@@3KA   10035114     libucrt:errno.obj
 0003:000031c0       ?__acrt_flsindex@@3KA      100351c0     libucrt:per_thread_data.obj
 0003:000035e8       __mbctypes                 100355e8     libucrt:mbctype.obj
 0003:000036f0       __mbcasemaps               100356f0     libucrt:mbctype.obj
 0003:000037f0       ?__rgctypeflag@@3PADA      100357f0     libucrt:mbctype.obj
 0003:000037f8       ?__rgcode_page_info@@3PAUcode_page_info@@A 100357f8     libucrt:mbctype.obj
 0003:00003950       ?__dcrt_lowio_console_output_handle@@3PAXA 10035950     libucrt:initcon.obj
 0003:00003954       ?__DAZ_ENABLED@?1??__set_fpsr_sse2@@9@9 10035954     libucrt:fpctrl.obj
 0003:00134a94       ?__once__@?1??ReloadExperienceConfig2@@YGXXZ@4_NA 10166a94     dllmain.obj
 0003:00194d58       ?SC_Type@@3HA              101c6d58     Summon.obj
 0003:00194d5c       ?SC_Num@@3HA               101c6d5c     Summon.obj
 0003:00194d60       ?SC_Pos@@3HA               101c6d60     Summon.obj
 0003:00194d64       ?SC_Side@@3HA              101c6d64     Summon.obj
 0003:00194d68       ?SC_Slot@@3HA              101c6d68     Summon.obj
 0003:00194d6c       ?SC_Redraw@@3HA            101c6d6c     Summon.obj
 0003:00194d70       ?SC_Flags@@3HA             101c6d70     Summon.obj
 0003:00194d74       ?SC_MStruct@@3PAEA         101c6d74     Summon.obj
 0003:0060e864       ?SAT_MonID@@3JA            10640864     tables.obj
 0003:0060e868       ?SAT_MonPTR@@3PAEA         10640868     tables.obj
 0003:0060e86c       ?SAT_Ret@@3DA              1064086c     tables.obj
 0003:0060ec70       _GS_ExceptionRecord        10640c70     LIBCMT:gs_report.obj
 0003:0060ecc0       _GS_ContextRecord          10640cc0     LIBCMT:gs_report.obj
 0003:0060ef8c       ?__proc_attached@@3HA      10640f8c     LIBCMT:dll_dllmain.obj
 0003:0060efa0       ?is_initialized_as_dll@@3_NA 10640fa0     LIBCMT:utility.obj
 0003:0060efa1       ?module_local_atexit_table_initialized@@3_NA 10640fa1     LIBCMT:utility.obj
 0003:0060efa4       ?module_local_atexit_table@@3U_onexit_table_t@@A 10640fa4     LIBCMT:utility.obj
 0003:0060efb0       ?module_local_at_quick_exit_table@@3U_onexit_table_t@@A 10640fb0     LIBCMT:utility.obj
 0003:0060efd0       ?__vcrt_startup_thread_ptd@@3U__vcrt_ptd@@A 10640fd0     libvcruntime:per_thread_data.obj
 0003:0060f020       ?heap@@3V_HeapManager@@A   10641020     libvcruntime:undname.obj
 0003:0060f034       ___vcrt_lock_table         10641034     libvcruntime:locks.obj
 0003:0060f04c       ___vcrt_locks_initialized  1064104c     libvcruntime:locks.obj
 0003:0060f050       ?module_handles@@3PAPAUHINSTANCE__@@A 10641050     libvcruntime:winapi_downlevel.obj
 0003:0060f05c       ?function_pointers@@3PAPAXA 1064105c     libvcruntime:winapi_downlevel.obj
 0003:0060f074       ?__acrt_invalid_parameter_handler@@3V?$dual_state_global@P6AXPB_W00II@Z@__crt_state_management@@A 10641074     libucrt:invalid_parameter.obj
 0003:0060f078       ?__acrt_new_handler@@3V?$dual_state_global@P6AHI@Z@__crt_state_management@@A 10641078     libucrt:new_handler.obj
 0003:0060f07c       ?c_termination_complete@@3JA 1064107c     libucrt:exit.obj
 0003:0060f080       ?thread_local_exit_callback_func@@3P6GXPAXK0@ZA 10641080     libucrt:exit.obj
 0003:0060f088       ?program_name@?1???$common_configure_argv@D@@YAHW4_crt_argv_mode@@@Z@4PADA 10641088     libucrt:argv_parsing.obj
 0003:0060f1b8       ?internal_state@?1??_mbtowc_internal@@9@4U_Mbstatet@@A 106411b8     libucrt:mbtowc.obj
 0003:0060f1cc       ?enable_percent_n@@3IA     106411cc     libucrt:printf_count_output.obj
 0003:0060f3e8       ?module_handles@@3PAPAUHINSTANCE__@@A 106413e8     libucrt:winapi_thunks.obj
 0003:0060f438       ?encoded_function_pointers@@3PAPAXA 10641438     libucrt:winapi_thunks.obj
 0003:0060f4c0       ?__acrt_lock_table@@3PAU_RTL_CRITICAL_SECTION@@A 106414c0     libucrt:locks.obj
 0003:0060f610       ?__acrt_locks_initialized@@3IA 10641610     libucrt:locks.obj
 0003:0060f620       ?fSystemSet@@3HA           10641620     libucrt:mbctype.obj
 0003:0060f624       ?initialized@?1??__acrt_initialize_multibyte@@9@4_NA 10641624     libucrt:mbctype.obj
 0003:0060f644       ?ctrlc_action@@3V?$dual_state_global@P6AXH@Z@__crt_state_management@@A 10641644     libucrt:signal.obj
 0003:0060f648       ?ctrlbreak_action@@3V?$dual_state_global@P6AXH@Z@__crt_state_management@@A 10641648     libucrt:signal.obj
 0003:0060f64c       ?abort_action@@3V?$dual_state_global@P6AXH@Z@__crt_state_management@@A 1064164c     libucrt:signal.obj
 0003:0060f650       ?term_action@@3V?$dual_state_global@P6AXH@Z@__crt_state_management@@A 10641650     libucrt:signal.obj
 0003:0060f654       ?user_matherr@@3V?$dual_state_global@P6AHPAU_exception@@@Z@__crt_state_management@@A 10641654     libucrt:matherr.obj
 0003:0060f658       ?__acrt_global_new_mode@@3V?$dual_state_global@J@__crt_state_management@@A 10641658     libucrt:new_mode.obj
 0003:0060f668       ?internal_pst@?1??__mbrtoc32_utf8@__crt_mbstring@@YAIPA_UPBDIPAU_Mbstatet@@AAV__crt_cached_ptd_host@@@Z@4U3@A 10641668     libucrt:mbrtoc32.obj
 0003:0060f670       ?__acrt_app_type@@3W4_crt_app_type@@A 10641670     libucrt:report_runtime_error.obj
 0003:0060f67c       __pmatherr_set             1064167c     libucrt:libm_error.obj
 0004:00000060       $R000000                   10642060     * linker generated manifest res *

 Exports

  ordinal    name

        1    _ChangeCreatureTable
               exported name: ChangeCreatureTable
        2    _Creature2Artifact
               exported name: Creature2Artifact
        3    _Creature2Artifact_2
               exported name: Creature2Artifact_2
        4    _InitNecromancy15
               exported name: InitNecromancy15
        5    __hasSantaGuards
               exported name: _hasSantaGuards
        6    _check_harpy
               exported name: check_harpy
        7    _isCreatureConstruct
               exported name: isCreatureConstruct
        8    _isReceptive
               exported name: isReceptive
